
RS41SimTx.elf:     file format elf32-littlearm

Sections:
Idx Name          Size      VMA       LMA       File off  Algn
  0 .isr_vector   0000013c  08000000  08000000  00010000  2**0
                  CONTENTS, ALLOC, LOAD, READONLY, DATA
  1 .text         00008cec  08000140  08000140  00010140  2**3
                  CONTENTS, ALLOC, LOAD, READONLY, CODE
  2 .rodata       000000d0  08008e2c  08008e2c  00018e2c  2**2
                  CONTENTS, ALLOC, LOAD, READONLY, DATA
  3 .ARM.extab    00000000  08008efc  08008efc  000201e4  2**0
                  CONTENTS
  4 .ARM          00000000  08008efc  08008efc  000201e4  2**0
                  CONTENTS
  5 .preinit_array 00000000  08008efc  08008efc  000201e4  2**0
                  CONTENTS, ALLOC, LOAD, DATA
  6 .init_array   00000004  08008efc  08008efc  00018efc  2**2
                  CONTENTS, ALLOC, LOAD, DATA
  7 .fini_array   00000004  08008f00  08008f00  00018f00  2**2
                  CONTENTS, ALLOC, LOAD, DATA
  8 .data         000001e4  20000000  08008f04  00020000  2**2
                  CONTENTS, ALLOC, LOAD, DATA
  9 .bss          00001a20  200001e4  080090e8  000201e4  2**2
                  ALLOC
 10 ._user_heap_stack 00000604  20001c04  080090e8  00021c04  2**0
                  ALLOC
 11 .ARM.attributes 00000029  00000000  00000000  000201e4  2**0
                  CONTENTS, READONLY
 12 .debug_info   0001580c  00000000  00000000  0002020d  2**0
                  CONTENTS, READONLY, DEBUGGING, OCTETS
 13 .debug_abbrev 00003a4a  00000000  00000000  00035a19  2**0
                  CONTENTS, READONLY, DEBUGGING, OCTETS
 14 .debug_aranges 00001398  00000000  00000000  00039468  2**3
                  CONTENTS, READONLY, DEBUGGING, OCTETS
 15 .debug_ranges 000011d0  00000000  00000000  0003a800  2**3
                  CONTENTS, READONLY, DEBUGGING, OCTETS
 16 .debug_macro  0001a81e  00000000  00000000  0003b9d0  2**0
                  CONTENTS, READONLY, DEBUGGING, OCTETS
 17 .debug_line   00017120  00000000  00000000  000561ee  2**0
                  CONTENTS, READONLY, DEBUGGING, OCTETS
 18 .debug_str    00094a06  00000000  00000000  0006d30e  2**0
                  CONTENTS, READONLY, DEBUGGING, OCTETS
 19 .comment      00000050  00000000  00000000  00101d14  2**0
                  CONTENTS, READONLY
 20 .debug_frame  0000552c  00000000  00000000  00101d64  2**2
                  CONTENTS, READONLY, DEBUGGING, OCTETS

Disassembly of section .text:

08000140 <__do_global_dtors_aux>:
 8000140:	b510      	push	{r4, lr}
 8000142:	4c05      	ldr	r4, [pc, #20]	; (8000158 <__do_global_dtors_aux+0x18>)
 8000144:	7823      	ldrb	r3, [r4, #0]
 8000146:	b933      	cbnz	r3, 8000156 <__do_global_dtors_aux+0x16>
 8000148:	4b04      	ldr	r3, [pc, #16]	; (800015c <__do_global_dtors_aux+0x1c>)
 800014a:	b113      	cbz	r3, 8000152 <__do_global_dtors_aux+0x12>
 800014c:	4804      	ldr	r0, [pc, #16]	; (8000160 <__do_global_dtors_aux+0x20>)
 800014e:	f3af 8000 	nop.w
 8000152:	2301      	movs	r3, #1
 8000154:	7023      	strb	r3, [r4, #0]
 8000156:	bd10      	pop	{r4, pc}
 8000158:	200001e4 	.word	0x200001e4
 800015c:	00000000 	.word	0x00000000
 8000160:	08008e14 	.word	0x08008e14

08000164 <frame_dummy>:
 8000164:	b508      	push	{r3, lr}
 8000166:	4b03      	ldr	r3, [pc, #12]	; (8000174 <frame_dummy+0x10>)
 8000168:	b11b      	cbz	r3, 8000172 <frame_dummy+0xe>
 800016a:	4903      	ldr	r1, [pc, #12]	; (8000178 <frame_dummy+0x14>)
 800016c:	4803      	ldr	r0, [pc, #12]	; (800017c <frame_dummy+0x18>)
 800016e:	f3af 8000 	nop.w
 8000172:	bd08      	pop	{r3, pc}
 8000174:	00000000 	.word	0x00000000
 8000178:	200001e8 	.word	0x200001e8
 800017c:	08008e14 	.word	0x08008e14

08000180 <__aeabi_drsub>:
 8000180:	f081 4100 	eor.w	r1, r1, #2147483648	; 0x80000000
 8000184:	e002      	b.n	800018c <__adddf3>
 8000186:	bf00      	nop

08000188 <__aeabi_dsub>:
 8000188:	f083 4300 	eor.w	r3, r3, #2147483648	; 0x80000000

0800018c <__adddf3>:
 800018c:	b530      	push	{r4, r5, lr}
 800018e:	ea4f 0441 	mov.w	r4, r1, lsl #1
 8000192:	ea4f 0543 	mov.w	r5, r3, lsl #1
 8000196:	ea94 0f05 	teq	r4, r5
 800019a:	bf08      	it	eq
 800019c:	ea90 0f02 	teqeq	r0, r2
 80001a0:	bf1f      	itttt	ne
 80001a2:	ea54 0c00 	orrsne.w	ip, r4, r0
 80001a6:	ea55 0c02 	orrsne.w	ip, r5, r2
 80001aa:	ea7f 5c64 	mvnsne.w	ip, r4, asr #21
 80001ae:	ea7f 5c65 	mvnsne.w	ip, r5, asr #21
 80001b2:	f000 80e2 	beq.w	800037a <__adddf3+0x1ee>
 80001b6:	ea4f 5454 	mov.w	r4, r4, lsr #21
 80001ba:	ebd4 5555 	rsbs	r5, r4, r5, lsr #21
 80001be:	bfb8      	it	lt
 80001c0:	426d      	neglt	r5, r5
 80001c2:	dd0c      	ble.n	80001de <__adddf3+0x52>
 80001c4:	442c      	add	r4, r5
 80001c6:	ea80 0202 	eor.w	r2, r0, r2
 80001ca:	ea81 0303 	eor.w	r3, r1, r3
 80001ce:	ea82 0000 	eor.w	r0, r2, r0
 80001d2:	ea83 0101 	eor.w	r1, r3, r1
 80001d6:	ea80 0202 	eor.w	r2, r0, r2
 80001da:	ea81 0303 	eor.w	r3, r1, r3
 80001de:	2d36      	cmp	r5, #54	; 0x36
 80001e0:	bf88      	it	hi
 80001e2:	bd30      	pophi	{r4, r5, pc}
 80001e4:	f011 4f00 	tst.w	r1, #2147483648	; 0x80000000
 80001e8:	ea4f 3101 	mov.w	r1, r1, lsl #12
 80001ec:	f44f 1c80 	mov.w	ip, #1048576	; 0x100000
 80001f0:	ea4c 3111 	orr.w	r1, ip, r1, lsr #12
 80001f4:	d002      	beq.n	80001fc <__adddf3+0x70>
 80001f6:	4240      	negs	r0, r0
 80001f8:	eb61 0141 	sbc.w	r1, r1, r1, lsl #1
 80001fc:	f013 4f00 	tst.w	r3, #2147483648	; 0x80000000
 8000200:	ea4f 3303 	mov.w	r3, r3, lsl #12
 8000204:	ea4c 3313 	orr.w	r3, ip, r3, lsr #12
 8000208:	d002      	beq.n	8000210 <__adddf3+0x84>
 800020a:	4252      	negs	r2, r2
 800020c:	eb63 0343 	sbc.w	r3, r3, r3, lsl #1
 8000210:	ea94 0f05 	teq	r4, r5
 8000214:	f000 80a7 	beq.w	8000366 <__adddf3+0x1da>
 8000218:	f1a4 0401 	sub.w	r4, r4, #1
 800021c:	f1d5 0e20 	rsbs	lr, r5, #32
 8000220:	db0d      	blt.n	800023e <__adddf3+0xb2>
 8000222:	fa02 fc0e 	lsl.w	ip, r2, lr
 8000226:	fa22 f205 	lsr.w	r2, r2, r5
 800022a:	1880      	adds	r0, r0, r2
 800022c:	f141 0100 	adc.w	r1, r1, #0
 8000230:	fa03 f20e 	lsl.w	r2, r3, lr
 8000234:	1880      	adds	r0, r0, r2
 8000236:	fa43 f305 	asr.w	r3, r3, r5
 800023a:	4159      	adcs	r1, r3
 800023c:	e00e      	b.n	800025c <__adddf3+0xd0>
 800023e:	f1a5 0520 	sub.w	r5, r5, #32
 8000242:	f10e 0e20 	add.w	lr, lr, #32
 8000246:	2a01      	cmp	r2, #1
 8000248:	fa03 fc0e 	lsl.w	ip, r3, lr
 800024c:	bf28      	it	cs
 800024e:	f04c 0c02 	orrcs.w	ip, ip, #2
 8000252:	fa43 f305 	asr.w	r3, r3, r5
 8000256:	18c0      	adds	r0, r0, r3
 8000258:	eb51 71e3 	adcs.w	r1, r1, r3, asr #31
 800025c:	f001 4500 	and.w	r5, r1, #2147483648	; 0x80000000
 8000260:	d507      	bpl.n	8000272 <__adddf3+0xe6>
 8000262:	f04f 0e00 	mov.w	lr, #0
 8000266:	f1dc 0c00 	rsbs	ip, ip, #0
 800026a:	eb7e 0000 	sbcs.w	r0, lr, r0
 800026e:	eb6e 0101 	sbc.w	r1, lr, r1
 8000272:	f5b1 1f80 	cmp.w	r1, #1048576	; 0x100000
 8000276:	d31b      	bcc.n	80002b0 <__adddf3+0x124>
 8000278:	f5b1 1f00 	cmp.w	r1, #2097152	; 0x200000
 800027c:	d30c      	bcc.n	8000298 <__adddf3+0x10c>
 800027e:	0849      	lsrs	r1, r1, #1
 8000280:	ea5f 0030 	movs.w	r0, r0, rrx
 8000284:	ea4f 0c3c 	mov.w	ip, ip, rrx
 8000288:	f104 0401 	add.w	r4, r4, #1
 800028c:	ea4f 5244 	mov.w	r2, r4, lsl #21
 8000290:	f512 0f80 	cmn.w	r2, #4194304	; 0x400000
 8000294:	f080 809a 	bcs.w	80003cc <__adddf3+0x240>
 8000298:	f1bc 4f00 	cmp.w	ip, #2147483648	; 0x80000000
 800029c:	bf08      	it	eq
 800029e:	ea5f 0c50 	movseq.w	ip, r0, lsr #1
 80002a2:	f150 0000 	adcs.w	r0, r0, #0
 80002a6:	eb41 5104 	adc.w	r1, r1, r4, lsl #20
 80002aa:	ea41 0105 	orr.w	r1, r1, r5
 80002ae:	bd30      	pop	{r4, r5, pc}
 80002b0:	ea5f 0c4c 	movs.w	ip, ip, lsl #1
 80002b4:	4140      	adcs	r0, r0
 80002b6:	eb41 0101 	adc.w	r1, r1, r1
 80002ba:	3c01      	subs	r4, #1
 80002bc:	bf28      	it	cs
 80002be:	f5b1 1f80 	cmpcs.w	r1, #1048576	; 0x100000
 80002c2:	d2e9      	bcs.n	8000298 <__adddf3+0x10c>
 80002c4:	f091 0f00 	teq	r1, #0
 80002c8:	bf04      	itt	eq
 80002ca:	4601      	moveq	r1, r0
 80002cc:	2000      	moveq	r0, #0
 80002ce:	fab1 f381 	clz	r3, r1
 80002d2:	bf08      	it	eq
 80002d4:	3320      	addeq	r3, #32
 80002d6:	f1a3 030b 	sub.w	r3, r3, #11
 80002da:	f1b3 0220 	subs.w	r2, r3, #32
 80002de:	da0c      	bge.n	80002fa <__adddf3+0x16e>
 80002e0:	320c      	adds	r2, #12
 80002e2:	dd08      	ble.n	80002f6 <__adddf3+0x16a>
 80002e4:	f102 0c14 	add.w	ip, r2, #20
 80002e8:	f1c2 020c 	rsb	r2, r2, #12
 80002ec:	fa01 f00c 	lsl.w	r0, r1, ip
 80002f0:	fa21 f102 	lsr.w	r1, r1, r2
 80002f4:	e00c      	b.n	8000310 <__adddf3+0x184>
 80002f6:	f102 0214 	add.w	r2, r2, #20
 80002fa:	bfd8      	it	le
 80002fc:	f1c2 0c20 	rsble	ip, r2, #32
 8000300:	fa01 f102 	lsl.w	r1, r1, r2
 8000304:	fa20 fc0c 	lsr.w	ip, r0, ip
 8000308:	bfdc      	itt	le
 800030a:	ea41 010c 	orrle.w	r1, r1, ip
 800030e:	4090      	lslle	r0, r2
 8000310:	1ae4      	subs	r4, r4, r3
 8000312:	bfa2      	ittt	ge
 8000314:	eb01 5104 	addge.w	r1, r1, r4, lsl #20
 8000318:	4329      	orrge	r1, r5
 800031a:	bd30      	popge	{r4, r5, pc}
 800031c:	ea6f 0404 	mvn.w	r4, r4
 8000320:	3c1f      	subs	r4, #31
 8000322:	da1c      	bge.n	800035e <__adddf3+0x1d2>
 8000324:	340c      	adds	r4, #12
 8000326:	dc0e      	bgt.n	8000346 <__adddf3+0x1ba>
 8000328:	f104 0414 	add.w	r4, r4, #20
 800032c:	f1c4 0220 	rsb	r2, r4, #32
 8000330:	fa20 f004 	lsr.w	r0, r0, r4
 8000334:	fa01 f302 	lsl.w	r3, r1, r2
 8000338:	ea40 0003 	orr.w	r0, r0, r3
 800033c:	fa21 f304 	lsr.w	r3, r1, r4
 8000340:	ea45 0103 	orr.w	r1, r5, r3
 8000344:	bd30      	pop	{r4, r5, pc}
 8000346:	f1c4 040c 	rsb	r4, r4, #12
 800034a:	f1c4 0220 	rsb	r2, r4, #32
 800034e:	fa20 f002 	lsr.w	r0, r0, r2
 8000352:	fa01 f304 	lsl.w	r3, r1, r4
 8000356:	ea40 0003 	orr.w	r0, r0, r3
 800035a:	4629      	mov	r1, r5
 800035c:	bd30      	pop	{r4, r5, pc}
 800035e:	fa21 f004 	lsr.w	r0, r1, r4
 8000362:	4629      	mov	r1, r5
 8000364:	bd30      	pop	{r4, r5, pc}
 8000366:	f094 0f00 	teq	r4, #0
 800036a:	f483 1380 	eor.w	r3, r3, #1048576	; 0x100000
 800036e:	bf06      	itte	eq
 8000370:	f481 1180 	eoreq.w	r1, r1, #1048576	; 0x100000
 8000374:	3401      	addeq	r4, #1
 8000376:	3d01      	subne	r5, #1
 8000378:	e74e      	b.n	8000218 <__adddf3+0x8c>
 800037a:	ea7f 5c64 	mvns.w	ip, r4, asr #21
 800037e:	bf18      	it	ne
 8000380:	ea7f 5c65 	mvnsne.w	ip, r5, asr #21
 8000384:	d029      	beq.n	80003da <__adddf3+0x24e>
 8000386:	ea94 0f05 	teq	r4, r5
 800038a:	bf08      	it	eq
 800038c:	ea90 0f02 	teqeq	r0, r2
 8000390:	d005      	beq.n	800039e <__adddf3+0x212>
 8000392:	ea54 0c00 	orrs.w	ip, r4, r0
 8000396:	bf04      	itt	eq
 8000398:	4619      	moveq	r1, r3
 800039a:	4610      	moveq	r0, r2
 800039c:	bd30      	pop	{r4, r5, pc}
 800039e:	ea91 0f03 	teq	r1, r3
 80003a2:	bf1e      	ittt	ne
 80003a4:	2100      	movne	r1, #0
 80003a6:	2000      	movne	r0, #0
 80003a8:	bd30      	popne	{r4, r5, pc}
 80003aa:	ea5f 5c54 	movs.w	ip, r4, lsr #21
 80003ae:	d105      	bne.n	80003bc <__adddf3+0x230>
 80003b0:	0040      	lsls	r0, r0, #1
 80003b2:	4149      	adcs	r1, r1
 80003b4:	bf28      	it	cs
 80003b6:	f041 4100 	orrcs.w	r1, r1, #2147483648	; 0x80000000
 80003ba:	bd30      	pop	{r4, r5, pc}
 80003bc:	f514 0480 	adds.w	r4, r4, #4194304	; 0x400000
 80003c0:	bf3c      	itt	cc
 80003c2:	f501 1180 	addcc.w	r1, r1, #1048576	; 0x100000
 80003c6:	bd30      	popcc	{r4, r5, pc}
 80003c8:	f001 4500 	and.w	r5, r1, #2147483648	; 0x80000000
 80003cc:	f045 41fe 	orr.w	r1, r5, #2130706432	; 0x7f000000
 80003d0:	f441 0170 	orr.w	r1, r1, #15728640	; 0xf00000
 80003d4:	f04f 0000 	mov.w	r0, #0
 80003d8:	bd30      	pop	{r4, r5, pc}
 80003da:	ea7f 5c64 	mvns.w	ip, r4, asr #21
 80003de:	bf1a      	itte	ne
 80003e0:	4619      	movne	r1, r3
 80003e2:	4610      	movne	r0, r2
 80003e4:	ea7f 5c65 	mvnseq.w	ip, r5, asr #21
 80003e8:	bf1c      	itt	ne
 80003ea:	460b      	movne	r3, r1
 80003ec:	4602      	movne	r2, r0
 80003ee:	ea50 3401 	orrs.w	r4, r0, r1, lsl #12
 80003f2:	bf06      	itte	eq
 80003f4:	ea52 3503 	orrseq.w	r5, r2, r3, lsl #12
 80003f8:	ea91 0f03 	teqeq	r1, r3
 80003fc:	f441 2100 	orrne.w	r1, r1, #524288	; 0x80000
 8000400:	bd30      	pop	{r4, r5, pc}
 8000402:	bf00      	nop

08000404 <__aeabi_ui2d>:
 8000404:	f090 0f00 	teq	r0, #0
 8000408:	bf04      	itt	eq
 800040a:	2100      	moveq	r1, #0
 800040c:	4770      	bxeq	lr
 800040e:	b530      	push	{r4, r5, lr}
 8000410:	f44f 6480 	mov.w	r4, #1024	; 0x400
 8000414:	f104 0432 	add.w	r4, r4, #50	; 0x32
 8000418:	f04f 0500 	mov.w	r5, #0
 800041c:	f04f 0100 	mov.w	r1, #0
 8000420:	e750      	b.n	80002c4 <__adddf3+0x138>
 8000422:	bf00      	nop

08000424 <__aeabi_i2d>:
 8000424:	f090 0f00 	teq	r0, #0
 8000428:	bf04      	itt	eq
 800042a:	2100      	moveq	r1, #0
 800042c:	4770      	bxeq	lr
 800042e:	b530      	push	{r4, r5, lr}
 8000430:	f44f 6480 	mov.w	r4, #1024	; 0x400
 8000434:	f104 0432 	add.w	r4, r4, #50	; 0x32
 8000438:	f010 4500 	ands.w	r5, r0, #2147483648	; 0x80000000
 800043c:	bf48      	it	mi
 800043e:	4240      	negmi	r0, r0
 8000440:	f04f 0100 	mov.w	r1, #0
 8000444:	e73e      	b.n	80002c4 <__adddf3+0x138>
 8000446:	bf00      	nop

08000448 <__aeabi_f2d>:
 8000448:	0042      	lsls	r2, r0, #1
 800044a:	ea4f 01e2 	mov.w	r1, r2, asr #3
 800044e:	ea4f 0131 	mov.w	r1, r1, rrx
 8000452:	ea4f 7002 	mov.w	r0, r2, lsl #28
 8000456:	bf1f      	itttt	ne
 8000458:	f012 437f 	andsne.w	r3, r2, #4278190080	; 0xff000000
 800045c:	f093 4f7f 	teqne	r3, #4278190080	; 0xff000000
 8000460:	f081 5160 	eorne.w	r1, r1, #939524096	; 0x38000000
 8000464:	4770      	bxne	lr
 8000466:	f032 427f 	bics.w	r2, r2, #4278190080	; 0xff000000
 800046a:	bf08      	it	eq
 800046c:	4770      	bxeq	lr
 800046e:	f093 4f7f 	teq	r3, #4278190080	; 0xff000000
 8000472:	bf04      	itt	eq
 8000474:	f441 2100 	orreq.w	r1, r1, #524288	; 0x80000
 8000478:	4770      	bxeq	lr
 800047a:	b530      	push	{r4, r5, lr}
 800047c:	f44f 7460 	mov.w	r4, #896	; 0x380
 8000480:	f001 4500 	and.w	r5, r1, #2147483648	; 0x80000000
 8000484:	f021 4100 	bic.w	r1, r1, #2147483648	; 0x80000000
 8000488:	e71c      	b.n	80002c4 <__adddf3+0x138>
 800048a:	bf00      	nop

0800048c <__aeabi_ul2d>:
 800048c:	ea50 0201 	orrs.w	r2, r0, r1
 8000490:	bf08      	it	eq
 8000492:	4770      	bxeq	lr
 8000494:	b530      	push	{r4, r5, lr}
 8000496:	f04f 0500 	mov.w	r5, #0
 800049a:	e00a      	b.n	80004b2 <__aeabi_l2d+0x16>

0800049c <__aeabi_l2d>:
 800049c:	ea50 0201 	orrs.w	r2, r0, r1
 80004a0:	bf08      	it	eq
 80004a2:	4770      	bxeq	lr
 80004a4:	b530      	push	{r4, r5, lr}
 80004a6:	f011 4500 	ands.w	r5, r1, #2147483648	; 0x80000000
 80004aa:	d502      	bpl.n	80004b2 <__aeabi_l2d+0x16>
 80004ac:	4240      	negs	r0, r0
 80004ae:	eb61 0141 	sbc.w	r1, r1, r1, lsl #1
 80004b2:	f44f 6480 	mov.w	r4, #1024	; 0x400
 80004b6:	f104 0432 	add.w	r4, r4, #50	; 0x32
 80004ba:	ea5f 5c91 	movs.w	ip, r1, lsr #22
 80004be:	f43f aed8 	beq.w	8000272 <__adddf3+0xe6>
 80004c2:	f04f 0203 	mov.w	r2, #3
 80004c6:	ea5f 0cdc 	movs.w	ip, ip, lsr #3
 80004ca:	bf18      	it	ne
 80004cc:	3203      	addne	r2, #3
 80004ce:	ea5f 0cdc 	movs.w	ip, ip, lsr #3
 80004d2:	bf18      	it	ne
 80004d4:	3203      	addne	r2, #3
 80004d6:	eb02 02dc 	add.w	r2, r2, ip, lsr #3
 80004da:	f1c2 0320 	rsb	r3, r2, #32
 80004de:	fa00 fc03 	lsl.w	ip, r0, r3
 80004e2:	fa20 f002 	lsr.w	r0, r0, r2
 80004e6:	fa01 fe03 	lsl.w	lr, r1, r3
 80004ea:	ea40 000e 	orr.w	r0, r0, lr
 80004ee:	fa21 f102 	lsr.w	r1, r1, r2
 80004f2:	4414      	add	r4, r2
 80004f4:	e6bd      	b.n	8000272 <__adddf3+0xe6>
 80004f6:	bf00      	nop

080004f8 <__aeabi_dmul>:
 80004f8:	b570      	push	{r4, r5, r6, lr}
 80004fa:	f04f 0cff 	mov.w	ip, #255	; 0xff
 80004fe:	f44c 6ce0 	orr.w	ip, ip, #1792	; 0x700
 8000502:	ea1c 5411 	ands.w	r4, ip, r1, lsr #20
 8000506:	bf1d      	ittte	ne
 8000508:	ea1c 5513 	andsne.w	r5, ip, r3, lsr #20
 800050c:	ea94 0f0c 	teqne	r4, ip
 8000510:	ea95 0f0c 	teqne	r5, ip
 8000514:	f000 f8de 	bleq	80006d4 <__aeabi_dmul+0x1dc>
 8000518:	442c      	add	r4, r5
 800051a:	ea81 0603 	eor.w	r6, r1, r3
 800051e:	ea21 514c 	bic.w	r1, r1, ip, lsl #21
 8000522:	ea23 534c 	bic.w	r3, r3, ip, lsl #21
 8000526:	ea50 3501 	orrs.w	r5, r0, r1, lsl #12
 800052a:	bf18      	it	ne
 800052c:	ea52 3503 	orrsne.w	r5, r2, r3, lsl #12
 8000530:	f441 1180 	orr.w	r1, r1, #1048576	; 0x100000
 8000534:	f443 1380 	orr.w	r3, r3, #1048576	; 0x100000
 8000538:	d038      	beq.n	80005ac <__aeabi_dmul+0xb4>
 800053a:	fba0 ce02 	umull	ip, lr, r0, r2
 800053e:	f04f 0500 	mov.w	r5, #0
 8000542:	fbe1 e502 	umlal	lr, r5, r1, r2
 8000546:	f006 4200 	and.w	r2, r6, #2147483648	; 0x80000000
 800054a:	fbe0 e503 	umlal	lr, r5, r0, r3
 800054e:	f04f 0600 	mov.w	r6, #0
 8000552:	fbe1 5603 	umlal	r5, r6, r1, r3
 8000556:	f09c 0f00 	teq	ip, #0
 800055a:	bf18      	it	ne
 800055c:	f04e 0e01 	orrne.w	lr, lr, #1
 8000560:	f1a4 04ff 	sub.w	r4, r4, #255	; 0xff
 8000564:	f5b6 7f00 	cmp.w	r6, #512	; 0x200
 8000568:	f564 7440 	sbc.w	r4, r4, #768	; 0x300
 800056c:	d204      	bcs.n	8000578 <__aeabi_dmul+0x80>
 800056e:	ea5f 0e4e 	movs.w	lr, lr, lsl #1
 8000572:	416d      	adcs	r5, r5
 8000574:	eb46 0606 	adc.w	r6, r6, r6
 8000578:	ea42 21c6 	orr.w	r1, r2, r6, lsl #11
 800057c:	ea41 5155 	orr.w	r1, r1, r5, lsr #21
 8000580:	ea4f 20c5 	mov.w	r0, r5, lsl #11
 8000584:	ea40 505e 	orr.w	r0, r0, lr, lsr #21
 8000588:	ea4f 2ece 	mov.w	lr, lr, lsl #11
 800058c:	f1b4 0cfd 	subs.w	ip, r4, #253	; 0xfd
 8000590:	bf88      	it	hi
 8000592:	f5bc 6fe0 	cmphi.w	ip, #1792	; 0x700
 8000596:	d81e      	bhi.n	80005d6 <__aeabi_dmul+0xde>
 8000598:	f1be 4f00 	cmp.w	lr, #2147483648	; 0x80000000
 800059c:	bf08      	it	eq
 800059e:	ea5f 0e50 	movseq.w	lr, r0, lsr #1
 80005a2:	f150 0000 	adcs.w	r0, r0, #0
 80005a6:	eb41 5104 	adc.w	r1, r1, r4, lsl #20
 80005aa:	bd70      	pop	{r4, r5, r6, pc}
 80005ac:	f006 4600 	and.w	r6, r6, #2147483648	; 0x80000000
 80005b0:	ea46 0101 	orr.w	r1, r6, r1
 80005b4:	ea40 0002 	orr.w	r0, r0, r2
 80005b8:	ea81 0103 	eor.w	r1, r1, r3
 80005bc:	ebb4 045c 	subs.w	r4, r4, ip, lsr #1
 80005c0:	bfc2      	ittt	gt
 80005c2:	ebd4 050c 	rsbsgt	r5, r4, ip
 80005c6:	ea41 5104 	orrgt.w	r1, r1, r4, lsl #20
 80005ca:	bd70      	popgt	{r4, r5, r6, pc}
 80005cc:	f441 1180 	orr.w	r1, r1, #1048576	; 0x100000
 80005d0:	f04f 0e00 	mov.w	lr, #0
 80005d4:	3c01      	subs	r4, #1
 80005d6:	f300 80ab 	bgt.w	8000730 <__aeabi_dmul+0x238>
 80005da:	f114 0f36 	cmn.w	r4, #54	; 0x36
 80005de:	bfde      	ittt	le
 80005e0:	2000      	movle	r0, #0
 80005e2:	f001 4100 	andle.w	r1, r1, #2147483648	; 0x80000000
 80005e6:	bd70      	pople	{r4, r5, r6, pc}
 80005e8:	f1c4 0400 	rsb	r4, r4, #0
 80005ec:	3c20      	subs	r4, #32
 80005ee:	da35      	bge.n	800065c <__aeabi_dmul+0x164>
 80005f0:	340c      	adds	r4, #12
 80005f2:	dc1b      	bgt.n	800062c <__aeabi_dmul+0x134>
 80005f4:	f104 0414 	add.w	r4, r4, #20
 80005f8:	f1c4 0520 	rsb	r5, r4, #32
 80005fc:	fa00 f305 	lsl.w	r3, r0, r5
 8000600:	fa20 f004 	lsr.w	r0, r0, r4
 8000604:	fa01 f205 	lsl.w	r2, r1, r5
 8000608:	ea40 0002 	orr.w	r0, r0, r2
 800060c:	f001 4200 	and.w	r2, r1, #2147483648	; 0x80000000
 8000610:	f021 4100 	bic.w	r1, r1, #2147483648	; 0x80000000
 8000614:	eb10 70d3 	adds.w	r0, r0, r3, lsr #31
 8000618:	fa21 f604 	lsr.w	r6, r1, r4
 800061c:	eb42 0106 	adc.w	r1, r2, r6
 8000620:	ea5e 0e43 	orrs.w	lr, lr, r3, lsl #1
 8000624:	bf08      	it	eq
 8000626:	ea20 70d3 	biceq.w	r0, r0, r3, lsr #31
 800062a:	bd70      	pop	{r4, r5, r6, pc}
 800062c:	f1c4 040c 	rsb	r4, r4, #12
 8000630:	f1c4 0520 	rsb	r5, r4, #32
 8000634:	fa00 f304 	lsl.w	r3, r0, r4
 8000638:	fa20 f005 	lsr.w	r0, r0, r5
 800063c:	fa01 f204 	lsl.w	r2, r1, r4
 8000640:	ea40 0002 	orr.w	r0, r0, r2
 8000644:	f001 4100 	and.w	r1, r1, #2147483648	; 0x80000000
 8000648:	eb10 70d3 	adds.w	r0, r0, r3, lsr #31
 800064c:	f141 0100 	adc.w	r1, r1, #0
 8000650:	ea5e 0e43 	orrs.w	lr, lr, r3, lsl #1
 8000654:	bf08      	it	eq
 8000656:	ea20 70d3 	biceq.w	r0, r0, r3, lsr #31
 800065a:	bd70      	pop	{r4, r5, r6, pc}
 800065c:	f1c4 0520 	rsb	r5, r4, #32
 8000660:	fa00 f205 	lsl.w	r2, r0, r5
 8000664:	ea4e 0e02 	orr.w	lr, lr, r2
 8000668:	fa20 f304 	lsr.w	r3, r0, r4
 800066c:	fa01 f205 	lsl.w	r2, r1, r5
 8000670:	ea43 0302 	orr.w	r3, r3, r2
 8000674:	fa21 f004 	lsr.w	r0, r1, r4
 8000678:	f001 4100 	and.w	r1, r1, #2147483648	; 0x80000000
 800067c:	fa21 f204 	lsr.w	r2, r1, r4
 8000680:	ea20 0002 	bic.w	r0, r0, r2
 8000684:	eb00 70d3 	add.w	r0, r0, r3, lsr #31
 8000688:	ea5e 0e43 	orrs.w	lr, lr, r3, lsl #1
 800068c:	bf08      	it	eq
 800068e:	ea20 70d3 	biceq.w	r0, r0, r3, lsr #31
 8000692:	bd70      	pop	{r4, r5, r6, pc}
 8000694:	f094 0f00 	teq	r4, #0
 8000698:	d10f      	bne.n	80006ba <__aeabi_dmul+0x1c2>
 800069a:	f001 4600 	and.w	r6, r1, #2147483648	; 0x80000000
 800069e:	0040      	lsls	r0, r0, #1
 80006a0:	eb41 0101 	adc.w	r1, r1, r1
 80006a4:	f411 1f80 	tst.w	r1, #1048576	; 0x100000
 80006a8:	bf08      	it	eq
 80006aa:	3c01      	subeq	r4, #1
 80006ac:	d0f7      	beq.n	800069e <__aeabi_dmul+0x1a6>
 80006ae:	ea41 0106 	orr.w	r1, r1, r6
 80006b2:	f095 0f00 	teq	r5, #0
 80006b6:	bf18      	it	ne
 80006b8:	4770      	bxne	lr
 80006ba:	f003 4600 	and.w	r6, r3, #2147483648	; 0x80000000
 80006be:	0052      	lsls	r2, r2, #1
 80006c0:	eb43 0303 	adc.w	r3, r3, r3
 80006c4:	f413 1f80 	tst.w	r3, #1048576	; 0x100000
 80006c8:	bf08      	it	eq
 80006ca:	3d01      	subeq	r5, #1
 80006cc:	d0f7      	beq.n	80006be <__aeabi_dmul+0x1c6>
 80006ce:	ea43 0306 	orr.w	r3, r3, r6
 80006d2:	4770      	bx	lr
 80006d4:	ea94 0f0c 	teq	r4, ip
 80006d8:	ea0c 5513 	and.w	r5, ip, r3, lsr #20
 80006dc:	bf18      	it	ne
 80006de:	ea95 0f0c 	teqne	r5, ip
 80006e2:	d00c      	beq.n	80006fe <__aeabi_dmul+0x206>
 80006e4:	ea50 0641 	orrs.w	r6, r0, r1, lsl #1
 80006e8:	bf18      	it	ne
 80006ea:	ea52 0643 	orrsne.w	r6, r2, r3, lsl #1
 80006ee:	d1d1      	bne.n	8000694 <__aeabi_dmul+0x19c>
 80006f0:	ea81 0103 	eor.w	r1, r1, r3
 80006f4:	f001 4100 	and.w	r1, r1, #2147483648	; 0x80000000
 80006f8:	f04f 0000 	mov.w	r0, #0
 80006fc:	bd70      	pop	{r4, r5, r6, pc}
 80006fe:	ea50 0641 	orrs.w	r6, r0, r1, lsl #1
 8000702:	bf06      	itte	eq
 8000704:	4610      	moveq	r0, r2
 8000706:	4619      	moveq	r1, r3
 8000708:	ea52 0643 	orrsne.w	r6, r2, r3, lsl #1
 800070c:	d019      	beq.n	8000742 <__aeabi_dmul+0x24a>
 800070e:	ea94 0f0c 	teq	r4, ip
 8000712:	d102      	bne.n	800071a <__aeabi_dmul+0x222>
 8000714:	ea50 3601 	orrs.w	r6, r0, r1, lsl #12
 8000718:	d113      	bne.n	8000742 <__aeabi_dmul+0x24a>
 800071a:	ea95 0f0c 	teq	r5, ip
 800071e:	d105      	bne.n	800072c <__aeabi_dmul+0x234>
 8000720:	ea52 3603 	orrs.w	r6, r2, r3, lsl #12
 8000724:	bf1c      	itt	ne
 8000726:	4610      	movne	r0, r2
 8000728:	4619      	movne	r1, r3
 800072a:	d10a      	bne.n	8000742 <__aeabi_dmul+0x24a>
 800072c:	ea81 0103 	eor.w	r1, r1, r3
 8000730:	f001 4100 	and.w	r1, r1, #2147483648	; 0x80000000
 8000734:	f041 41fe 	orr.w	r1, r1, #2130706432	; 0x7f000000
 8000738:	f441 0170 	orr.w	r1, r1, #15728640	; 0xf00000
 800073c:	f04f 0000 	mov.w	r0, #0
 8000740:	bd70      	pop	{r4, r5, r6, pc}
 8000742:	f041 41fe 	orr.w	r1, r1, #2130706432	; 0x7f000000
 8000746:	f441 0178 	orr.w	r1, r1, #16252928	; 0xf80000
 800074a:	bd70      	pop	{r4, r5, r6, pc}

0800074c <__aeabi_ddiv>:
 800074c:	b570      	push	{r4, r5, r6, lr}
 800074e:	f04f 0cff 	mov.w	ip, #255	; 0xff
 8000752:	f44c 6ce0 	orr.w	ip, ip, #1792	; 0x700
 8000756:	ea1c 5411 	ands.w	r4, ip, r1, lsr #20
 800075a:	bf1d      	ittte	ne
 800075c:	ea1c 5513 	andsne.w	r5, ip, r3, lsr #20
 8000760:	ea94 0f0c 	teqne	r4, ip
 8000764:	ea95 0f0c 	teqne	r5, ip
 8000768:	f000 f8a7 	bleq	80008ba <__aeabi_ddiv+0x16e>
 800076c:	eba4 0405 	sub.w	r4, r4, r5
 8000770:	ea81 0e03 	eor.w	lr, r1, r3
 8000774:	ea52 3503 	orrs.w	r5, r2, r3, lsl #12
 8000778:	ea4f 3101 	mov.w	r1, r1, lsl #12
 800077c:	f000 8088 	beq.w	8000890 <__aeabi_ddiv+0x144>
 8000780:	ea4f 3303 	mov.w	r3, r3, lsl #12
 8000784:	f04f 5580 	mov.w	r5, #268435456	; 0x10000000
 8000788:	ea45 1313 	orr.w	r3, r5, r3, lsr #4
 800078c:	ea43 6312 	orr.w	r3, r3, r2, lsr #24
 8000790:	ea4f 2202 	mov.w	r2, r2, lsl #8
 8000794:	ea45 1511 	orr.w	r5, r5, r1, lsr #4
 8000798:	ea45 6510 	orr.w	r5, r5, r0, lsr #24
 800079c:	ea4f 2600 	mov.w	r6, r0, lsl #8
 80007a0:	f00e 4100 	and.w	r1, lr, #2147483648	; 0x80000000
 80007a4:	429d      	cmp	r5, r3
 80007a6:	bf08      	it	eq
 80007a8:	4296      	cmpeq	r6, r2
 80007aa:	f144 04fd 	adc.w	r4, r4, #253	; 0xfd
 80007ae:	f504 7440 	add.w	r4, r4, #768	; 0x300
 80007b2:	d202      	bcs.n	80007ba <__aeabi_ddiv+0x6e>
 80007b4:	085b      	lsrs	r3, r3, #1
 80007b6:	ea4f 0232 	mov.w	r2, r2, rrx
 80007ba:	1ab6      	subs	r6, r6, r2
 80007bc:	eb65 0503 	sbc.w	r5, r5, r3
 80007c0:	085b      	lsrs	r3, r3, #1
 80007c2:	ea4f 0232 	mov.w	r2, r2, rrx
 80007c6:	f44f 1080 	mov.w	r0, #1048576	; 0x100000
 80007ca:	f44f 2c00 	mov.w	ip, #524288	; 0x80000
 80007ce:	ebb6 0e02 	subs.w	lr, r6, r2
 80007d2:	eb75 0e03 	sbcs.w	lr, r5, r3
 80007d6:	bf22      	ittt	cs
 80007d8:	1ab6      	subcs	r6, r6, r2
 80007da:	4675      	movcs	r5, lr
 80007dc:	ea40 000c 	orrcs.w	r0, r0, ip
 80007e0:	085b      	lsrs	r3, r3, #1
 80007e2:	ea4f 0232 	mov.w	r2, r2, rrx
 80007e6:	ebb6 0e02 	subs.w	lr, r6, r2
 80007ea:	eb75 0e03 	sbcs.w	lr, r5, r3
 80007ee:	bf22      	ittt	cs
 80007f0:	1ab6      	subcs	r6, r6, r2
 80007f2:	4675      	movcs	r5, lr
 80007f4:	ea40 005c 	orrcs.w	r0, r0, ip, lsr #1
 80007f8:	085b      	lsrs	r3, r3, #1
 80007fa:	ea4f 0232 	mov.w	r2, r2, rrx
 80007fe:	ebb6 0e02 	subs.w	lr, r6, r2
 8000802:	eb75 0e03 	sbcs.w	lr, r5, r3
 8000806:	bf22      	ittt	cs
 8000808:	1ab6      	subcs	r6, r6, r2
 800080a:	4675      	movcs	r5, lr
 800080c:	ea40 009c 	orrcs.w	r0, r0, ip, lsr #2
 8000810:	085b      	lsrs	r3, r3, #1
 8000812:	ea4f 0232 	mov.w	r2, r2, rrx
 8000816:	ebb6 0e02 	subs.w	lr, r6, r2
 800081a:	eb75 0e03 	sbcs.w	lr, r5, r3
 800081e:	bf22      	ittt	cs
 8000820:	1ab6      	subcs	r6, r6, r2
 8000822:	4675      	movcs	r5, lr
 8000824:	ea40 00dc 	orrcs.w	r0, r0, ip, lsr #3
 8000828:	ea55 0e06 	orrs.w	lr, r5, r6
 800082c:	d018      	beq.n	8000860 <__aeabi_ddiv+0x114>
 800082e:	ea4f 1505 	mov.w	r5, r5, lsl #4
 8000832:	ea45 7516 	orr.w	r5, r5, r6, lsr #28
 8000836:	ea4f 1606 	mov.w	r6, r6, lsl #4
 800083a:	ea4f 03c3 	mov.w	r3, r3, lsl #3
 800083e:	ea43 7352 	orr.w	r3, r3, r2, lsr #29
 8000842:	ea4f 02c2 	mov.w	r2, r2, lsl #3
 8000846:	ea5f 1c1c 	movs.w	ip, ip, lsr #4
 800084a:	d1c0      	bne.n	80007ce <__aeabi_ddiv+0x82>
 800084c:	f411 1f80 	tst.w	r1, #1048576	; 0x100000
 8000850:	d10b      	bne.n	800086a <__aeabi_ddiv+0x11e>
 8000852:	ea41 0100 	orr.w	r1, r1, r0
 8000856:	f04f 0000 	mov.w	r0, #0
 800085a:	f04f 4c00 	mov.w	ip, #2147483648	; 0x80000000
 800085e:	e7b6      	b.n	80007ce <__aeabi_ddiv+0x82>
 8000860:	f411 1f80 	tst.w	r1, #1048576	; 0x100000
 8000864:	bf04      	itt	eq
 8000866:	4301      	orreq	r1, r0
 8000868:	2000      	moveq	r0, #0
 800086a:	f1b4 0cfd 	subs.w	ip, r4, #253	; 0xfd
 800086e:	bf88      	it	hi
 8000870:	f5bc 6fe0 	cmphi.w	ip, #1792	; 0x700
 8000874:	f63f aeaf 	bhi.w	80005d6 <__aeabi_dmul+0xde>
 8000878:	ebb5 0c03 	subs.w	ip, r5, r3
 800087c:	bf04      	itt	eq
 800087e:	ebb6 0c02 	subseq.w	ip, r6, r2
 8000882:	ea5f 0c50 	movseq.w	ip, r0, lsr #1
 8000886:	f150 0000 	adcs.w	r0, r0, #0
 800088a:	eb41 5104 	adc.w	r1, r1, r4, lsl #20
 800088e:	bd70      	pop	{r4, r5, r6, pc}
 8000890:	f00e 4e00 	and.w	lr, lr, #2147483648	; 0x80000000
 8000894:	ea4e 3111 	orr.w	r1, lr, r1, lsr #12
 8000898:	eb14 045c 	adds.w	r4, r4, ip, lsr #1
 800089c:	bfc2      	ittt	gt
 800089e:	ebd4 050c 	rsbsgt	r5, r4, ip
 80008a2:	ea41 5104 	orrgt.w	r1, r1, r4, lsl #20
 80008a6:	bd70      	popgt	{r4, r5, r6, pc}
 80008a8:	f441 1180 	orr.w	r1, r1, #1048576	; 0x100000
 80008ac:	f04f 0e00 	mov.w	lr, #0
 80008b0:	3c01      	subs	r4, #1
 80008b2:	e690      	b.n	80005d6 <__aeabi_dmul+0xde>
 80008b4:	ea45 0e06 	orr.w	lr, r5, r6
 80008b8:	e68d      	b.n	80005d6 <__aeabi_dmul+0xde>
 80008ba:	ea0c 5513 	and.w	r5, ip, r3, lsr #20
 80008be:	ea94 0f0c 	teq	r4, ip
 80008c2:	bf08      	it	eq
 80008c4:	ea95 0f0c 	teqeq	r5, ip
 80008c8:	f43f af3b 	beq.w	8000742 <__aeabi_dmul+0x24a>
 80008cc:	ea94 0f0c 	teq	r4, ip
 80008d0:	d10a      	bne.n	80008e8 <__aeabi_ddiv+0x19c>
 80008d2:	ea50 3401 	orrs.w	r4, r0, r1, lsl #12
 80008d6:	f47f af34 	bne.w	8000742 <__aeabi_dmul+0x24a>
 80008da:	ea95 0f0c 	teq	r5, ip
 80008de:	f47f af25 	bne.w	800072c <__aeabi_dmul+0x234>
 80008e2:	4610      	mov	r0, r2
 80008e4:	4619      	mov	r1, r3
 80008e6:	e72c      	b.n	8000742 <__aeabi_dmul+0x24a>
 80008e8:	ea95 0f0c 	teq	r5, ip
 80008ec:	d106      	bne.n	80008fc <__aeabi_ddiv+0x1b0>
 80008ee:	ea52 3503 	orrs.w	r5, r2, r3, lsl #12
 80008f2:	f43f aefd 	beq.w	80006f0 <__aeabi_dmul+0x1f8>
 80008f6:	4610      	mov	r0, r2
 80008f8:	4619      	mov	r1, r3
 80008fa:	e722      	b.n	8000742 <__aeabi_dmul+0x24a>
 80008fc:	ea50 0641 	orrs.w	r6, r0, r1, lsl #1
 8000900:	bf18      	it	ne
 8000902:	ea52 0643 	orrsne.w	r6, r2, r3, lsl #1
 8000906:	f47f aec5 	bne.w	8000694 <__aeabi_dmul+0x19c>
 800090a:	ea50 0441 	orrs.w	r4, r0, r1, lsl #1
 800090e:	f47f af0d 	bne.w	800072c <__aeabi_dmul+0x234>
 8000912:	ea52 0543 	orrs.w	r5, r2, r3, lsl #1
 8000916:	f47f aeeb 	bne.w	80006f0 <__aeabi_dmul+0x1f8>
 800091a:	e712      	b.n	8000742 <__aeabi_dmul+0x24a>

0800091c <__aeabi_d2iz>:
 800091c:	ea4f 0241 	mov.w	r2, r1, lsl #1
 8000920:	f512 1200 	adds.w	r2, r2, #2097152	; 0x200000
 8000924:	d215      	bcs.n	8000952 <__aeabi_d2iz+0x36>
 8000926:	d511      	bpl.n	800094c <__aeabi_d2iz+0x30>
 8000928:	f46f 7378 	mvn.w	r3, #992	; 0x3e0
 800092c:	ebb3 5262 	subs.w	r2, r3, r2, asr #21
 8000930:	d912      	bls.n	8000958 <__aeabi_d2iz+0x3c>
 8000932:	ea4f 23c1 	mov.w	r3, r1, lsl #11
 8000936:	f043 4300 	orr.w	r3, r3, #2147483648	; 0x80000000
 800093a:	ea43 5350 	orr.w	r3, r3, r0, lsr #21
 800093e:	f011 4f00 	tst.w	r1, #2147483648	; 0x80000000
 8000942:	fa23 f002 	lsr.w	r0, r3, r2
 8000946:	bf18      	it	ne
 8000948:	4240      	negne	r0, r0
 800094a:	4770      	bx	lr
 800094c:	f04f 0000 	mov.w	r0, #0
 8000950:	4770      	bx	lr
 8000952:	ea50 3001 	orrs.w	r0, r0, r1, lsl #12
 8000956:	d105      	bne.n	8000964 <__aeabi_d2iz+0x48>
 8000958:	f011 4000 	ands.w	r0, r1, #2147483648	; 0x80000000
 800095c:	bf08      	it	eq
 800095e:	f06f 4000 	mvneq.w	r0, #2147483648	; 0x80000000
 8000962:	4770      	bx	lr
 8000964:	f04f 0000 	mov.w	r0, #0
 8000968:	4770      	bx	lr
 800096a:	bf00      	nop

0800096c <gByteWritefunc>:
unsigned char   power_data[16]={0X80,0X81,0X82,0X83,0X84,0X85,0X86,0X87,0X88,0x89,0x8a,0x8b,0x8c,0x8d,0x8e,0x8f};

unsigned char   RF_FS_IRQFLAGS2_STATUS;

void gByteWritefunc(unsigned char buffer)
{
 800096c:	b580      	push	{r7, lr}
 800096e:	b082      	sub	sp, #8
 8000970:	af00      	add	r7, sp, #0
 8000972:	4603      	mov	r3, r0
 8000974:	71fb      	strb	r3, [r7, #7]
    HAL_GPIO_WritePin(GPIOA, GPIO_PIN_4, GPIO_PIN_RESET);//set NSS(PA_4) to low
 8000976:	2200      	movs	r2, #0
 8000978:	2110      	movs	r1, #16
 800097a:	4806      	ldr	r0, [pc, #24]	; (8000994 <gByteWritefunc+0x28>)
 800097c:	f001 fb70 	bl	8002060 <HAL_GPIO_WritePin>
    HAL_SPI_Transmit(&hspi1, &buffer, 1, 10);
 8000980:	1df9      	adds	r1, r7, #7
 8000982:	230a      	movs	r3, #10
 8000984:	2201      	movs	r2, #1
 8000986:	4804      	ldr	r0, [pc, #16]	; (8000998 <gByteWritefunc+0x2c>)
 8000988:	f003 fc63 	bl	8004252 <HAL_SPI_Transmit>
}
 800098c:	bf00      	nop
 800098e:	3708      	adds	r7, #8
 8000990:	46bd      	mov	sp, r7
 8000992:	bd80      	pop	{r7, pc}
 8000994:	40020000 	.word	0x40020000
 8000998:	20000224 	.word	0x20000224

0800099c <gByteReadfunc>:

unsigned char gByteReadfunc(void)
{
 800099c:	b580      	push	{r7, lr}
 800099e:	b082      	sub	sp, #8
 80009a0:	af00      	add	r7, sp, #0
    unsigned char temp=0;
 80009a2:	2300      	movs	r3, #0
 80009a4:	71fb      	strb	r3, [r7, #7]
    
    HAL_GPIO_WritePin(GPIOA, GPIO_PIN_4, GPIO_PIN_RESET);//set NSS(PA_4) to low
 80009a6:	2200      	movs	r2, #0
 80009a8:	2110      	movs	r1, #16
 80009aa:	4807      	ldr	r0, [pc, #28]	; (80009c8 <gByteReadfunc+0x2c>)
 80009ac:	f001 fb58 	bl	8002060 <HAL_GPIO_WritePin>
    HAL_SPI_Receive(&hspi1, &temp, 1,10);
 80009b0:	1df9      	adds	r1, r7, #7
 80009b2:	230a      	movs	r3, #10
 80009b4:	2201      	movs	r2, #1
 80009b6:	4805      	ldr	r0, [pc, #20]	; (80009cc <gByteReadfunc+0x30>)
 80009b8:	f003 fd7f 	bl	80044ba <HAL_SPI_Receive>
	
	return temp;
 80009bc:	79fb      	ldrb	r3, [r7, #7]
}
 80009be:	4618      	mov	r0, r3
 80009c0:	3708      	adds	r7, #8
 80009c2:	46bd      	mov	sp, r7
 80009c4:	bd80      	pop	{r7, pc}
 80009c6:	bf00      	nop
 80009c8:	40020000 	.word	0x40020000
 80009cc:	20000224 	.word	0x20000224

080009d0 <SX127xWriteBuffer>:

void SX127xWriteBuffer( unsigned char addr, unsigned char buffer)
{
 80009d0:	b580      	push	{r7, lr}
 80009d2:	b082      	sub	sp, #8
 80009d4:	af00      	add	r7, sp, #0
 80009d6:	4603      	mov	r3, r0
 80009d8:	460a      	mov	r2, r1
 80009da:	71fb      	strb	r3, [r7, #7]
 80009dc:	4613      	mov	r3, r2
 80009de:	71bb      	strb	r3, [r7, #6]
	HAL_GPIO_WritePin(GPIOA, GPIO_PIN_4, GPIO_PIN_RESET);//set NSS(PA_4) to low
 80009e0:	2200      	movs	r2, #0
 80009e2:	2110      	movs	r1, #16
 80009e4:	480b      	ldr	r0, [pc, #44]	; (8000a14 <SX127xWriteBuffer+0x44>)
 80009e6:	f001 fb3b 	bl	8002060 <HAL_GPIO_WritePin>
	gByteWritefunc(addr|0x80);
 80009ea:	79fb      	ldrb	r3, [r7, #7]
 80009ec:	f063 037f 	orn	r3, r3, #127	; 0x7f
 80009f0:	b2db      	uxtb	r3, r3
 80009f2:	4618      	mov	r0, r3
 80009f4:	f7ff ffba 	bl	800096c <gByteWritefunc>
	gByteWritefunc(buffer);
 80009f8:	79bb      	ldrb	r3, [r7, #6]
 80009fa:	4618      	mov	r0, r3
 80009fc:	f7ff ffb6 	bl	800096c <gByteWritefunc>
	HAL_GPIO_WritePin(GPIOA, GPIO_PIN_4, GPIO_PIN_SET);//set NSS(PA_4) to high
 8000a00:	2201      	movs	r2, #1
 8000a02:	2110      	movs	r1, #16
 8000a04:	4803      	ldr	r0, [pc, #12]	; (8000a14 <SX127xWriteBuffer+0x44>)
 8000a06:	f001 fb2b 	bl	8002060 <HAL_GPIO_WritePin>
}
 8000a0a:	bf00      	nop
 8000a0c:	3708      	adds	r7, #8
 8000a0e:	46bd      	mov	sp, r7
 8000a10:	bd80      	pop	{r7, pc}
 8000a12:	bf00      	nop
 8000a14:	40020000 	.word	0x40020000

08000a18 <SX127xReadBuffer>:

unsigned char SX127xReadBuffer(unsigned char addr)
{
 8000a18:	b580      	push	{r7, lr}
 8000a1a:	b084      	sub	sp, #16
 8000a1c:	af00      	add	r7, sp, #0
 8000a1e:	4603      	mov	r3, r0
 8000a20:	71fb      	strb	r3, [r7, #7]
	unsigned char Value;
	
	HAL_GPIO_WritePin(GPIOA, GPIO_PIN_4, GPIO_PIN_RESET);//set NSS(PA_4) to low
 8000a22:	2200      	movs	r2, #0
 8000a24:	2110      	movs	r1, #16
 8000a26:	480c      	ldr	r0, [pc, #48]	; (8000a58 <SX127xReadBuffer+0x40>)
 8000a28:	f001 fb1a 	bl	8002060 <HAL_GPIO_WritePin>
	gByteWritefunc(addr & 0x7f);
 8000a2c:	79fb      	ldrb	r3, [r7, #7]
 8000a2e:	f003 037f 	and.w	r3, r3, #127	; 0x7f
 8000a32:	b2db      	uxtb	r3, r3
 8000a34:	4618      	mov	r0, r3
 8000a36:	f7ff ff99 	bl	800096c <gByteWritefunc>
	Value = gByteReadfunc();
 8000a3a:	f7ff ffaf 	bl	800099c <gByteReadfunc>
 8000a3e:	4603      	mov	r3, r0
 8000a40:	73fb      	strb	r3, [r7, #15]
	HAL_GPIO_WritePin(GPIOA, GPIO_PIN_4, GPIO_PIN_SET);//set NSS(PA_4) to high
 8000a42:	2201      	movs	r2, #1
 8000a44:	2110      	movs	r1, #16
 8000a46:	4804      	ldr	r0, [pc, #16]	; (8000a58 <SX127xReadBuffer+0x40>)
 8000a48:	f001 fb0a 	bl	8002060 <HAL_GPIO_WritePin>
	
	return Value; 
 8000a4c:	7bfb      	ldrb	r3, [r7, #15]
}
 8000a4e:	4618      	mov	r0, r3
 8000a50:	3710      	adds	r7, #16
 8000a52:	46bd      	mov	sp, r7
 8000a54:	bd80      	pop	{r7, pc}
 8000a56:	bf00      	nop
 8000a58:	40020000 	.word	0x40020000

08000a5c <SX127xReset>:

void SX127xReset(void)
{
 8000a5c:	b580      	push	{r7, lr}
 8000a5e:	af00      	add	r7, sp, #0
	HAL_GPIO_WritePin(GPIOA, GPIO_PIN_3, GPIO_PIN_RESET);//set LoRa RESET(PA_1) to low
 8000a60:	2200      	movs	r2, #0
 8000a62:	2108      	movs	r1, #8
 8000a64:	4808      	ldr	r0, [pc, #32]	; (8000a88 <SX127xReset+0x2c>)
 8000a66:	f001 fafb 	bl	8002060 <HAL_GPIO_WritePin>
	HAL_Delay(200);
 8000a6a:	20c8      	movs	r0, #200	; 0xc8
 8000a6c:	f001 f848 	bl	8001b00 <HAL_Delay>
	HAL_GPIO_WritePin(GPIOA, GPIO_PIN_3, GPIO_PIN_SET);
 8000a70:	2201      	movs	r2, #1
 8000a72:	2108      	movs	r1, #8
 8000a74:	4804      	ldr	r0, [pc, #16]	; (8000a88 <SX127xReset+0x2c>)
 8000a76:	f001 faf3 	bl	8002060 <HAL_GPIO_WritePin>
	HAL_Delay(500);
 8000a7a:	f44f 70fa 	mov.w	r0, #500	; 0x1f4
 8000a7e:	f001 f83f 	bl	8001b00 <HAL_Delay>
}
 8000a82:	bf00      	nop
 8000a84:	bd80      	pop	{r7, pc}
 8000a86:	bf00      	nop
 8000a88:	40020000 	.word	0x40020000

08000a8c <SX127xFSKSetOpMode>:

void SX127xFSKSetOpMode( RFMode_SET opMode )
{
 8000a8c:	b580      	push	{r7, lr}
 8000a8e:	b084      	sub	sp, #16
 8000a90:	af00      	add	r7, sp, #0
 8000a92:	4603      	mov	r3, r0
 8000a94:	71fb      	strb	r3, [r7, #7]
	unsigned char opModePrev;
	opModePrev=SX127xReadBuffer(REG_FS_OPMODE);
 8000a96:	2001      	movs	r0, #1
 8000a98:	f7ff ffbe 	bl	8000a18 <SX127xReadBuffer>
 8000a9c:	4603      	mov	r3, r0
 8000a9e:	73fb      	strb	r3, [r7, #15]
	opModePrev &=0xf8;
 8000aa0:	7bfb      	ldrb	r3, [r7, #15]
 8000aa2:	f023 0307 	bic.w	r3, r3, #7
 8000aa6:	73fb      	strb	r3, [r7, #15]
	opModePrev |= (unsigned char)opMode;
 8000aa8:	7bfa      	ldrb	r2, [r7, #15]
 8000aaa:	79fb      	ldrb	r3, [r7, #7]
 8000aac:	4313      	orrs	r3, r2
 8000aae:	73fb      	strb	r3, [r7, #15]
	SX127xWriteBuffer( REG_FS_OPMODE, opModePrev);
 8000ab0:	7bfb      	ldrb	r3, [r7, #15]
 8000ab2:	4619      	mov	r1, r3
 8000ab4:	2001      	movs	r0, #1
 8000ab6:	f7ff ff8b 	bl	80009d0 <SX127xWriteBuffer>
}
 8000aba:	bf00      	nop
 8000abc:	3710      	adds	r7, #16
 8000abe:	46bd      	mov	sp, r7
 8000ac0:	bd80      	pop	{r7, pc}

08000ac2 <SX127xFSKLoRa>:
{
	return(SX127xReadBuffer(REG_FS_OPMODE) & 0x03);
}

void SX127xFSKLoRa( Debugging_fsk_ook opMode )
{
 8000ac2:	b580      	push	{r7, lr}
 8000ac4:	b084      	sub	sp, #16
 8000ac6:	af00      	add	r7, sp, #0
 8000ac8:	4603      	mov	r3, r0
 8000aca:	71fb      	strb	r3, [r7, #7]
	unsigned char opModePrev;
	opModePrev=SX127xReadBuffer(REG_FS_OPMODE);
 8000acc:	2001      	movs	r0, #1
 8000ace:	f7ff ffa3 	bl	8000a18 <SX127xReadBuffer>
 8000ad2:	4603      	mov	r3, r0
 8000ad4:	73fb      	strb	r3, [r7, #15]
	opModePrev &=0x7F;
 8000ad6:	7bfb      	ldrb	r3, [r7, #15]
 8000ad8:	f003 037f 	and.w	r3, r3, #127	; 0x7f
 8000adc:	73fb      	strb	r3, [r7, #15]
	opModePrev |= (unsigned char)opMode;
 8000ade:	7bfa      	ldrb	r2, [r7, #15]
 8000ae0:	79fb      	ldrb	r3, [r7, #7]
 8000ae2:	4313      	orrs	r3, r2
 8000ae4:	73fb      	strb	r3, [r7, #15]
	SX127xWriteBuffer( REG_FS_OPMODE, opModePrev);
 8000ae6:	7bfb      	ldrb	r3, [r7, #15]
 8000ae8:	4619      	mov	r1, r3
 8000aea:	2001      	movs	r0, #1
 8000aec:	f7ff ff70 	bl	80009d0 <SX127xWriteBuffer>
}
 8000af0:	bf00      	nop
 8000af2:	3710      	adds	r7, #16
 8000af4:	46bd      	mov	sp, r7
 8000af6:	bd80      	pop	{r7, pc}

08000af8 <SX127xFSKSetRFFrequency>:

void SX127xFSKSetRFFrequency(unsigned int TxFrequency)
{
 8000af8:	b580      	push	{r7, lr}
 8000afa:	b084      	sub	sp, #16
 8000afc:	af00      	add	r7, sp, #0
 8000afe:	6078      	str	r0, [r7, #4]
	int n=TxFrequency/61.035;
 8000b00:	6878      	ldr	r0, [r7, #4]
 8000b02:	f7ff fc7f 	bl	8000404 <__aeabi_ui2d>
 8000b06:	a316      	add	r3, pc, #88	; (adr r3, 8000b60 <SX127xFSKSetRFFrequency+0x68>)
 8000b08:	e9d3 2300 	ldrd	r2, r3, [r3]
 8000b0c:	f7ff fe1e 	bl	800074c <__aeabi_ddiv>
 8000b10:	4602      	mov	r2, r0
 8000b12:	460b      	mov	r3, r1
 8000b14:	4610      	mov	r0, r2
 8000b16:	4619      	mov	r1, r3
 8000b18:	f7ff ff00 	bl	800091c <__aeabi_d2iz>
 8000b1c:	4603      	mov	r3, r0
 8000b1e:	60fb      	str	r3, [r7, #12]
	unsigned char Frequency[3];
	Frequency[0]=n>>16;
 8000b20:	68fb      	ldr	r3, [r7, #12]
 8000b22:	141b      	asrs	r3, r3, #16
 8000b24:	b2db      	uxtb	r3, r3
 8000b26:	723b      	strb	r3, [r7, #8]
	Frequency[1]=n>>8;
 8000b28:	68fb      	ldr	r3, [r7, #12]
 8000b2a:	121b      	asrs	r3, r3, #8
 8000b2c:	b2db      	uxtb	r3, r3
 8000b2e:	727b      	strb	r3, [r7, #9]
	Frequency[2]=n>>0;
 8000b30:	68fb      	ldr	r3, [r7, #12]
 8000b32:	b2db      	uxtb	r3, r3
 8000b34:	72bb      	strb	r3, [r7, #10]
	SX127xWriteBuffer( REG_FS_FRFMSB, Frequency[0]);
 8000b36:	7a3b      	ldrb	r3, [r7, #8]
 8000b38:	4619      	mov	r1, r3
 8000b3a:	2006      	movs	r0, #6
 8000b3c:	f7ff ff48 	bl	80009d0 <SX127xWriteBuffer>
	SX127xWriteBuffer( REG_FS_FRFMID, Frequency[1]);
 8000b40:	7a7b      	ldrb	r3, [r7, #9]
 8000b42:	4619      	mov	r1, r3
 8000b44:	2007      	movs	r0, #7
 8000b46:	f7ff ff43 	bl	80009d0 <SX127xWriteBuffer>
	SX127xWriteBuffer( REG_FS_FRFLSB, Frequency[2]);
 8000b4a:	7abb      	ldrb	r3, [r7, #10]
 8000b4c:	4619      	mov	r1, r3
 8000b4e:	2008      	movs	r0, #8
 8000b50:	f7ff ff3e 	bl	80009d0 <SX127xWriteBuffer>
}
 8000b54:	bf00      	nop
 8000b56:	3710      	adds	r7, #16
 8000b58:	46bd      	mov	sp, r7
 8000b5a:	bd80      	pop	{r7, pc}
 8000b5c:	f3af 8000 	nop.w
 8000b60:	e147ae14 	.word	0xe147ae14
 8000b64:	404e847a 	.word	0x404e847a

08000b68 <SX127xFSKSetBitRate>:

void SX127xFSKSetBitRate(unsigned int BitRate, unsigned char BitRateFrac)
{
 8000b68:	b580      	push	{r7, lr}
 8000b6a:	b084      	sub	sp, #16
 8000b6c:	af00      	add	r7, sp, #0
 8000b6e:	6078      	str	r0, [r7, #4]
 8000b70:	460b      	mov	r3, r1
 8000b72:	70fb      	strb	r3, [r7, #3]
	int n=FXOSC/BitRate - BitRateFrac/16;
 8000b74:	4a12      	ldr	r2, [pc, #72]	; (8000bc0 <SX127xFSKSetBitRate+0x58>)
 8000b76:	687b      	ldr	r3, [r7, #4]
 8000b78:	fbb2 f3f3 	udiv	r3, r2, r3
 8000b7c:	78fa      	ldrb	r2, [r7, #3]
 8000b7e:	0912      	lsrs	r2, r2, #4
 8000b80:	b2d2      	uxtb	r2, r2
 8000b82:	1a9b      	subs	r3, r3, r2
 8000b84:	60fb      	str	r3, [r7, #12]
	unsigned char BitRateBytes[2];
	BitRateBytes[0]=n>>8;
 8000b86:	68fb      	ldr	r3, [r7, #12]
 8000b88:	121b      	asrs	r3, r3, #8
 8000b8a:	b2db      	uxtb	r3, r3
 8000b8c:	723b      	strb	r3, [r7, #8]
	BitRateBytes[1]=n>>0;
 8000b8e:	68fb      	ldr	r3, [r7, #12]
 8000b90:	b2db      	uxtb	r3, r3
 8000b92:	727b      	strb	r3, [r7, #9]
	SX127xWriteBuffer( REG_FS_BRMSB, BitRateBytes[0]);
 8000b94:	7a3b      	ldrb	r3, [r7, #8]
 8000b96:	4619      	mov	r1, r3
 8000b98:	2002      	movs	r0, #2
 8000b9a:	f7ff ff19 	bl	80009d0 <SX127xWriteBuffer>
	SX127xWriteBuffer( REG_FS_BRLSB, BitRateBytes[1]);
 8000b9e:	7a7b      	ldrb	r3, [r7, #9]
 8000ba0:	4619      	mov	r1, r3
 8000ba2:	2003      	movs	r0, #3
 8000ba4:	f7ff ff14 	bl	80009d0 <SX127xWriteBuffer>
	SX127xWriteBuffer( REG_FS_BITRATEFRAC, BitRateFrac & 0x0F);
 8000ba8:	78fb      	ldrb	r3, [r7, #3]
 8000baa:	f003 030f 	and.w	r3, r3, #15
 8000bae:	b2db      	uxtb	r3, r3
 8000bb0:	4619      	mov	r1, r3
 8000bb2:	205d      	movs	r0, #93	; 0x5d
 8000bb4:	f7ff ff0c 	bl	80009d0 <SX127xWriteBuffer>
}
 8000bb8:	bf00      	nop
 8000bba:	3710      	adds	r7, #16
 8000bbc:	46bd      	mov	sp, r7
 8000bbe:	bd80      	pop	{r7, pc}
 8000bc0:	01e84800 	.word	0x01e84800

08000bc4 <SX127xFSKSetFreqDev>:

void SX127xFSKSetFreqDev(unsigned int FreqDev)
{
 8000bc4:	b580      	push	{r7, lr}
 8000bc6:	b084      	sub	sp, #16
 8000bc8:	af00      	add	r7, sp, #0
 8000bca:	6078      	str	r0, [r7, #4]
	int n=FreqDev/FSTEP;
 8000bcc:	687b      	ldr	r3, [r7, #4]
 8000bce:	4a0e      	ldr	r2, [pc, #56]	; (8000c08 <SX127xFSKSetFreqDev+0x44>)
 8000bd0:	fba2 2303 	umull	r2, r3, r2, r3
 8000bd4:	091b      	lsrs	r3, r3, #4
 8000bd6:	60fb      	str	r3, [r7, #12]
	unsigned char FreqDevBytes[2];
	FreqDevBytes[0]=n>>8;
 8000bd8:	68fb      	ldr	r3, [r7, #12]
 8000bda:	121b      	asrs	r3, r3, #8
 8000bdc:	b2db      	uxtb	r3, r3
 8000bde:	723b      	strb	r3, [r7, #8]
	FreqDevBytes[1]=n>>0;
 8000be0:	68fb      	ldr	r3, [r7, #12]
 8000be2:	b2db      	uxtb	r3, r3
 8000be4:	727b      	strb	r3, [r7, #9]
	SX127xWriteBuffer( REG_FS_FDEVMSB, FreqDevBytes[0] & 0x1F);
 8000be6:	7a3b      	ldrb	r3, [r7, #8]
 8000be8:	f003 031f 	and.w	r3, r3, #31
 8000bec:	b2db      	uxtb	r3, r3
 8000bee:	4619      	mov	r1, r3
 8000bf0:	2004      	movs	r0, #4
 8000bf2:	f7ff feed 	bl	80009d0 <SX127xWriteBuffer>
	SX127xWriteBuffer( REG_FS_FDEVLSB, FreqDevBytes[1]);
 8000bf6:	7a7b      	ldrb	r3, [r7, #9]
 8000bf8:	4619      	mov	r1, r3
 8000bfa:	2005      	movs	r0, #5
 8000bfc:	f7ff fee8 	bl	80009d0 <SX127xWriteBuffer>
}
 8000c00:	bf00      	nop
 8000c02:	3710      	adds	r7, #16
 8000c04:	46bd      	mov	sp, r7
 8000c06:	bd80      	pop	{r7, pc}
 8000c08:	4325c53f 	.word	0x4325c53f

08000c0c <SX127xFSKSetRFPower>:

void SX127xFSKSetRFPower(signed char power )
{
 8000c0c:	b580      	push	{r7, lr}
 8000c0e:	b084      	sub	sp, #16
 8000c10:	af00      	add	r7, sp, #0
 8000c12:	4603      	mov	r3, r0
 8000c14:	71fb      	strb	r3, [r7, #7]
	// Power levels available: -3dBm to +16dBm, +20dBm

	SX127xWriteBuffer( REG_FS_OCP, 0x3f);    // Enables overload current protection (OCP) for PA:
 8000c16:	213f      	movs	r1, #63	; 0x3f
 8000c18:	200b      	movs	r0, #11
 8000c1a:	f7ff fed9 	bl	80009d0 <SX127xWriteBuffer>
										     // 0x3F = OCP enabled + threshold set to the highest possible current.

	if (power > 11)
 8000c1e:	f997 3007 	ldrsb.w	r3, [r7, #7]
 8000c22:	2b0b      	cmp	r3, #11
 8000c24:	dd18      	ble.n	8000c58 <SX127xFSKSetRFPower+0x4c>
	{
		//Set Pmax to +20dBm for PA_HP, Must turn off PA_LF or PA_HF, and set RegOcp
		SX127xWriteBuffer( REG_FS_PADAC, 0x87);  // Enables the +20dBm option on PA_BOOST pin:
 8000c26:	2187      	movs	r1, #135	; 0x87
 8000c28:	204d      	movs	r0, #77	; 0x4d
 8000c2a:	f7ff fed1 	bl	80009d0 <SX127xWriteBuffer>
												 // 0x84 = Default value
												 // 0x87 = +20dBm on PA_BOOST when OutputPower=1111
		unsigned char PACONFIG = (unsigned char)power;
 8000c2e:	79fb      	ldrb	r3, [r7, #7]
 8000c30:	73fb      	strb	r3, [r7, #15]
		if (PACONFIG > 17)
 8000c32:	7bfb      	ldrb	r3, [r7, #15]
 8000c34:	2b11      	cmp	r3, #17
 8000c36:	d901      	bls.n	8000c3c <SX127xFSKSetRFPower+0x30>
		{
			PACONFIG = 17;
 8000c38:	2311      	movs	r3, #17
 8000c3a:	73fb      	strb	r3, [r7, #15]
		}
		PACONFIG = (PACONFIG - 0x02) | 0x80;
 8000c3c:	7bfb      	ldrb	r3, [r7, #15]
 8000c3e:	3b02      	subs	r3, #2
 8000c40:	b2db      	uxtb	r3, r3
 8000c42:	b25b      	sxtb	r3, r3
 8000c44:	f063 037f 	orn	r3, r3, #127	; 0x7f
 8000c48:	b25b      	sxtb	r3, r3
 8000c4a:	73fb      	strb	r3, [r7, #15]
		SX127xWriteBuffer( REG_FS_PACONFIG, PACONFIG ); //
 8000c4c:	7bfb      	ldrb	r3, [r7, #15]
 8000c4e:	4619      	mov	r1, r3
 8000c50:	2009      	movs	r0, #9
 8000c52:	f7ff febd 	bl	80009d0 <SX127xWriteBuffer>
		}
		unsigned char PACONFIG = (unsigned char)LocalPower;
		PACONFIG = PACONFIG | 0x20;
		SX127xWriteBuffer( REG_FS_PACONFIG, PACONFIG ); //
	}
}
 8000c56:	e01c      	b.n	8000c92 <SX127xFSKSetRFPower+0x86>
		SX127xWriteBuffer( REG_FS_PADAC, 0x84);  // Enables the +20dBm option on PA_BOOST pin:
 8000c58:	2184      	movs	r1, #132	; 0x84
 8000c5a:	204d      	movs	r0, #77	; 0x4d
 8000c5c:	f7ff feb8 	bl	80009d0 <SX127xWriteBuffer>
		signed char LocalPower = power;
 8000c60:	79fb      	ldrb	r3, [r7, #7]
 8000c62:	73bb      	strb	r3, [r7, #14]
		if (LocalPower < -3)
 8000c64:	f997 300e 	ldrsb.w	r3, [r7, #14]
 8000c68:	f113 0f03 	cmn.w	r3, #3
 8000c6c:	da02      	bge.n	8000c74 <SX127xFSKSetRFPower+0x68>
			LocalPower = 0;
 8000c6e:	2300      	movs	r3, #0
 8000c70:	73bb      	strb	r3, [r7, #14]
 8000c72:	e003      	b.n	8000c7c <SX127xFSKSetRFPower+0x70>
			LocalPower = LocalPower + 3;
 8000c74:	7bbb      	ldrb	r3, [r7, #14]
 8000c76:	3303      	adds	r3, #3
 8000c78:	b2db      	uxtb	r3, r3
 8000c7a:	73bb      	strb	r3, [r7, #14]
		unsigned char PACONFIG = (unsigned char)LocalPower;
 8000c7c:	7bbb      	ldrb	r3, [r7, #14]
 8000c7e:	737b      	strb	r3, [r7, #13]
		PACONFIG = PACONFIG | 0x20;
 8000c80:	7b7b      	ldrb	r3, [r7, #13]
 8000c82:	f043 0320 	orr.w	r3, r3, #32
 8000c86:	737b      	strb	r3, [r7, #13]
		SX127xWriteBuffer( REG_FS_PACONFIG, PACONFIG ); //
 8000c88:	7b7b      	ldrb	r3, [r7, #13]
 8000c8a:	4619      	mov	r1, r3
 8000c8c:	2009      	movs	r0, #9
 8000c8e:	f7ff fe9f 	bl	80009d0 <SX127xWriteBuffer>
}
 8000c92:	bf00      	nop
 8000c94:	3710      	adds	r7, #16
 8000c96:	46bd      	mov	sp, r7
 8000c98:	bd80      	pop	{r7, pc}

08000c9a <SX127xFSKSetGaussianMode>:

void SX127xFSKSetGaussianMode(unsigned char GaussianMode )
{
 8000c9a:	b580      	push	{r7, lr}
 8000c9c:	b084      	sub	sp, #16
 8000c9e:	af00      	add	r7, sp, #0
 8000ca0:	4603      	mov	r3, r0
 8000ca2:	71fb      	strb	r3, [r7, #7]
	unsigned char RECVER_DAT;
	RECVER_DAT= SX127xReadBuffer( REG_FS_PARAMP);
 8000ca4:	200a      	movs	r0, #10
 8000ca6:	f7ff feb7 	bl	8000a18 <SX127xReadBuffer>
 8000caa:	4603      	mov	r3, r0
 8000cac:	73fb      	strb	r3, [r7, #15]
	RECVER_DAT = ( RECVER_DAT & ~RFFS_PARAMP_DATA_SHAPING_MASK );
 8000cae:	7bfb      	ldrb	r3, [r7, #15]
 8000cb0:	f023 0360 	bic.w	r3, r3, #96	; 0x60
 8000cb4:	73fb      	strb	r3, [r7, #15]
	RECVER_DAT = ( RECVER_DAT | ( ( GaussianMode & 0X03) << 5 ) );
 8000cb6:	79fb      	ldrb	r3, [r7, #7]
 8000cb8:	015b      	lsls	r3, r3, #5
 8000cba:	b25b      	sxtb	r3, r3
 8000cbc:	f003 0360 	and.w	r3, r3, #96	; 0x60
 8000cc0:	b25a      	sxtb	r2, r3
 8000cc2:	f997 300f 	ldrsb.w	r3, [r7, #15]
 8000cc6:	4313      	orrs	r3, r2
 8000cc8:	b25b      	sxtb	r3, r3
 8000cca:	73fb      	strb	r3, [r7, #15]
	SX127xWriteBuffer( REG_FS_PARAMP, RECVER_DAT );
 8000ccc:	7bfb      	ldrb	r3, [r7, #15]
 8000cce:	4619      	mov	r1, r3
 8000cd0:	200a      	movs	r0, #10
 8000cd2:	f7ff fe7d 	bl	80009d0 <SX127xWriteBuffer>
}
 8000cd6:	bf00      	nop
 8000cd8:	3710      	adds	r7, #16
 8000cda:	46bd      	mov	sp, r7
 8000cdc:	bd80      	pop	{r7, pc}

08000cde <SX127xFSKSetFIFOThreshold>:

void SX127xFSKSetFIFOThreshold(unsigned char FIFOThreshold )
{
 8000cde:	b580      	push	{r7, lr}
 8000ce0:	b084      	sub	sp, #16
 8000ce2:	af00      	add	r7, sp, #0
 8000ce4:	4603      	mov	r3, r0
 8000ce6:	71fb      	strb	r3, [r7, #7]
	unsigned char RECVER_DAT;
	RECVER_DAT= SX127xReadBuffer( REG_FS_FIFOTHRESH);
 8000ce8:	2035      	movs	r0, #53	; 0x35
 8000cea:	f7ff fe95 	bl	8000a18 <SX127xReadBuffer>
 8000cee:	4603      	mov	r3, r0
 8000cf0:	73fb      	strb	r3, [r7, #15]
	RECVER_DAT = ( RECVER_DAT & ~RFFS_FIFO_THRESHOLD_MASK );
 8000cf2:	7bfb      	ldrb	r3, [r7, #15]
 8000cf4:	f023 031f 	bic.w	r3, r3, #31
 8000cf8:	73fb      	strb	r3, [r7, #15]
	RECVER_DAT = ( RECVER_DAT | ( FIFOThreshold & RFFS_FIFO_THRESHOLD_MASK ));
 8000cfa:	f997 3007 	ldrsb.w	r3, [r7, #7]
 8000cfe:	f003 031f 	and.w	r3, r3, #31
 8000d02:	b25a      	sxtb	r2, r3
 8000d04:	f997 300f 	ldrsb.w	r3, [r7, #15]
 8000d08:	4313      	orrs	r3, r2
 8000d0a:	b25b      	sxtb	r3, r3
 8000d0c:	73fb      	strb	r3, [r7, #15]
	SX127xWriteBuffer( REG_FS_FIFOTHRESH, RECVER_DAT );
 8000d0e:	7bfb      	ldrb	r3, [r7, #15]
 8000d10:	4619      	mov	r1, r3
 8000d12:	2035      	movs	r0, #53	; 0x35
 8000d14:	f7ff fe5c 	bl	80009d0 <SX127xWriteBuffer>
}
 8000d18:	bf00      	nop
 8000d1a:	3710      	adds	r7, #16
 8000d1c:	46bd      	mov	sp, r7
 8000d1e:	bd80      	pop	{r7, pc}

08000d20 <SX127xFSKSetPacketFormat>:

void SX127xFSKSetPacketFormat(BOOL_t enable )
{
 8000d20:	b580      	push	{r7, lr}
 8000d22:	b084      	sub	sp, #16
 8000d24:	af00      	add	r7, sp, #0
 8000d26:	4603      	mov	r3, r0
 8000d28:	71fb      	strb	r3, [r7, #7]
	unsigned char RECVER_DAT;
	RECVER_DAT= SX127xReadBuffer( REG_FS_PACKETCONFIG1);
 8000d2a:	2030      	movs	r0, #48	; 0x30
 8000d2c:	f7ff fe74 	bl	8000a18 <SX127xReadBuffer>
 8000d30:	4603      	mov	r3, r0
 8000d32:	73fb      	strb	r3, [r7, #15]
	RECVER_DAT = ( RECVER_DAT & ~RFFS_PACKETCONFIG1_PACKET_FORMAT_MASK );
 8000d34:	7bfb      	ldrb	r3, [r7, #15]
 8000d36:	f003 037f 	and.w	r3, r3, #127	; 0x7f
 8000d3a:	73fb      	strb	r3, [r7, #15]
	if (enable) RECVER_DAT = ( RECVER_DAT | RFFS_PACKETCONFIG1_PACKET_FORMAT_MASK );
 8000d3c:	79fb      	ldrb	r3, [r7, #7]
 8000d3e:	2b00      	cmp	r3, #0
 8000d40:	d003      	beq.n	8000d4a <SX127xFSKSetPacketFormat+0x2a>
 8000d42:	7bfb      	ldrb	r3, [r7, #15]
 8000d44:	f063 037f 	orn	r3, r3, #127	; 0x7f
 8000d48:	73fb      	strb	r3, [r7, #15]
	SX127xWriteBuffer( REG_FS_PACKETCONFIG1, RECVER_DAT );
 8000d4a:	7bfb      	ldrb	r3, [r7, #15]
 8000d4c:	4619      	mov	r1, r3
 8000d4e:	2030      	movs	r0, #48	; 0x30
 8000d50:	f7ff fe3e 	bl	80009d0 <SX127xWriteBuffer>
}
 8000d54:	bf00      	nop
 8000d56:	3710      	adds	r7, #16
 8000d58:	46bd      	mov	sp, r7
 8000d5a:	bd80      	pop	{r7, pc}

08000d5c <SX127xFSKSetSyncOn>:

void SX127xFSKSetSyncOn(BOOL_t enable )
{
 8000d5c:	b580      	push	{r7, lr}
 8000d5e:	b084      	sub	sp, #16
 8000d60:	af00      	add	r7, sp, #0
 8000d62:	4603      	mov	r3, r0
 8000d64:	71fb      	strb	r3, [r7, #7]
	unsigned char RECVER_DAT;
	RECVER_DAT= SX127xReadBuffer( REG_FS_SYNCCONFIG);
 8000d66:	2027      	movs	r0, #39	; 0x27
 8000d68:	f7ff fe56 	bl	8000a18 <SX127xReadBuffer>
 8000d6c:	4603      	mov	r3, r0
 8000d6e:	73fb      	strb	r3, [r7, #15]
	RECVER_DAT = ( RECVER_DAT & ~RFFS_SYNCCONFIG_SYNC_ON_MASK );
 8000d70:	7bfb      	ldrb	r3, [r7, #15]
 8000d72:	f023 0310 	bic.w	r3, r3, #16
 8000d76:	73fb      	strb	r3, [r7, #15]
	if (enable) RECVER_DAT = ( RECVER_DAT | RFFS_SYNCCONFIG_SYNC_ON_MASK );
 8000d78:	79fb      	ldrb	r3, [r7, #7]
 8000d7a:	2b00      	cmp	r3, #0
 8000d7c:	d003      	beq.n	8000d86 <SX127xFSKSetSyncOn+0x2a>
 8000d7e:	7bfb      	ldrb	r3, [r7, #15]
 8000d80:	f043 0310 	orr.w	r3, r3, #16
 8000d84:	73fb      	strb	r3, [r7, #15]
	SX127xWriteBuffer( REG_FS_SYNCCONFIG, RECVER_DAT );
 8000d86:	7bfb      	ldrb	r3, [r7, #15]
 8000d88:	4619      	mov	r1, r3
 8000d8a:	2027      	movs	r0, #39	; 0x27
 8000d8c:	f7ff fe20 	bl	80009d0 <SX127xWriteBuffer>
}
 8000d90:	bf00      	nop
 8000d92:	3710      	adds	r7, #16
 8000d94:	46bd      	mov	sp, r7
 8000d96:	bd80      	pop	{r7, pc}

08000d98 <SX127xFSKSetCrcOn>:

void SX127xFSKSetCrcOn(BOOL_t enable )
{
 8000d98:	b580      	push	{r7, lr}
 8000d9a:	b084      	sub	sp, #16
 8000d9c:	af00      	add	r7, sp, #0
 8000d9e:	4603      	mov	r3, r0
 8000da0:	71fb      	strb	r3, [r7, #7]
	unsigned char RECVER_DAT;
	RECVER_DAT= SX127xReadBuffer( REG_FS_PACKETCONFIG1);
 8000da2:	2030      	movs	r0, #48	; 0x30
 8000da4:	f7ff fe38 	bl	8000a18 <SX127xReadBuffer>
 8000da8:	4603      	mov	r3, r0
 8000daa:	73fb      	strb	r3, [r7, #15]
	RECVER_DAT = ( RECVER_DAT & ~RFFS_PACKETCONFIG1_CRC_ON_MASK );
 8000dac:	7bfb      	ldrb	r3, [r7, #15]
 8000dae:	f023 0310 	bic.w	r3, r3, #16
 8000db2:	73fb      	strb	r3, [r7, #15]
	if (enable) RECVER_DAT = ( RECVER_DAT | RFFS_PACKETCONFIG1_CRC_ON_MASK );
 8000db4:	79fb      	ldrb	r3, [r7, #7]
 8000db6:	2b00      	cmp	r3, #0
 8000db8:	d003      	beq.n	8000dc2 <SX127xFSKSetCrcOn+0x2a>
 8000dba:	7bfb      	ldrb	r3, [r7, #15]
 8000dbc:	f043 0310 	orr.w	r3, r3, #16
 8000dc0:	73fb      	strb	r3, [r7, #15]
	SX127xWriteBuffer( REG_FS_PACKETCONFIG1, RECVER_DAT );
 8000dc2:	7bfb      	ldrb	r3, [r7, #15]
 8000dc4:	4619      	mov	r1, r3
 8000dc6:	2030      	movs	r0, #48	; 0x30
 8000dc8:	f7ff fe02 	bl	80009d0 <SX127xWriteBuffer>
}
 8000dcc:	bf00      	nop
 8000dce:	3710      	adds	r7, #16
 8000dd0:	46bd      	mov	sp, r7
 8000dd2:	bd80      	pop	{r7, pc}

08000dd4 <SX127xFSKSetPreambleSize>:

void SX127xFSKSetPreambleSize(unsigned int PreambleSize)
{
 8000dd4:	b580      	push	{r7, lr}
 8000dd6:	b084      	sub	sp, #16
 8000dd8:	af00      	add	r7, sp, #0
 8000dda:	6078      	str	r0, [r7, #4]
	unsigned char PreambleSizeBytes[2];
	PreambleSizeBytes[0]=PreambleSize>>8;
 8000ddc:	687b      	ldr	r3, [r7, #4]
 8000dde:	0a1b      	lsrs	r3, r3, #8
 8000de0:	b2db      	uxtb	r3, r3
 8000de2:	733b      	strb	r3, [r7, #12]
	PreambleSizeBytes[1]=PreambleSize>>0;
 8000de4:	687b      	ldr	r3, [r7, #4]
 8000de6:	b2db      	uxtb	r3, r3
 8000de8:	737b      	strb	r3, [r7, #13]
	SX127xWriteBuffer( REG_FS_PREAMBLEMSB, PreambleSizeBytes[0]);
 8000dea:	7b3b      	ldrb	r3, [r7, #12]
 8000dec:	4619      	mov	r1, r3
 8000dee:	2025      	movs	r0, #37	; 0x25
 8000df0:	f7ff fdee 	bl	80009d0 <SX127xWriteBuffer>
	SX127xWriteBuffer( REG_FS_PREAMBLELSB, PreambleSizeBytes[1]);
 8000df4:	7b7b      	ldrb	r3, [r7, #13]
 8000df6:	4619      	mov	r1, r3
 8000df8:	2026      	movs	r0, #38	; 0x26
 8000dfa:	f7ff fde9 	bl	80009d0 <SX127xWriteBuffer>
}
 8000dfe:	bf00      	nop
 8000e00:	3710      	adds	r7, #16
 8000e02:	46bd      	mov	sp, r7
 8000e04:	bd80      	pop	{r7, pc}
	...

08000e08 <SX127xFSK_INT>:

void SX127xFSK_INT(MetaDataStruct SetupData)
{
 8000e08:	b084      	sub	sp, #16
 8000e0a:	b580      	push	{r7, lr}
 8000e0c:	af00      	add	r7, sp, #0
 8000e0e:	f107 0c08 	add.w	ip, r7, #8
 8000e12:	e88c 000f 	stmia.w	ip, {r0, r1, r2, r3}
	SX127xFSKSetOpMode(Sleep_mode);
 8000e16:	2000      	movs	r0, #0
 8000e18:	f7ff fe38 	bl	8000a8c <SX127xFSKSetOpMode>
	SX127xFSKLoRa(FSK_mode);
 8000e1c:	2000      	movs	r0, #0
 8000e1e:	f7ff fe50 	bl	8000ac2 <SX127xFSKLoRa>
	SX127xFSKSetOpMode(Stdby_mode);
 8000e22:	2001      	movs	r0, #1
 8000e24:	f7ff fe32 	bl	8000a8c <SX127xFSKSetOpMode>

	SX127xWriteBuffer( REG_FS_DIOMAPPING1,GPIO_VARE_1);
 8000e28:	2100      	movs	r1, #0
 8000e2a:	2040      	movs	r0, #64	; 0x40
 8000e2c:	f7ff fdd0 	bl	80009d0 <SX127xWriteBuffer>
	SX127xWriteBuffer( REG_FS_DIOMAPPING2,GPIO_VARE_2);
 8000e30:	2100      	movs	r1, #0
 8000e32:	2041      	movs	r0, #65	; 0x41
 8000e34:	f7ff fdcc 	bl	80009d0 <SX127xWriteBuffer>
	SX127xFSKSetRFFrequency(SetupData. FrequencyStart);
 8000e38:	68fb      	ldr	r3, [r7, #12]
 8000e3a:	4618      	mov	r0, r3
 8000e3c:	f7ff fe5c 	bl	8000af8 <SX127xFSKSetRFFrequency>
	SX127xFSKSetBitRate(SetupData.DataRate, BitRateFrac);
 8000e40:	693b      	ldr	r3, [r7, #16]
 8000e42:	4a14      	ldr	r2, [pc, #80]	; (8000e94 <SX127xFSK_INT+0x8c>)
 8000e44:	6812      	ldr	r2, [r2, #0]
 8000e46:	b2d2      	uxtb	r2, r2
 8000e48:	4611      	mov	r1, r2
 8000e4a:	4618      	mov	r0, r3
 8000e4c:	f7ff fe8c 	bl	8000b68 <SX127xFSKSetBitRate>
	SX127xFSKSetFreqDev(SetupData.FrequencyDeviation);
 8000e50:	697b      	ldr	r3, [r7, #20]
 8000e52:	4618      	mov	r0, r3
 8000e54:	f7ff feb6 	bl	8000bc4 <SX127xFSKSetFreqDev>
	SX127xFSKSetGaussianMode(SetupData.GaussianMode);
 8000e58:	7e3b      	ldrb	r3, [r7, #24]
 8000e5a:	4618      	mov	r0, r3
 8000e5c:	f7ff ff1d 	bl	8000c9a <SX127xFSKSetGaussianMode>
	SX127xFSKSetRFPower(SetupData.Power);
 8000e60:	f997 3019 	ldrsb.w	r3, [r7, #25]
 8000e64:	4618      	mov	r0, r3
 8000e66:	f7ff fed1 	bl	8000c0c <SX127xFSKSetRFPower>
	SX127xFSKSetSyncOn(false); // false = No Sync
 8000e6a:	2000      	movs	r0, #0
 8000e6c:	f7ff ff76 	bl	8000d5c <SX127xFSKSetSyncOn>
	SX127xFSKSetPacketFormat(false); // false = Fixed size
 8000e70:	2000      	movs	r0, #0
 8000e72:	f7ff ff55 	bl	8000d20 <SX127xFSKSetPacketFormat>
	SX127xFSKSetCrcOn(false); // false = CRC off
 8000e76:	2000      	movs	r0, #0
 8000e78:	f7ff ff8e 	bl	8000d98 <SX127xFSKSetCrcOn>
	SX127xFSKSetPreambleSize(0); // 0 = No preamble
 8000e7c:	2000      	movs	r0, #0
 8000e7e:	f7ff ffa9 	bl	8000dd4 <SX127xFSKSetPreambleSize>
	SX127xFSKSetFIFOThreshold(FIFO_THRESHOLD);
 8000e82:	2020      	movs	r0, #32
 8000e84:	f7ff ff2b 	bl	8000cde <SX127xFSKSetFIFOThreshold>
}
 8000e88:	bf00      	nop
 8000e8a:	46bd      	mov	sp, r7
 8000e8c:	e8bd 4080 	ldmia.w	sp!, {r7, lr}
 8000e90:	b004      	add	sp, #16
 8000e92:	4770      	bx	lr
 8000e94:	20000200 	.word	0x20000200

08000e98 <SX127xFSKSetPayloadLength>:

void SX127xFSKSetPayloadLength(unsigned int PayloadLength )
{
 8000e98:	b580      	push	{r7, lr}
 8000e9a:	b084      	sub	sp, #16
 8000e9c:	af00      	add	r7, sp, #0
 8000e9e:	6078      	str	r0, [r7, #4]
	// Set mode to Stdby
	SX127xFSKSetOpMode( Stdby_mode );
 8000ea0:	2001      	movs	r0, #1
 8000ea2:	f7ff fdf3 	bl	8000a8c <SX127xFSKSetOpMode>

	// Set payload length
	unsigned char PayloadLengthBytes[2];
	PayloadLengthBytes[0]=PayloadLength>>8 & RFFS_PACKETCONFIG2_PAYLOAD_LENGTH_MASK;
 8000ea6:	687b      	ldr	r3, [r7, #4]
 8000ea8:	0a1b      	lsrs	r3, r3, #8
 8000eaa:	b2db      	uxtb	r3, r3
 8000eac:	f003 0307 	and.w	r3, r3, #7
 8000eb0:	b2db      	uxtb	r3, r3
 8000eb2:	733b      	strb	r3, [r7, #12]
	PayloadLengthBytes[1]=PayloadLength>>0;
 8000eb4:	687b      	ldr	r3, [r7, #4]
 8000eb6:	b2db      	uxtb	r3, r3
 8000eb8:	737b      	strb	r3, [r7, #13]
	unsigned char RECVER_DAT;
	RECVER_DAT= SX127xReadBuffer( REG_FS_PACKETCONFIG2);
 8000eba:	2031      	movs	r0, #49	; 0x31
 8000ebc:	f7ff fdac 	bl	8000a18 <SX127xReadBuffer>
 8000ec0:	4603      	mov	r3, r0
 8000ec2:	73fb      	strb	r3, [r7, #15]
	RECVER_DAT = ( RECVER_DAT & ~RFFS_PACKETCONFIG2_PAYLOAD_LENGTH_MASK ) | PayloadLengthBytes[0];
 8000ec4:	f997 300f 	ldrsb.w	r3, [r7, #15]
 8000ec8:	f023 0307 	bic.w	r3, r3, #7
 8000ecc:	b25a      	sxtb	r2, r3
 8000ece:	7b3b      	ldrb	r3, [r7, #12]
 8000ed0:	b25b      	sxtb	r3, r3
 8000ed2:	4313      	orrs	r3, r2
 8000ed4:	b25b      	sxtb	r3, r3
 8000ed6:	73fb      	strb	r3, [r7, #15]
	SX127xWriteBuffer( REG_FS_PACKETCONFIG2, RECVER_DAT );
 8000ed8:	7bfb      	ldrb	r3, [r7, #15]
 8000eda:	4619      	mov	r1, r3
 8000edc:	2031      	movs	r0, #49	; 0x31
 8000ede:	f7ff fd77 	bl	80009d0 <SX127xWriteBuffer>
	SX127xWriteBuffer( REG_FS_PALOADLENGTHLSB, PayloadLengthBytes[1]);
 8000ee2:	7b7b      	ldrb	r3, [r7, #13]
 8000ee4:	4619      	mov	r1, r3
 8000ee6:	2032      	movs	r0, #50	; 0x32
 8000ee8:	f7ff fd72 	bl	80009d0 <SX127xWriteBuffer>
}
 8000eec:	bf00      	nop
 8000eee:	3710      	adds	r7, #16
 8000ef0:	46bd      	mov	sp, r7
 8000ef2:	bd80      	pop	{r7, pc}

08000ef4 <FUN_RF_SENDPACKET>:

void FUN_RF_SENDPACKET(unsigned char *RF_TRAN_P,unsigned char LEN)
{
 8000ef4:	b580      	push	{r7, lr}
 8000ef6:	b084      	sub	sp, #16
 8000ef8:	af00      	add	r7, sp, #0
 8000efa:	6078      	str	r0, [r7, #4]
 8000efc:	460b      	mov	r3, r1
 8000efe:	70fb      	strb	r3, [r7, #3]
	unsigned char ASM_i;
	HAL_GPIO_WritePin(GPIOA, GPIO_PIN_4, GPIO_PIN_RESET);
 8000f00:	2200      	movs	r2, #0
 8000f02:	2110      	movs	r1, #16
 8000f04:	4815      	ldr	r0, [pc, #84]	; (8000f5c <FUN_RF_SENDPACKET+0x68>)
 8000f06:	f001 f8ab 	bl	8002060 <HAL_GPIO_WritePin>
	gByteWritefunc( 0x80 );
 8000f0a:	2080      	movs	r0, #128	; 0x80
 8000f0c:	f7ff fd2e 	bl	800096c <gByteWritefunc>
	for( ASM_i = 0; ASM_i < LEN; ASM_i++ )
 8000f10:	2300      	movs	r3, #0
 8000f12:	73fb      	strb	r3, [r7, #15]
 8000f14:	e00a      	b.n	8000f2c <FUN_RF_SENDPACKET+0x38>
	{
		gByteWritefunc( *RF_TRAN_P );RF_TRAN_P++;
 8000f16:	687b      	ldr	r3, [r7, #4]
 8000f18:	781b      	ldrb	r3, [r3, #0]
 8000f1a:	4618      	mov	r0, r3
 8000f1c:	f7ff fd26 	bl	800096c <gByteWritefunc>
 8000f20:	687b      	ldr	r3, [r7, #4]
 8000f22:	3301      	adds	r3, #1
 8000f24:	607b      	str	r3, [r7, #4]
	for( ASM_i = 0; ASM_i < LEN; ASM_i++ )
 8000f26:	7bfb      	ldrb	r3, [r7, #15]
 8000f28:	3301      	adds	r3, #1
 8000f2a:	73fb      	strb	r3, [r7, #15]
 8000f2c:	7bfa      	ldrb	r2, [r7, #15]
 8000f2e:	78fb      	ldrb	r3, [r7, #3]
 8000f30:	429a      	cmp	r2, r3
 8000f32:	d3f0      	bcc.n	8000f16 <FUN_RF_SENDPACKET+0x22>
	}
	HAL_GPIO_WritePin(GPIOA, GPIO_PIN_4, GPIO_PIN_SET);
 8000f34:	2201      	movs	r2, #1
 8000f36:	2110      	movs	r1, #16
 8000f38:	4808      	ldr	r0, [pc, #32]	; (8000f5c <FUN_RF_SENDPACKET+0x68>)
 8000f3a:	f001 f891 	bl	8002060 <HAL_GPIO_WritePin>
	SX127xWriteBuffer(REG_FS_DIOMAPPING1,0x40);
 8000f3e:	2140      	movs	r1, #64	; 0x40
 8000f40:	2040      	movs	r0, #64	; 0x40
 8000f42:	f7ff fd45 	bl	80009d0 <SX127xWriteBuffer>
	SX127xWriteBuffer(REG_FS_DIOMAPPING2,0x00);
 8000f46:	2100      	movs	r1, #0
 8000f48:	2041      	movs	r0, #65	; 0x41
 8000f4a:	f7ff fd41 	bl	80009d0 <SX127xWriteBuffer>

	SX127xFSKSetOpMode( Transmitter_mode );
 8000f4e:	2003      	movs	r0, #3
 8000f50:	f7ff fd9c 	bl	8000a8c <SX127xFSKSetOpMode>
}
 8000f54:	bf00      	nop
 8000f56:	3710      	adds	r7, #16
 8000f58:	46bd      	mov	sp, r7
 8000f5a:	bd80      	pop	{r7, pc}
 8000f5c:	40020000 	.word	0x40020000

08000f60 <Board_Init>:
 8000f60:	b580      	push	{r7, lr}
 8000f62:	af00      	add	r7, sp, #0
 8000f64:	f000 fd5d 	bl	8001a22 <HAL_Init>
 8000f68:	f000 f81a 	bl	8000fa0 <SystemClock_Config>
 8000f6c:	f000 f994 	bl	8001298 <MX_GPIO_Init>
 8000f70:	f000 f878 	bl	8001064 <MX_RTC_Init>
 8000f74:	f000 f90c 	bl	8001190 <MX_SPI1_Init>
 8000f78:	f000 f940 	bl	80011fc <MX_TIM4_Init>
 8000f7c:	f006 fdc4 	bl	8007b08 <MX_USB_DEVICE_Init>
 8000f80:	2201      	movs	r2, #1
 8000f82:	f44f 7180 	mov.w	r1, #256	; 0x100
 8000f86:	4805      	ldr	r0, [pc, #20]	; (8000f9c <Board_Init+0x3c>)
 8000f88:	f001 f86a 	bl	8002060 <HAL_GPIO_WritePin>
 8000f8c:	2200      	movs	r2, #0
 8000f8e:	f44f 7180 	mov.w	r1, #256	; 0x100
 8000f92:	4802      	ldr	r0, [pc, #8]	; (8000f9c <Board_Init+0x3c>)
 8000f94:	f001 f864 	bl	8002060 <HAL_GPIO_WritePin>
 8000f98:	bf00      	nop
 8000f9a:	bd80      	pop	{r7, pc}
 8000f9c:	40020400 	.word	0x40020400

08000fa0 <SystemClock_Config>:
 8000fa0:	b580      	push	{r7, lr}
 8000fa2:	b094      	sub	sp, #80	; 0x50
 8000fa4:	af00      	add	r7, sp, #0
 8000fa6:	f107 031c 	add.w	r3, r7, #28
 8000faa:	2234      	movs	r2, #52	; 0x34
 8000fac:	2100      	movs	r1, #0
 8000fae:	4618      	mov	r0, r3
 8000fb0:	f007 faa2 	bl	80084f8 <memset>
 8000fb4:	f107 0308 	add.w	r3, r7, #8
 8000fb8:	2200      	movs	r2, #0
 8000fba:	601a      	str	r2, [r3, #0]
 8000fbc:	605a      	str	r2, [r3, #4]
 8000fbe:	609a      	str	r2, [r3, #8]
 8000fc0:	60da      	str	r2, [r3, #12]
 8000fc2:	611a      	str	r2, [r3, #16]
 8000fc4:	463b      	mov	r3, r7
 8000fc6:	2200      	movs	r2, #0
 8000fc8:	601a      	str	r2, [r3, #0]
 8000fca:	605a      	str	r2, [r3, #4]
 8000fcc:	4b24      	ldr	r3, [pc, #144]	; (8001060 <SystemClock_Config+0xc0>)
 8000fce:	681b      	ldr	r3, [r3, #0]
 8000fd0:	f423 53c0 	bic.w	r3, r3, #6144	; 0x1800
 8000fd4:	4a22      	ldr	r2, [pc, #136]	; (8001060 <SystemClock_Config+0xc0>)
 8000fd6:	f443 6300 	orr.w	r3, r3, #2048	; 0x800
 8000fda:	6013      	str	r3, [r2, #0]
 8000fdc:	2309      	movs	r3, #9
 8000fde:	61fb      	str	r3, [r7, #28]
 8000fe0:	2301      	movs	r3, #1
 8000fe2:	623b      	str	r3, [r7, #32]
 8000fe4:	2301      	movs	r3, #1
 8000fe6:	633b      	str	r3, [r7, #48]	; 0x30
 8000fe8:	2302      	movs	r3, #2
 8000fea:	643b      	str	r3, [r7, #64]	; 0x40
 8000fec:	f44f 3380 	mov.w	r3, #65536	; 0x10000
 8000ff0:	647b      	str	r3, [r7, #68]	; 0x44
 8000ff2:	f44f 1380 	mov.w	r3, #1048576	; 0x100000
 8000ff6:	64bb      	str	r3, [r7, #72]	; 0x48
 8000ff8:	f44f 0300 	mov.w	r3, #8388608	; 0x800000
 8000ffc:	64fb      	str	r3, [r7, #76]	; 0x4c
 8000ffe:	f107 031c 	add.w	r3, r7, #28
 8001002:	4618      	mov	r0, r3
 8001004:	f001 fef0 	bl	8002de8 <HAL_RCC_OscConfig>
 8001008:	4603      	mov	r3, r0
 800100a:	2b00      	cmp	r3, #0
 800100c:	d001      	beq.n	8001012 <SystemClock_Config+0x72>
 800100e:	f000 f9db 	bl	80013c8 <Error_Handler>
 8001012:	230f      	movs	r3, #15
 8001014:	60bb      	str	r3, [r7, #8]
 8001016:	2303      	movs	r3, #3
 8001018:	60fb      	str	r3, [r7, #12]
 800101a:	2300      	movs	r3, #0
 800101c:	613b      	str	r3, [r7, #16]
 800101e:	2300      	movs	r3, #0
 8001020:	617b      	str	r3, [r7, #20]
 8001022:	2300      	movs	r3, #0
 8001024:	61bb      	str	r3, [r7, #24]
 8001026:	f107 0308 	add.w	r3, r7, #8
 800102a:	2101      	movs	r1, #1
 800102c:	4618      	mov	r0, r3
 800102e:	f002 fa0b 	bl	8003448 <HAL_RCC_ClockConfig>
 8001032:	4603      	mov	r3, r0
 8001034:	2b00      	cmp	r3, #0
 8001036:	d001      	beq.n	800103c <SystemClock_Config+0x9c>
 8001038:	f000 f9c6 	bl	80013c8 <Error_Handler>
 800103c:	2301      	movs	r3, #1
 800103e:	603b      	str	r3, [r7, #0]
 8001040:	f44f 3300 	mov.w	r3, #131072	; 0x20000
 8001044:	607b      	str	r3, [r7, #4]
 8001046:	463b      	mov	r3, r7
 8001048:	4618      	mov	r0, r3
 800104a:	f002 fbed 	bl	8003828 <HAL_RCCEx_PeriphCLKConfig>
 800104e:	4603      	mov	r3, r0
 8001050:	2b00      	cmp	r3, #0
 8001052:	d001      	beq.n	8001058 <SystemClock_Config+0xb8>
 8001054:	f000 f9b8 	bl	80013c8 <Error_Handler>
 8001058:	bf00      	nop
 800105a:	3750      	adds	r7, #80	; 0x50
 800105c:	46bd      	mov	sp, r7
 800105e:	bd80      	pop	{r7, pc}
 8001060:	40007000 	.word	0x40007000

08001064 <MX_RTC_Init>:
 8001064:	b580      	push	{r7, lr}
 8001066:	b090      	sub	sp, #64	; 0x40
 8001068:	af00      	add	r7, sp, #0
 800106a:	f107 032c 	add.w	r3, r7, #44	; 0x2c
 800106e:	2200      	movs	r2, #0
 8001070:	601a      	str	r2, [r3, #0]
 8001072:	605a      	str	r2, [r3, #4]
 8001074:	609a      	str	r2, [r3, #8]
 8001076:	60da      	str	r2, [r3, #12]
 8001078:	611a      	str	r2, [r3, #16]
 800107a:	2300      	movs	r3, #0
 800107c:	62bb      	str	r3, [r7, #40]	; 0x28
 800107e:	463b      	mov	r3, r7
 8001080:	2228      	movs	r2, #40	; 0x28
 8001082:	2100      	movs	r1, #0
 8001084:	4618      	mov	r0, r3
 8001086:	f007 fa37 	bl	80084f8 <memset>
 800108a:	4b3f      	ldr	r3, [pc, #252]	; (8001188 <MX_RTC_Init+0x124>)
 800108c:	4a3f      	ldr	r2, [pc, #252]	; (800118c <MX_RTC_Init+0x128>)
 800108e:	601a      	str	r2, [r3, #0]
 8001090:	4b3d      	ldr	r3, [pc, #244]	; (8001188 <MX_RTC_Init+0x124>)
 8001092:	2200      	movs	r2, #0
 8001094:	605a      	str	r2, [r3, #4]
 8001096:	4b3c      	ldr	r3, [pc, #240]	; (8001188 <MX_RTC_Init+0x124>)
 8001098:	227f      	movs	r2, #127	; 0x7f
 800109a:	609a      	str	r2, [r3, #8]
 800109c:	4b3a      	ldr	r3, [pc, #232]	; (8001188 <MX_RTC_Init+0x124>)
 800109e:	22ff      	movs	r2, #255	; 0xff
 80010a0:	60da      	str	r2, [r3, #12]
 80010a2:	4b39      	ldr	r3, [pc, #228]	; (8001188 <MX_RTC_Init+0x124>)
 80010a4:	2200      	movs	r2, #0
 80010a6:	611a      	str	r2, [r3, #16]
 80010a8:	4b37      	ldr	r3, [pc, #220]	; (8001188 <MX_RTC_Init+0x124>)
 80010aa:	2200      	movs	r2, #0
 80010ac:	615a      	str	r2, [r3, #20]
 80010ae:	4b36      	ldr	r3, [pc, #216]	; (8001188 <MX_RTC_Init+0x124>)
 80010b0:	2200      	movs	r2, #0
 80010b2:	619a      	str	r2, [r3, #24]
 80010b4:	4834      	ldr	r0, [pc, #208]	; (8001188 <MX_RTC_Init+0x124>)
 80010b6:	f002 fc7f 	bl	80039b8 <HAL_RTC_Init>
 80010ba:	4603      	mov	r3, r0
 80010bc:	2b00      	cmp	r3, #0
 80010be:	d001      	beq.n	80010c4 <MX_RTC_Init+0x60>
 80010c0:	f000 f982 	bl	80013c8 <Error_Handler>
 80010c4:	2300      	movs	r3, #0
 80010c6:	f887 302c 	strb.w	r3, [r7, #44]	; 0x2c
 80010ca:	2300      	movs	r3, #0
 80010cc:	f887 302d 	strb.w	r3, [r7, #45]	; 0x2d
 80010d0:	2300      	movs	r3, #0
 80010d2:	f887 302e 	strb.w	r3, [r7, #46]	; 0x2e
 80010d6:	2300      	movs	r3, #0
 80010d8:	63bb      	str	r3, [r7, #56]	; 0x38
 80010da:	2300      	movs	r3, #0
 80010dc:	63fb      	str	r3, [r7, #60]	; 0x3c
 80010de:	f107 032c 	add.w	r3, r7, #44	; 0x2c
 80010e2:	2201      	movs	r2, #1
 80010e4:	4619      	mov	r1, r3
 80010e6:	4828      	ldr	r0, [pc, #160]	; (8001188 <MX_RTC_Init+0x124>)
 80010e8:	f002 fce1 	bl	8003aae <HAL_RTC_SetTime>
 80010ec:	4603      	mov	r3, r0
 80010ee:	2b00      	cmp	r3, #0
 80010f0:	d001      	beq.n	80010f6 <MX_RTC_Init+0x92>
 80010f2:	f000 f969 	bl	80013c8 <Error_Handler>
 80010f6:	2301      	movs	r3, #1
 80010f8:	f887 3028 	strb.w	r3, [r7, #40]	; 0x28
 80010fc:	2301      	movs	r3, #1
 80010fe:	f887 3029 	strb.w	r3, [r7, #41]	; 0x29
 8001102:	2301      	movs	r3, #1
 8001104:	f887 302a 	strb.w	r3, [r7, #42]	; 0x2a
 8001108:	2300      	movs	r3, #0
 800110a:	f887 302b 	strb.w	r3, [r7, #43]	; 0x2b
 800110e:	f107 0328 	add.w	r3, r7, #40	; 0x28
 8001112:	2201      	movs	r2, #1
 8001114:	4619      	mov	r1, r3
 8001116:	481c      	ldr	r0, [pc, #112]	; (8001188 <MX_RTC_Init+0x124>)
 8001118:	f002 fd7d 	bl	8003c16 <HAL_RTC_SetDate>
 800111c:	4603      	mov	r3, r0
 800111e:	2b00      	cmp	r3, #0
 8001120:	d001      	beq.n	8001126 <MX_RTC_Init+0xc2>
 8001122:	f000 f951 	bl	80013c8 <Error_Handler>
 8001126:	2300      	movs	r3, #0
 8001128:	703b      	strb	r3, [r7, #0]
 800112a:	2300      	movs	r3, #0
 800112c:	707b      	strb	r3, [r7, #1]
 800112e:	2300      	movs	r3, #0
 8001130:	70bb      	strb	r3, [r7, #2]
 8001132:	2300      	movs	r3, #0
 8001134:	607b      	str	r3, [r7, #4]
 8001136:	2300      	movs	r3, #0
 8001138:	60fb      	str	r3, [r7, #12]
 800113a:	2300      	movs	r3, #0
 800113c:	613b      	str	r3, [r7, #16]
 800113e:	2300      	movs	r3, #0
 8001140:	617b      	str	r3, [r7, #20]
 8001142:	2300      	movs	r3, #0
 8001144:	61bb      	str	r3, [r7, #24]
 8001146:	2300      	movs	r3, #0
 8001148:	61fb      	str	r3, [r7, #28]
 800114a:	2301      	movs	r3, #1
 800114c:	f887 3020 	strb.w	r3, [r7, #32]
 8001150:	f44f 7380 	mov.w	r3, #256	; 0x100
 8001154:	627b      	str	r3, [r7, #36]	; 0x24
 8001156:	463b      	mov	r3, r7
 8001158:	2201      	movs	r2, #1
 800115a:	4619      	mov	r1, r3
 800115c:	480a      	ldr	r0, [pc, #40]	; (8001188 <MX_RTC_Init+0x124>)
 800115e:	f002 fdf8 	bl	8003d52 <HAL_RTC_SetAlarm>
 8001162:	4603      	mov	r3, r0
 8001164:	2b00      	cmp	r3, #0
 8001166:	d001      	beq.n	800116c <MX_RTC_Init+0x108>
 8001168:	f000 f92e 	bl	80013c8 <Error_Handler>
 800116c:	2200      	movs	r2, #0
 800116e:	2100      	movs	r1, #0
 8001170:	4805      	ldr	r0, [pc, #20]	; (8001188 <MX_RTC_Init+0x124>)
 8001172:	f002 ff78 	bl	8004066 <HAL_RTCEx_SetWakeUpTimer>
 8001176:	4603      	mov	r3, r0
 8001178:	2b00      	cmp	r3, #0
 800117a:	d001      	beq.n	8001180 <MX_RTC_Init+0x11c>
 800117c:	f000 f924 	bl	80013c8 <Error_Handler>
 8001180:	bf00      	nop
 8001182:	3740      	adds	r7, #64	; 0x40
 8001184:	46bd      	mov	sp, r7
 8001186:	bd80      	pop	{r7, pc}
 8001188:	20000204 	.word	0x20000204
 800118c:	40002800 	.word	0x40002800

08001190 <MX_SPI1_Init>:
 8001190:	b580      	push	{r7, lr}
 8001192:	af00      	add	r7, sp, #0
 8001194:	4b17      	ldr	r3, [pc, #92]	; (80011f4 <MX_SPI1_Init+0x64>)
 8001196:	4a18      	ldr	r2, [pc, #96]	; (80011f8 <MX_SPI1_Init+0x68>)
 8001198:	601a      	str	r2, [r3, #0]
 800119a:	4b16      	ldr	r3, [pc, #88]	; (80011f4 <MX_SPI1_Init+0x64>)
 800119c:	f44f 7282 	mov.w	r2, #260	; 0x104
 80011a0:	605a      	str	r2, [r3, #4]
 80011a2:	4b14      	ldr	r3, [pc, #80]	; (80011f4 <MX_SPI1_Init+0x64>)
 80011a4:	2200      	movs	r2, #0
 80011a6:	609a      	str	r2, [r3, #8]
 80011a8:	4b12      	ldr	r3, [pc, #72]	; (80011f4 <MX_SPI1_Init+0x64>)
 80011aa:	2200      	movs	r2, #0
 80011ac:	60da      	str	r2, [r3, #12]
 80011ae:	4b11      	ldr	r3, [pc, #68]	; (80011f4 <MX_SPI1_Init+0x64>)
 80011b0:	2200      	movs	r2, #0
 80011b2:	611a      	str	r2, [r3, #16]
 80011b4:	4b0f      	ldr	r3, [pc, #60]	; (80011f4 <MX_SPI1_Init+0x64>)
 80011b6:	2200      	movs	r2, #0
 80011b8:	615a      	str	r2, [r3, #20]
 80011ba:	4b0e      	ldr	r3, [pc, #56]	; (80011f4 <MX_SPI1_Init+0x64>)
 80011bc:	f44f 7200 	mov.w	r2, #512	; 0x200
 80011c0:	619a      	str	r2, [r3, #24]
 80011c2:	4b0c      	ldr	r3, [pc, #48]	; (80011f4 <MX_SPI1_Init+0x64>)
 80011c4:	2200      	movs	r2, #0
 80011c6:	61da      	str	r2, [r3, #28]
 80011c8:	4b0a      	ldr	r3, [pc, #40]	; (80011f4 <MX_SPI1_Init+0x64>)
 80011ca:	2200      	movs	r2, #0
 80011cc:	621a      	str	r2, [r3, #32]
 80011ce:	4b09      	ldr	r3, [pc, #36]	; (80011f4 <MX_SPI1_Init+0x64>)
 80011d0:	2200      	movs	r2, #0
 80011d2:	625a      	str	r2, [r3, #36]	; 0x24
 80011d4:	4b07      	ldr	r3, [pc, #28]	; (80011f4 <MX_SPI1_Init+0x64>)
 80011d6:	2200      	movs	r2, #0
 80011d8:	629a      	str	r2, [r3, #40]	; 0x28
 80011da:	4b06      	ldr	r3, [pc, #24]	; (80011f4 <MX_SPI1_Init+0x64>)
 80011dc:	220a      	movs	r2, #10
 80011de:	62da      	str	r2, [r3, #44]	; 0x2c
 80011e0:	4804      	ldr	r0, [pc, #16]	; (80011f4 <MX_SPI1_Init+0x64>)
 80011e2:	f002 ffd2 	bl	800418a <HAL_SPI_Init>
 80011e6:	4603      	mov	r3, r0
 80011e8:	2b00      	cmp	r3, #0
 80011ea:	d001      	beq.n	80011f0 <MX_SPI1_Init+0x60>
 80011ec:	f000 f8ec 	bl	80013c8 <Error_Handler>
 80011f0:	bf00      	nop
 80011f2:	bd80      	pop	{r7, pc}
 80011f4:	20000224 	.word	0x20000224
 80011f8:	40013000 	.word	0x40013000

080011fc <MX_TIM4_Init>:
 80011fc:	b580      	push	{r7, lr}
 80011fe:	b086      	sub	sp, #24
 8001200:	af00      	add	r7, sp, #0
 8001202:	f107 0308 	add.w	r3, r7, #8
 8001206:	2200      	movs	r2, #0
 8001208:	601a      	str	r2, [r3, #0]
 800120a:	605a      	str	r2, [r3, #4]
 800120c:	609a      	str	r2, [r3, #8]
 800120e:	60da      	str	r2, [r3, #12]
 8001210:	463b      	mov	r3, r7
 8001212:	2200      	movs	r2, #0
 8001214:	601a      	str	r2, [r3, #0]
 8001216:	605a      	str	r2, [r3, #4]
 8001218:	4b1d      	ldr	r3, [pc, #116]	; (8001290 <MX_TIM4_Init+0x94>)
 800121a:	4a1e      	ldr	r2, [pc, #120]	; (8001294 <MX_TIM4_Init+0x98>)
 800121c:	601a      	str	r2, [r3, #0]
 800121e:	4b1c      	ldr	r3, [pc, #112]	; (8001290 <MX_TIM4_Init+0x94>)
 8001220:	f647 42ff 	movw	r2, #31999	; 0x7cff
 8001224:	605a      	str	r2, [r3, #4]
 8001226:	4b1a      	ldr	r3, [pc, #104]	; (8001290 <MX_TIM4_Init+0x94>)
 8001228:	2200      	movs	r2, #0
 800122a:	609a      	str	r2, [r3, #8]
 800122c:	4b18      	ldr	r3, [pc, #96]	; (8001290 <MX_TIM4_Init+0x94>)
 800122e:	f242 720f 	movw	r2, #9999	; 0x270f
 8001232:	60da      	str	r2, [r3, #12]
 8001234:	4b16      	ldr	r3, [pc, #88]	; (8001290 <MX_TIM4_Init+0x94>)
 8001236:	2200      	movs	r2, #0
 8001238:	611a      	str	r2, [r3, #16]
 800123a:	4b15      	ldr	r3, [pc, #84]	; (8001290 <MX_TIM4_Init+0x94>)
 800123c:	2280      	movs	r2, #128	; 0x80
 800123e:	615a      	str	r2, [r3, #20]
 8001240:	4813      	ldr	r0, [pc, #76]	; (8001290 <MX_TIM4_Init+0x94>)
 8001242:	f003 fcf0 	bl	8004c26 <HAL_TIM_Base_Init>
 8001246:	4603      	mov	r3, r0
 8001248:	2b00      	cmp	r3, #0
 800124a:	d001      	beq.n	8001250 <MX_TIM4_Init+0x54>
 800124c:	f000 f8bc 	bl	80013c8 <Error_Handler>
 8001250:	f44f 5380 	mov.w	r3, #4096	; 0x1000
 8001254:	60bb      	str	r3, [r7, #8]
 8001256:	f107 0308 	add.w	r3, r7, #8
 800125a:	4619      	mov	r1, r3
 800125c:	480c      	ldr	r0, [pc, #48]	; (8001290 <MX_TIM4_Init+0x94>)
 800125e:	f003 fe0b 	bl	8004e78 <HAL_TIM_ConfigClockSource>
 8001262:	4603      	mov	r3, r0
 8001264:	2b00      	cmp	r3, #0
 8001266:	d001      	beq.n	800126c <MX_TIM4_Init+0x70>
 8001268:	f000 f8ae 	bl	80013c8 <Error_Handler>
 800126c:	2300      	movs	r3, #0
 800126e:	603b      	str	r3, [r7, #0]
 8001270:	2300      	movs	r3, #0
 8001272:	607b      	str	r3, [r7, #4]
 8001274:	463b      	mov	r3, r7
 8001276:	4619      	mov	r1, r3
 8001278:	4805      	ldr	r0, [pc, #20]	; (8001290 <MX_TIM4_Init+0x94>)
 800127a:	f003 ffeb 	bl	8005254 <HAL_TIMEx_MasterConfigSynchronization>
 800127e:	4603      	mov	r3, r0
 8001280:	2b00      	cmp	r3, #0
 8001282:	d001      	beq.n	8001288 <MX_TIM4_Init+0x8c>
 8001284:	f000 f8a0 	bl	80013c8 <Error_Handler>
 8001288:	bf00      	nop
 800128a:	3718      	adds	r7, #24
 800128c:	46bd      	mov	sp, r7
 800128e:	bd80      	pop	{r7, pc}
 8001290:	2000027c 	.word	0x2000027c
 8001294:	40000800 	.word	0x40000800

08001298 <MX_GPIO_Init>:
 8001298:	b580      	push	{r7, lr}
 800129a:	b08a      	sub	sp, #40	; 0x28
 800129c:	af00      	add	r7, sp, #0
 800129e:	f107 0314 	add.w	r3, r7, #20
 80012a2:	2200      	movs	r2, #0
 80012a4:	601a      	str	r2, [r3, #0]
 80012a6:	605a      	str	r2, [r3, #4]
 80012a8:	609a      	str	r2, [r3, #8]
 80012aa:	60da      	str	r2, [r3, #12]
 80012ac:	611a      	str	r2, [r3, #16]
 80012ae:	4b34      	ldr	r3, [pc, #208]	; (8001380 <MX_GPIO_Init+0xe8>)
 80012b0:	69db      	ldr	r3, [r3, #28]
 80012b2:	4a33      	ldr	r2, [pc, #204]	; (8001380 <MX_GPIO_Init+0xe8>)
 80012b4:	f043 0304 	orr.w	r3, r3, #4
 80012b8:	61d3      	str	r3, [r2, #28]
 80012ba:	4b31      	ldr	r3, [pc, #196]	; (8001380 <MX_GPIO_Init+0xe8>)
 80012bc:	69db      	ldr	r3, [r3, #28]
 80012be:	f003 0304 	and.w	r3, r3, #4
 80012c2:	613b      	str	r3, [r7, #16]
 80012c4:	693b      	ldr	r3, [r7, #16]
 80012c6:	4b2e      	ldr	r3, [pc, #184]	; (8001380 <MX_GPIO_Init+0xe8>)
 80012c8:	69db      	ldr	r3, [r3, #28]
 80012ca:	4a2d      	ldr	r2, [pc, #180]	; (8001380 <MX_GPIO_Init+0xe8>)
 80012cc:	f043 0320 	orr.w	r3, r3, #32
 80012d0:	61d3      	str	r3, [r2, #28]
 80012d2:	4b2b      	ldr	r3, [pc, #172]	; (8001380 <MX_GPIO_Init+0xe8>)
 80012d4:	69db      	ldr	r3, [r3, #28]
 80012d6:	f003 0320 	and.w	r3, r3, #32
 80012da:	60fb      	str	r3, [r7, #12]
 80012dc:	68fb      	ldr	r3, [r7, #12]
 80012de:	4b28      	ldr	r3, [pc, #160]	; (8001380 <MX_GPIO_Init+0xe8>)
 80012e0:	69db      	ldr	r3, [r3, #28]
 80012e2:	4a27      	ldr	r2, [pc, #156]	; (8001380 <MX_GPIO_Init+0xe8>)
 80012e4:	f043 0301 	orr.w	r3, r3, #1
 80012e8:	61d3      	str	r3, [r2, #28]
 80012ea:	4b25      	ldr	r3, [pc, #148]	; (8001380 <MX_GPIO_Init+0xe8>)
 80012ec:	69db      	ldr	r3, [r3, #28]
 80012ee:	f003 0301 	and.w	r3, r3, #1
 80012f2:	60bb      	str	r3, [r7, #8]
 80012f4:	68bb      	ldr	r3, [r7, #8]
 80012f6:	4b22      	ldr	r3, [pc, #136]	; (8001380 <MX_GPIO_Init+0xe8>)
 80012f8:	69db      	ldr	r3, [r3, #28]
 80012fa:	4a21      	ldr	r2, [pc, #132]	; (8001380 <MX_GPIO_Init+0xe8>)
 80012fc:	f043 0302 	orr.w	r3, r3, #2
 8001300:	61d3      	str	r3, [r2, #28]
 8001302:	4b1f      	ldr	r3, [pc, #124]	; (8001380 <MX_GPIO_Init+0xe8>)
 8001304:	69db      	ldr	r3, [r3, #28]
 8001306:	f003 0302 	and.w	r3, r3, #2
 800130a:	607b      	str	r3, [r7, #4]
 800130c:	687b      	ldr	r3, [r7, #4]
 800130e:	2200      	movs	r2, #0
 8001310:	2118      	movs	r1, #24
 8001312:	481c      	ldr	r0, [pc, #112]	; (8001384 <MX_GPIO_Init+0xec>)
 8001314:	f000 fea4 	bl	8002060 <HAL_GPIO_WritePin>
 8001318:	2318      	movs	r3, #24
 800131a:	617b      	str	r3, [r7, #20]
 800131c:	2301      	movs	r3, #1
 800131e:	61bb      	str	r3, [r7, #24]
 8001320:	2300      	movs	r3, #0
 8001322:	61fb      	str	r3, [r7, #28]
 8001324:	2300      	movs	r3, #0
 8001326:	623b      	str	r3, [r7, #32]
 8001328:	f107 0314 	add.w	r3, r7, #20
 800132c:	4619      	mov	r1, r3
 800132e:	4815      	ldr	r0, [pc, #84]	; (8001384 <MX_GPIO_Init+0xec>)
 8001330:	f000 fd16 	bl	8001d60 <HAL_GPIO_Init>
 8001334:	f640 4303 	movw	r3, #3075	; 0xc03
 8001338:	617b      	str	r3, [r7, #20]
 800133a:	2300      	movs	r3, #0
 800133c:	61bb      	str	r3, [r7, #24]
 800133e:	2300      	movs	r3, #0
 8001340:	61fb      	str	r3, [r7, #28]
 8001342:	f107 0314 	add.w	r3, r7, #20
 8001346:	4619      	mov	r1, r3
 8001348:	480f      	ldr	r0, [pc, #60]	; (8001388 <MX_GPIO_Init+0xf0>)
 800134a:	f000 fd09 	bl	8001d60 <HAL_GPIO_Init>
 800134e:	2200      	movs	r2, #0
 8001350:	f44f 7180 	mov.w	r1, #256	; 0x100
 8001354:	480c      	ldr	r0, [pc, #48]	; (8001388 <MX_GPIO_Init+0xf0>)
 8001356:	f000 fe83 	bl	8002060 <HAL_GPIO_WritePin>
 800135a:	f44f 7380 	mov.w	r3, #256	; 0x100
 800135e:	617b      	str	r3, [r7, #20]
 8001360:	2301      	movs	r3, #1
 8001362:	61bb      	str	r3, [r7, #24]
 8001364:	2300      	movs	r3, #0
 8001366:	61fb      	str	r3, [r7, #28]
 8001368:	2300      	movs	r3, #0
 800136a:	623b      	str	r3, [r7, #32]
 800136c:	f107 0314 	add.w	r3, r7, #20
 8001370:	4619      	mov	r1, r3
 8001372:	4805      	ldr	r0, [pc, #20]	; (8001388 <MX_GPIO_Init+0xf0>)
 8001374:	f000 fcf4 	bl	8001d60 <HAL_GPIO_Init>
 8001378:	bf00      	nop
 800137a:	3728      	adds	r7, #40	; 0x28
 800137c:	46bd      	mov	sp, r7
 800137e:	bd80      	pop	{r7, pc}
 8001380:	40023800 	.word	0x40023800
 8001384:	40020000 	.word	0x40020000
 8001388:	40020400 	.word	0x40020400

0800138c <HAL_TIM_PeriodElapsedCallback>:
 800138c:	b580      	push	{r7, lr}
 800138e:	b082      	sub	sp, #8
 8001390:	af00      	add	r7, sp, #0
 8001392:	6078      	str	r0, [r7, #4]
 8001394:	4b09      	ldr	r3, [pc, #36]	; (80013bc <HAL_TIM_PeriodElapsedCallback+0x30>)
 8001396:	881b      	ldrh	r3, [r3, #0]
 8001398:	3301      	adds	r3, #1
 800139a:	b29a      	uxth	r2, r3
 800139c:	4b07      	ldr	r3, [pc, #28]	; (80013bc <HAL_TIM_PeriodElapsedCallback+0x30>)
 800139e:	801a      	strh	r2, [r3, #0]
 80013a0:	4b06      	ldr	r3, [pc, #24]	; (80013bc <HAL_TIM_PeriodElapsedCallback+0x30>)
 80013a2:	881b      	ldrh	r3, [r3, #0]
 80013a4:	2b04      	cmp	r3, #4
 80013a6:	d105      	bne.n	80013b4 <HAL_TIM_PeriodElapsedCallback+0x28>
 80013a8:	4b05      	ldr	r3, [pc, #20]	; (80013c0 <HAL_TIM_PeriodElapsedCallback+0x34>)
 80013aa:	2201      	movs	r2, #1
 80013ac:	801a      	strh	r2, [r3, #0]
 80013ae:	4805      	ldr	r0, [pc, #20]	; (80013c4 <HAL_TIM_PeriodElapsedCallback+0x38>)
 80013b0:	f003 fc64 	bl	8004c7c <HAL_TIM_Base_Stop_IT>
 80013b4:	bf00      	nop
 80013b6:	3708      	adds	r7, #8
 80013b8:	46bd      	mov	sp, r7
 80013ba:	bd80      	pop	{r7, pc}
 80013bc:	20000aee 	.word	0x20000aee
 80013c0:	20000aec 	.word	0x20000aec
 80013c4:	2000027c 	.word	0x2000027c

080013c8 <Error_Handler>:
 80013c8:	b480      	push	{r7}
 80013ca:	af00      	add	r7, sp, #0
 80013cc:	bf00      	nop
 80013ce:	46bd      	mov	sp, r7
 80013d0:	bc80      	pop	{r7}
 80013d2:	4770      	bx	lr

080013d4 <main>:

uint16_t 		begin_flag   = 0;
uint16_t 		num          = 0;

int main(void)
{
 80013d4:	b5b0      	push	{r4, r5, r7, lr}
 80013d6:	b08a      	sub	sp, #40	; 0x28
 80013d8:	af02      	add	r7, sp, #8
	unsigned char Irq_flag_RX = 0;
 80013da:	2300      	movs	r3, #0
 80013dc:	74fb      	strb	r3, [r7, #19]

	Board_Init();
 80013de:	f7ff fdbf 	bl	8000f60 <Board_Init>
	//usb_printf("Board setup\r\n");
	HAL_Delay(10);
 80013e2:	200a      	movs	r0, #10
 80013e4:	f000 fb8c 	bl	8001b00 <HAL_Delay>


	SetupData.NumOfBytes = 0;             // Holds the number of bytes in the packet received from the PC
 80013e8:	4b7d      	ldr	r3, [pc, #500]	; (80015e0 <main+0x20c>)
 80013ea:	2200      	movs	r2, #0
 80013ec:	801a      	strh	r2, [r3, #0]
	SetupData.FrequencyStart = 404000000; // Frequency in Hz
 80013ee:	4b7c      	ldr	r3, [pc, #496]	; (80015e0 <main+0x20c>)
 80013f0:	4a7c      	ldr	r2, [pc, #496]	; (80015e4 <main+0x210>)
 80013f2:	605a      	str	r2, [r3, #4]
	SetupData.DataRate = 4800;            // Data rate in BAUD
 80013f4:	4b7a      	ldr	r3, [pc, #488]	; (80015e0 <main+0x20c>)
 80013f6:	f44f 5296 	mov.w	r2, #4800	; 0x12c0
 80013fa:	609a      	str	r2, [r3, #8]
	SetupData.FrequencyDeviation = 2400;  // Frequency deviation in Hz
 80013fc:	4b78      	ldr	r3, [pc, #480]	; (80015e0 <main+0x20c>)
 80013fe:	f44f 6216 	mov.w	r2, #2400	; 0x960
 8001402:	60da      	str	r2, [r3, #12]
	SetupData.GaussianMode = 2;           // 0 = no shaping, 			    1 = Gaussian filter BT = 1.0,
 8001404:	4b76      	ldr	r3, [pc, #472]	; (80015e0 <main+0x20c>)
 8001406:	2202      	movs	r2, #2
 8001408:	741a      	strb	r2, [r3, #16]
	  	  	  	  	  	  	  	          // 2 = Gaussian filter BT = 0.5,  3 = Gaussian filter BT = 0.3
	SetupData.Power = 19;                 // Output power in dBm:  Supports -3dBm to +16dBm, +20dBm
 800140a:	4b75      	ldr	r3, [pc, #468]	; (80015e0 <main+0x20c>)
 800140c:	2213      	movs	r2, #19
 800140e:	745a      	strb	r2, [r3, #17]

	SX127xReset();
 8001410:	f7ff fb24 	bl	8000a5c <SX127xReset>
	SX127xFSK_INT(SetupData);
 8001414:	4b72      	ldr	r3, [pc, #456]	; (80015e0 <main+0x20c>)
 8001416:	691a      	ldr	r2, [r3, #16]
 8001418:	9200      	str	r2, [sp, #0]
 800141a:	cb0f      	ldmia	r3, {r0, r1, r2, r3}
 800141c:	f7ff fcf4 	bl	8000e08 <SX127xFSK_INT>
	//usb_printf("Transceiver setup\r\n");

	uint32_t StartTime = 0;
 8001420:	2300      	movs	r3, #0
 8001422:	61fb      	str	r3, [r7, #28]
	uint32_t MaximumTicksPerMessage = 1000; // [milliseconds]
 8001424:	f44f 737a 	mov.w	r3, #1000	; 0x3e8
 8001428:	60fb      	str	r3, [r7, #12]
	int NumOfBytes = 1023;
 800142a:	f240 33ff 	movw	r3, #1023	; 0x3ff
 800142e:	61bb      	str	r3, [r7, #24]
	int AckNumber = 0;
 8001430:	2300      	movs	r3, #0
 8001432:	617b      	str	r3, [r7, #20]
	while (1)
	{
		// USB message reception

		// Check if the USBBuffer is filling.
		if (USBBufferPointer > 0)
 8001434:	4b6c      	ldr	r3, [pc, #432]	; (80015e8 <main+0x214>)
 8001436:	881b      	ldrh	r3, [r3, #0]
 8001438:	2b00      	cmp	r3, #0
 800143a:	f000 80fd 	beq.w	8001638 <main+0x264>
		{
			// Check if this is the start of the message reception
			if (StartTime == 0)
 800143e:	69fb      	ldr	r3, [r7, #28]
 8001440:	2b00      	cmp	r3, #0
 8001442:	d103      	bne.n	800144c <main+0x78>
				{
					// Set the start time
					StartTime = HAL_GetTick();
 8001444:	f000 fb52 	bl	8001aec <HAL_GetTick>
 8001448:	61f8      	str	r0, [r7, #28]
 800144a:	e0f5      	b.n	8001638 <main+0x264>
				}
			// Check if the expected number of byte were received
			else if ((NumOfBytes == 1023) && (USBBufferPointer >= 2))
 800144c:	69bb      	ldr	r3, [r7, #24]
 800144e:	f240 32ff 	movw	r2, #1023	; 0x3ff
 8001452:	4293      	cmp	r3, r2
 8001454:	d10b      	bne.n	800146e <main+0x9a>
 8001456:	4b64      	ldr	r3, [pc, #400]	; (80015e8 <main+0x214>)
 8001458:	881b      	ldrh	r3, [r3, #0]
 800145a:	2b01      	cmp	r3, #1
 800145c:	d907      	bls.n	800146e <main+0x9a>
			{
				NumOfBytes = ((int)USBBuffer[0] << 8) | (int)USBBuffer[1];
 800145e:	4b63      	ldr	r3, [pc, #396]	; (80015ec <main+0x218>)
 8001460:	781b      	ldrb	r3, [r3, #0]
 8001462:	021b      	lsls	r3, r3, #8
 8001464:	4a61      	ldr	r2, [pc, #388]	; (80015ec <main+0x218>)
 8001466:	7852      	ldrb	r2, [r2, #1]
 8001468:	4313      	orrs	r3, r2
 800146a:	61bb      	str	r3, [r7, #24]
 800146c:	e0e4      	b.n	8001638 <main+0x264>
			}
			// Check if 64 bytes were sent. If so, send the number of accumulated bytes.
			else if ((USBBufferPointer % 64 == 0) && (AckNumber != USBBufferPointer))
 800146e:	4b5e      	ldr	r3, [pc, #376]	; (80015e8 <main+0x214>)
 8001470:	881b      	ldrh	r3, [r3, #0]
 8001472:	f003 033f 	and.w	r3, r3, #63	; 0x3f
 8001476:	b29b      	uxth	r3, r3
 8001478:	2b00      	cmp	r3, #0
 800147a:	d10f      	bne.n	800149c <main+0xc8>
 800147c:	4b5a      	ldr	r3, [pc, #360]	; (80015e8 <main+0x214>)
 800147e:	881b      	ldrh	r3, [r3, #0]
 8001480:	461a      	mov	r2, r3
 8001482:	697b      	ldr	r3, [r7, #20]
 8001484:	4293      	cmp	r3, r2
 8001486:	d009      	beq.n	800149c <main+0xc8>
			{
				usb_printf("%d",USBBufferPointer);
 8001488:	4b57      	ldr	r3, [pc, #348]	; (80015e8 <main+0x214>)
 800148a:	881b      	ldrh	r3, [r3, #0]
 800148c:	4619      	mov	r1, r3
 800148e:	4858      	ldr	r0, [pc, #352]	; (80015f0 <main+0x21c>)
 8001490:	f006 fc38 	bl	8007d04 <usb_printf>
				AckNumber = USBBufferPointer;
 8001494:	4b54      	ldr	r3, [pc, #336]	; (80015e8 <main+0x214>)
 8001496:	881b      	ldrh	r3, [r3, #0]
 8001498:	617b      	str	r3, [r7, #20]
 800149a:	e0cd      	b.n	8001638 <main+0x264>
			}
			else if (USBBufferPointer >= NumOfBytes)
 800149c:	4b52      	ldr	r3, [pc, #328]	; (80015e8 <main+0x214>)
 800149e:	881b      	ldrh	r3, [r3, #0]
 80014a0:	461a      	mov	r2, r3
 80014a2:	69bb      	ldr	r3, [r7, #24]
 80014a4:	4293      	cmp	r3, r2
 80014a6:	f300 80af 	bgt.w	8001608 <main+0x234>
			{
				// Read the transmission data from the buffer
				PcReceptionData.NumOfBytes 		   = ( (uint16_t)USBBuffer[ 0] <<  8 ) |   (uint16_t)USBBuffer[ 1];
 80014aa:	4b50      	ldr	r3, [pc, #320]	; (80015ec <main+0x218>)
 80014ac:	781b      	ldrb	r3, [r3, #0]
 80014ae:	021b      	lsls	r3, r3, #8
 80014b0:	b21a      	sxth	r2, r3
 80014b2:	4b4e      	ldr	r3, [pc, #312]	; (80015ec <main+0x218>)
 80014b4:	785b      	ldrb	r3, [r3, #1]
 80014b6:	b21b      	sxth	r3, r3
 80014b8:	4313      	orrs	r3, r2
 80014ba:	b21b      	sxth	r3, r3
 80014bc:	b29a      	uxth	r2, r3
 80014be:	4b4d      	ldr	r3, [pc, #308]	; (80015f4 <main+0x220>)
 80014c0:	801a      	strh	r2, [r3, #0]
				PcReceptionData.FrequencyStart     = ( (uint32_t)USBBuffer[ 2] << 24 ) | ( (uint32_t)USBBuffer[ 3] << 16 ) |
 80014c2:	4b4a      	ldr	r3, [pc, #296]	; (80015ec <main+0x218>)
 80014c4:	789b      	ldrb	r3, [r3, #2]
 80014c6:	061a      	lsls	r2, r3, #24
 80014c8:	4b48      	ldr	r3, [pc, #288]	; (80015ec <main+0x218>)
 80014ca:	78db      	ldrb	r3, [r3, #3]
 80014cc:	041b      	lsls	r3, r3, #16
 80014ce:	431a      	orrs	r2, r3
												     ( (uint32_t)USBBuffer[ 4] <<  8 ) |   (uint32_t)USBBuffer[ 5];
 80014d0:	4b46      	ldr	r3, [pc, #280]	; (80015ec <main+0x218>)
 80014d2:	791b      	ldrb	r3, [r3, #4]
 80014d4:	021b      	lsls	r3, r3, #8
				PcReceptionData.FrequencyStart     = ( (uint32_t)USBBuffer[ 2] << 24 ) | ( (uint32_t)USBBuffer[ 3] << 16 ) |
 80014d6:	4313      	orrs	r3, r2
												     ( (uint32_t)USBBuffer[ 4] <<  8 ) |   (uint32_t)USBBuffer[ 5];
 80014d8:	4a44      	ldr	r2, [pc, #272]	; (80015ec <main+0x218>)
 80014da:	7952      	ldrb	r2, [r2, #5]
 80014dc:	4313      	orrs	r3, r2
				PcReceptionData.FrequencyStart     = ( (uint32_t)USBBuffer[ 2] << 24 ) | ( (uint32_t)USBBuffer[ 3] << 16 ) |
 80014de:	4a45      	ldr	r2, [pc, #276]	; (80015f4 <main+0x220>)
 80014e0:	6053      	str	r3, [r2, #4]
				PcReceptionData.DataRate           = ( (uint32_t)USBBuffer[ 6] << 24 ) | ( (uint32_t)USBBuffer[ 7] << 16 ) |
 80014e2:	4b42      	ldr	r3, [pc, #264]	; (80015ec <main+0x218>)
 80014e4:	799b      	ldrb	r3, [r3, #6]
 80014e6:	061a      	lsls	r2, r3, #24
 80014e8:	4b40      	ldr	r3, [pc, #256]	; (80015ec <main+0x218>)
 80014ea:	79db      	ldrb	r3, [r3, #7]
 80014ec:	041b      	lsls	r3, r3, #16
 80014ee:	431a      	orrs	r2, r3
												     ( (uint32_t)USBBuffer[ 8] <<  8 ) |   (uint32_t)USBBuffer[ 9];
 80014f0:	4b3e      	ldr	r3, [pc, #248]	; (80015ec <main+0x218>)
 80014f2:	7a1b      	ldrb	r3, [r3, #8]
 80014f4:	021b      	lsls	r3, r3, #8
				PcReceptionData.DataRate           = ( (uint32_t)USBBuffer[ 6] << 24 ) | ( (uint32_t)USBBuffer[ 7] << 16 ) |
 80014f6:	4313      	orrs	r3, r2
												     ( (uint32_t)USBBuffer[ 8] <<  8 ) |   (uint32_t)USBBuffer[ 9];
 80014f8:	4a3c      	ldr	r2, [pc, #240]	; (80015ec <main+0x218>)
 80014fa:	7a52      	ldrb	r2, [r2, #9]
 80014fc:	4313      	orrs	r3, r2
				PcReceptionData.DataRate           = ( (uint32_t)USBBuffer[ 6] << 24 ) | ( (uint32_t)USBBuffer[ 7] << 16 ) |
 80014fe:	4a3d      	ldr	r2, [pc, #244]	; (80015f4 <main+0x220>)
 8001500:	6093      	str	r3, [r2, #8]
				PcReceptionData.FrequencyDeviation = ( (uint32_t)USBBuffer[10] << 24 ) | ( (uint32_t)USBBuffer[11] << 16 ) |
 8001502:	4b3a      	ldr	r3, [pc, #232]	; (80015ec <main+0x218>)
 8001504:	7a9b      	ldrb	r3, [r3, #10]
 8001506:	061a      	lsls	r2, r3, #24
 8001508:	4b38      	ldr	r3, [pc, #224]	; (80015ec <main+0x218>)
 800150a:	7adb      	ldrb	r3, [r3, #11]
 800150c:	041b      	lsls	r3, r3, #16
 800150e:	431a      	orrs	r2, r3
												     ( (uint32_t)USBBuffer[12] <<  8 ) |   (uint32_t)USBBuffer[13];
 8001510:	4b36      	ldr	r3, [pc, #216]	; (80015ec <main+0x218>)
 8001512:	7b1b      	ldrb	r3, [r3, #12]
 8001514:	021b      	lsls	r3, r3, #8
				PcReceptionData.FrequencyDeviation = ( (uint32_t)USBBuffer[10] << 24 ) | ( (uint32_t)USBBuffer[11] << 16 ) |
 8001516:	4313      	orrs	r3, r2
												     ( (uint32_t)USBBuffer[12] <<  8 ) |   (uint32_t)USBBuffer[13];
 8001518:	4a34      	ldr	r2, [pc, #208]	; (80015ec <main+0x218>)
 800151a:	7b52      	ldrb	r2, [r2, #13]
 800151c:	4313      	orrs	r3, r2
				PcReceptionData.FrequencyDeviation = ( (uint32_t)USBBuffer[10] << 24 ) | ( (uint32_t)USBBuffer[11] << 16 ) |
 800151e:	4a35      	ldr	r2, [pc, #212]	; (80015f4 <main+0x220>)
 8001520:	60d3      	str	r3, [r2, #12]
				PcReceptionData.GaussianMode       =  USBBuffer[14];
 8001522:	4b32      	ldr	r3, [pc, #200]	; (80015ec <main+0x218>)
 8001524:	7b9a      	ldrb	r2, [r3, #14]
 8001526:	4b33      	ldr	r3, [pc, #204]	; (80015f4 <main+0x220>)
 8001528:	741a      	strb	r2, [r3, #16]
				PcReceptionData.Power              =  USBBuffer[15];
 800152a:	4b30      	ldr	r3, [pc, #192]	; (80015ec <main+0x218>)
 800152c:	7bdb      	ldrb	r3, [r3, #15]
 800152e:	b25a      	sxtb	r2, r3
 8001530:	4b30      	ldr	r3, [pc, #192]	; (80015f4 <main+0x220>)
 8001532:	745a      	strb	r2, [r3, #17]

				// Copy the data to the Tx buffer
				memcpy(TxBuffer, USBBuffer + PcReceptionStructSize, NumOfBytes);
 8001534:	4b30      	ldr	r3, [pc, #192]	; (80015f8 <main+0x224>)
 8001536:	781b      	ldrb	r3, [r3, #0]
 8001538:	461a      	mov	r2, r3
 800153a:	4b2c      	ldr	r3, [pc, #176]	; (80015ec <main+0x218>)
 800153c:	4413      	add	r3, r2
 800153e:	69ba      	ldr	r2, [r7, #24]
 8001540:	4619      	mov	r1, r3
 8001542:	482e      	ldr	r0, [pc, #184]	; (80015fc <main+0x228>)
 8001544:	f006 ffca 	bl	80084dc <memcpy>
				TxDataSize = NumOfBytes - PcReceptionStructSize;
 8001548:	4b2b      	ldr	r3, [pc, #172]	; (80015f8 <main+0x224>)
 800154a:	781b      	ldrb	r3, [r3, #0]
 800154c:	461a      	mov	r2, r3
 800154e:	69bb      	ldr	r3, [r7, #24]
 8001550:	1a9b      	subs	r3, r3, r2
 8001552:	461a      	mov	r2, r3
 8001554:	4b2a      	ldr	r3, [pc, #168]	; (8001600 <main+0x22c>)
 8001556:	601a      	str	r2, [r3, #0]

				// Send the number of bytes received
				usb_printf("%d",USBBufferPointer);
 8001558:	4b23      	ldr	r3, [pc, #140]	; (80015e8 <main+0x214>)
 800155a:	881b      	ldrh	r3, [r3, #0]
 800155c:	4619      	mov	r1, r3
 800155e:	4824      	ldr	r0, [pc, #144]	; (80015f0 <main+0x21c>)
 8001560:	f006 fbd0 	bl	8007d04 <usb_printf>

				// Send a success message and zero the related variables
				usb_printf("Message reception OK");
 8001564:	4827      	ldr	r0, [pc, #156]	; (8001604 <main+0x230>)
 8001566:	f006 fbcd 	bl	8007d04 <usb_printf>
				NumOfBytes = 1023;
 800156a:	f240 33ff 	movw	r3, #1023	; 0x3ff
 800156e:	61bb      	str	r3, [r7, #24]
				USBBufferPointer = 0;
 8001570:	4b1d      	ldr	r3, [pc, #116]	; (80015e8 <main+0x214>)
 8001572:	2200      	movs	r2, #0
 8001574:	801a      	strh	r2, [r3, #0]
				AckNumber = 0;
 8001576:	2300      	movs	r3, #0
 8001578:	617b      	str	r3, [r7, #20]
				StartTime = 0;
 800157a:	2300      	movs	r3, #0
 800157c:	61fb      	str	r3, [r7, #28]

				// Check if the metadata requires to update the initialization
				if ( ( SetupData.FrequencyStart     != PcReceptionData.FrequencyStart    ) ||
 800157e:	4b18      	ldr	r3, [pc, #96]	; (80015e0 <main+0x20c>)
 8001580:	685a      	ldr	r2, [r3, #4]
 8001582:	4b1c      	ldr	r3, [pc, #112]	; (80015f4 <main+0x220>)
 8001584:	685b      	ldr	r3, [r3, #4]
 8001586:	429a      	cmp	r2, r3
 8001588:	d119      	bne.n	80015be <main+0x1ea>
					 ( SetupData.DataRate           != PcReceptionData.DataRate          ) ||
 800158a:	4b15      	ldr	r3, [pc, #84]	; (80015e0 <main+0x20c>)
 800158c:	689a      	ldr	r2, [r3, #8]
 800158e:	4b19      	ldr	r3, [pc, #100]	; (80015f4 <main+0x220>)
 8001590:	689b      	ldr	r3, [r3, #8]
				if ( ( SetupData.FrequencyStart     != PcReceptionData.FrequencyStart    ) ||
 8001592:	429a      	cmp	r2, r3
 8001594:	d113      	bne.n	80015be <main+0x1ea>
					 ( SetupData.FrequencyDeviation != PcReceptionData.FrequencyDeviation) ||
 8001596:	4b12      	ldr	r3, [pc, #72]	; (80015e0 <main+0x20c>)
 8001598:	68da      	ldr	r2, [r3, #12]
 800159a:	4b16      	ldr	r3, [pc, #88]	; (80015f4 <main+0x220>)
 800159c:	68db      	ldr	r3, [r3, #12]
					 ( SetupData.DataRate           != PcReceptionData.DataRate          ) ||
 800159e:	429a      	cmp	r2, r3
 80015a0:	d10d      	bne.n	80015be <main+0x1ea>
					 ( SetupData.GaussianMode       != PcReceptionData.GaussianMode      ) ||
 80015a2:	4b0f      	ldr	r3, [pc, #60]	; (80015e0 <main+0x20c>)
 80015a4:	7c1a      	ldrb	r2, [r3, #16]
 80015a6:	4b13      	ldr	r3, [pc, #76]	; (80015f4 <main+0x220>)
 80015a8:	7c1b      	ldrb	r3, [r3, #16]
					 ( SetupData.FrequencyDeviation != PcReceptionData.FrequencyDeviation) ||
 80015aa:	429a      	cmp	r2, r3
 80015ac:	d107      	bne.n	80015be <main+0x1ea>
					 ( SetupData.Power              != PcReceptionData.Power             ) )
 80015ae:	4b0c      	ldr	r3, [pc, #48]	; (80015e0 <main+0x20c>)
 80015b0:	f993 2011 	ldrsb.w	r2, [r3, #17]
 80015b4:	4b0f      	ldr	r3, [pc, #60]	; (80015f4 <main+0x220>)
 80015b6:	f993 3011 	ldrsb.w	r3, [r3, #17]
					 ( SetupData.GaussianMode       != PcReceptionData.GaussianMode      ) ||
 80015ba:	429a      	cmp	r2, r3
 80015bc:	d03c      	beq.n	8001638 <main+0x264>
				{
					SX127xReset();
 80015be:	f7ff fa4d 	bl	8000a5c <SX127xReset>
					SX127xFSK_INT(PcReceptionData);
 80015c2:	4b0c      	ldr	r3, [pc, #48]	; (80015f4 <main+0x220>)
 80015c4:	691a      	ldr	r2, [r3, #16]
 80015c6:	9200      	str	r2, [sp, #0]
 80015c8:	cb0f      	ldmia	r3, {r0, r1, r2, r3}
 80015ca:	f7ff fc1d 	bl	8000e08 <SX127xFSK_INT>
					SetupData = PcReceptionData;
 80015ce:	4a04      	ldr	r2, [pc, #16]	; (80015e0 <main+0x20c>)
 80015d0:	4b08      	ldr	r3, [pc, #32]	; (80015f4 <main+0x220>)
 80015d2:	4614      	mov	r4, r2
 80015d4:	461d      	mov	r5, r3
 80015d6:	cd0f      	ldmia	r5!, {r0, r1, r2, r3}
 80015d8:	c40f      	stmia	r4!, {r0, r1, r2, r3}
 80015da:	682b      	ldr	r3, [r5, #0]
 80015dc:	6023      	str	r3, [r4, #0]
 80015de:	e02b      	b.n	8001638 <main+0x264>
 80015e0:	20000ac4 	.word	0x20000ac4
 80015e4:	18148d00 	.word	0x18148d00
 80015e8:	200006b8 	.word	0x200006b8
 80015ec:	200002b8 	.word	0x200002b8
 80015f0:	08008e2c 	.word	0x08008e2c
 80015f4:	20000ad8 	.word	0x20000ad8
 80015f8:	20000000 	.word	0x20000000
 80015fc:	200006bc 	.word	0x200006bc
 8001600:	20000abc 	.word	0x20000abc
 8001604:	08008e30 	.word	0x08008e30
				}
			}
			// else, if no valid messages were received in the designated timeframe, fail the reception
			else if (HAL_GetTick() - StartTime > MaximumTicksPerMessage)
 8001608:	f000 fa70 	bl	8001aec <HAL_GetTick>
 800160c:	4602      	mov	r2, r0
 800160e:	69fb      	ldr	r3, [r7, #28]
 8001610:	1ad3      	subs	r3, r2, r3
 8001612:	68fa      	ldr	r2, [r7, #12]
 8001614:	429a      	cmp	r2, r3
 8001616:	d20f      	bcs.n	8001638 <main+0x264>
			{
				// Send a failure message and zero the related variables
				usb_printf("Message reception failed");
 8001618:	4843      	ldr	r0, [pc, #268]	; (8001728 <main+0x354>)
 800161a:	f006 fb73 	bl	8007d04 <usb_printf>
				NumOfBytes = 1023;
 800161e:	f240 33ff 	movw	r3, #1023	; 0x3ff
 8001622:	61bb      	str	r3, [r7, #24]
				USBBufferPointer = 0;
 8001624:	4b41      	ldr	r3, [pc, #260]	; (800172c <main+0x358>)
 8001626:	2200      	movs	r2, #0
 8001628:	801a      	strh	r2, [r3, #0]
				AckNumber = 0;
 800162a:	2300      	movs	r3, #0
 800162c:	617b      	str	r3, [r7, #20]
				StartTime = 0;
 800162e:	2300      	movs	r3, #0
 8001630:	61fb      	str	r3, [r7, #28]
				TxDataSize = 0;
 8001632:	4b3f      	ldr	r3, [pc, #252]	; (8001730 <main+0x35c>)
 8001634:	2200      	movs	r2, #0
 8001636:	601a      	str	r2, [r3, #0]
		}

		// Transmission management

		// Check if this is the beginning of the transmission
		if ((TxBufferPointer == 0) && (TxDataSize > 0))
 8001638:	4b3e      	ldr	r3, [pc, #248]	; (8001734 <main+0x360>)
 800163a:	681b      	ldr	r3, [r3, #0]
 800163c:	2b00      	cmp	r3, #0
 800163e:	d108      	bne.n	8001652 <main+0x27e>
 8001640:	4b3b      	ldr	r3, [pc, #236]	; (8001730 <main+0x35c>)
 8001642:	681b      	ldr	r3, [r3, #0]
 8001644:	2b00      	cmp	r3, #0
 8001646:	d004      	beq.n	8001652 <main+0x27e>
		{
			// Set payload length
			SX127xFSKSetPayloadLength(TxDataSize);
 8001648:	4b39      	ldr	r3, [pc, #228]	; (8001730 <main+0x35c>)
 800164a:	681b      	ldr	r3, [r3, #0]
 800164c:	4618      	mov	r0, r3
 800164e:	f7ff fc23 	bl	8000e98 <SX127xFSKSetPayloadLength>
		}

		// Check if there is data to send to the FIFO
		if (TxBufferPointer < TxDataSize)
 8001652:	4b38      	ldr	r3, [pc, #224]	; (8001734 <main+0x360>)
 8001654:	681a      	ldr	r2, [r3, #0]
 8001656:	4b36      	ldr	r3, [pc, #216]	; (8001730 <main+0x35c>)
 8001658:	681b      	ldr	r3, [r3, #0]
 800165a:	429a      	cmp	r2, r3
 800165c:	d25d      	bcs.n	800171a <main+0x346>
		{
			// Turn LED On
			HAL_GPIO_WritePin(GPIOB, GPIO_PIN_8, GPIO_PIN_SET);
 800165e:	2201      	movs	r2, #1
 8001660:	f44f 7180 	mov.w	r1, #256	; 0x100
 8001664:	4834      	ldr	r0, [pc, #208]	; (8001738 <main+0x364>)
 8001666:	f000 fcfb 	bl	8002060 <HAL_GPIO_WritePin>

			// Check if there's more data to be sent than the FIFO can accept
			if ((TxDataSize - TxBufferPointer) > FIFO_DATA_CHUNKS )
 800166a:	4b31      	ldr	r3, [pc, #196]	; (8001730 <main+0x35c>)
 800166c:	681a      	ldr	r2, [r3, #0]
 800166e:	4b31      	ldr	r3, [pc, #196]	; (8001734 <main+0x360>)
 8001670:	681b      	ldr	r3, [r3, #0]
 8001672:	1ad3      	subs	r3, r2, r3
 8001674:	2b20      	cmp	r3, #32
 8001676:	d90d      	bls.n	8001694 <main+0x2c0>
			{
				// Send a data chunk to the FIFO
				FUN_RF_SENDPACKET(&(TxBuffer[TxBufferPointer]),FIFO_DATA_CHUNKS);
 8001678:	4b2e      	ldr	r3, [pc, #184]	; (8001734 <main+0x360>)
 800167a:	681b      	ldr	r3, [r3, #0]
 800167c:	4a2f      	ldr	r2, [pc, #188]	; (800173c <main+0x368>)
 800167e:	4413      	add	r3, r2
 8001680:	2120      	movs	r1, #32
 8001682:	4618      	mov	r0, r3
 8001684:	f7ff fc36 	bl	8000ef4 <FUN_RF_SENDPACKET>
				TxBufferPointer += FIFO_DATA_CHUNKS;
 8001688:	4b2a      	ldr	r3, [pc, #168]	; (8001734 <main+0x360>)
 800168a:	681b      	ldr	r3, [r3, #0]
 800168c:	3320      	adds	r3, #32
 800168e:	4a29      	ldr	r2, [pc, #164]	; (8001734 <main+0x360>)
 8001690:	6013      	str	r3, [r2, #0]
 8001692:	e042      	b.n	800171a <main+0x346>
			}
			else
			{
				// Send the rest of the data to the FIFO
				unsigned int Remaining_Data = TxDataSize - TxBufferPointer;
 8001694:	4b26      	ldr	r3, [pc, #152]	; (8001730 <main+0x35c>)
 8001696:	681a      	ldr	r2, [r3, #0]
 8001698:	4b26      	ldr	r3, [pc, #152]	; (8001734 <main+0x360>)
 800169a:	681b      	ldr	r3, [r3, #0]
 800169c:	1ad3      	subs	r3, r2, r3
 800169e:	60bb      	str	r3, [r7, #8]
				unsigned char LEN = Remaining_Data>>0;
 80016a0:	68bb      	ldr	r3, [r7, #8]
 80016a2:	71fb      	strb	r3, [r7, #7]
				FUN_RF_SENDPACKET(&(TxBuffer[TxBufferPointer]),LEN);
 80016a4:	4b23      	ldr	r3, [pc, #140]	; (8001734 <main+0x360>)
 80016a6:	681b      	ldr	r3, [r3, #0]
 80016a8:	4a24      	ldr	r2, [pc, #144]	; (800173c <main+0x368>)
 80016aa:	4413      	add	r3, r2
 80016ac:	79fa      	ldrb	r2, [r7, #7]
 80016ae:	4611      	mov	r1, r2
 80016b0:	4618      	mov	r0, r3
 80016b2:	f7ff fc1f 	bl	8000ef4 <FUN_RF_SENDPACKET>
				TxBufferPointer = TxDataSize;
 80016b6:	4b1e      	ldr	r3, [pc, #120]	; (8001730 <main+0x35c>)
 80016b8:	681b      	ldr	r3, [r3, #0]
 80016ba:	4a1e      	ldr	r2, [pc, #120]	; (8001734 <main+0x360>)
 80016bc:	6013      	str	r3, [r2, #0]
			}
		}

		while(TxDataSize > 0)
 80016be:	e02c      	b.n	800171a <main+0x346>
		{
			// Read interrupts register numbere 2
			Irq_flag_RX = SX127xReadBuffer( REG_FS_IRQFLAGS2 );
 80016c0:	203f      	movs	r0, #63	; 0x3f
 80016c2:	f7ff f9a9 	bl	8000a18 <SX127xReadBuffer>
 80016c6:	4603      	mov	r3, r0
 80016c8:	74fb      	strb	r3, [r7, #19]

			// Check if the transmission is over
			if((Irq_flag_RX & FS_IRQN_TXD_Value) == FS_IRQN_TXD_Value)
 80016ca:	7cfb      	ldrb	r3, [r7, #19]
 80016cc:	f003 0308 	and.w	r3, r3, #8
 80016d0:	2b00      	cmp	r3, #0
 80016d2:	d017      	beq.n	8001704 <main+0x330>
			  {
				// Set the transceiver to stdby mode
				SX127xFSKSetOpMode( Stdby_mode );
 80016d4:	2001      	movs	r0, #1
 80016d6:	f7ff f9d9 	bl	8000a8c <SX127xFSKSetOpMode>
				SX127xWriteBuffer( REG_FS_DIOMAPPING1, 0X00 );
 80016da:	2100      	movs	r1, #0
 80016dc:	2040      	movs	r0, #64	; 0x40
 80016de:	f7ff f977 	bl	80009d0 <SX127xWriteBuffer>
				SX127xWriteBuffer( REG_FS_DIOMAPPING2, 0x00 );
 80016e2:	2100      	movs	r1, #0
 80016e4:	2041      	movs	r0, #65	; 0x41
 80016e6:	f7ff f973 	bl	80009d0 <SX127xWriteBuffer>

				// Turn LED Off
				HAL_GPIO_WritePin(GPIOB, GPIO_PIN_8, GPIO_PIN_RESET);
 80016ea:	2200      	movs	r2, #0
 80016ec:	f44f 7180 	mov.w	r1, #256	; 0x100
 80016f0:	4811      	ldr	r0, [pc, #68]	; (8001738 <main+0x364>)
 80016f2:	f000 fcb5 	bl	8002060 <HAL_GPIO_WritePin>

				// Clear relevant parameters
				TxBufferPointer = 0;
 80016f6:	4b0f      	ldr	r3, [pc, #60]	; (8001734 <main+0x360>)
 80016f8:	2200      	movs	r2, #0
 80016fa:	601a      	str	r2, [r3, #0]
				TxDataSize = 0;
 80016fc:	4b0c      	ldr	r3, [pc, #48]	; (8001730 <main+0x35c>)
 80016fe:	2200      	movs	r2, #0
 8001700:	601a      	str	r2, [r3, #0]

				// Exit the inner while loop
				break;
 8001702:	e010      	b.n	8001726 <main+0x352>
				}
			// Else, check if the FIFO can be loaded with another data chunk and that there's data to send
			else if (((Irq_flag_RX & FS_IRQN_FIFO_LEVEL_Value) == 0) && (TxBufferPointer < TxDataSize))
 8001704:	7cfb      	ldrb	r3, [r7, #19]
 8001706:	f003 0320 	and.w	r3, r3, #32
 800170a:	2b00      	cmp	r3, #0
 800170c:	d105      	bne.n	800171a <main+0x346>
 800170e:	4b09      	ldr	r3, [pc, #36]	; (8001734 <main+0x360>)
 8001710:	681a      	ldr	r2, [r3, #0]
 8001712:	4b07      	ldr	r3, [pc, #28]	; (8001730 <main+0x35c>)
 8001714:	681b      	ldr	r3, [r3, #0]
 8001716:	429a      	cmp	r2, r3
 8001718:	d304      	bcc.n	8001724 <main+0x350>
		while(TxDataSize > 0)
 800171a:	4b05      	ldr	r3, [pc, #20]	; (8001730 <main+0x35c>)
 800171c:	681b      	ldr	r3, [r3, #0]
 800171e:	2b00      	cmp	r3, #0
 8001720:	d1ce      	bne.n	80016c0 <main+0x2ec>
 8001722:	e687      	b.n	8001434 <main+0x60>
			{
				// Exit the inner while loop
				break;
 8001724:	bf00      	nop
		if (USBBufferPointer > 0)
 8001726:	e685      	b.n	8001434 <main+0x60>
 8001728:	08008e48 	.word	0x08008e48
 800172c:	200006b8 	.word	0x200006b8
 8001730:	20000abc 	.word	0x20000abc
 8001734:	20000ac0 	.word	0x20000ac0
 8001738:	40020400 	.word	0x40020400
 800173c:	200006bc 	.word	0x200006bc

08001740 <HAL_MspInit>:
 8001740:	b480      	push	{r7}
 8001742:	b085      	sub	sp, #20
 8001744:	af00      	add	r7, sp, #0
 8001746:	4b14      	ldr	r3, [pc, #80]	; (8001798 <HAL_MspInit+0x58>)
 8001748:	6a5b      	ldr	r3, [r3, #36]	; 0x24
 800174a:	4a13      	ldr	r2, [pc, #76]	; (8001798 <HAL_MspInit+0x58>)
 800174c:	f043 4300 	orr.w	r3, r3, #2147483648	; 0x80000000
 8001750:	6253      	str	r3, [r2, #36]	; 0x24
 8001752:	4b11      	ldr	r3, [pc, #68]	; (8001798 <HAL_MspInit+0x58>)
 8001754:	6a5b      	ldr	r3, [r3, #36]	; 0x24
 8001756:	f003 4300 	and.w	r3, r3, #2147483648	; 0x80000000
 800175a:	60fb      	str	r3, [r7, #12]
 800175c:	68fb      	ldr	r3, [r7, #12]
 800175e:	4b0e      	ldr	r3, [pc, #56]	; (8001798 <HAL_MspInit+0x58>)
 8001760:	6a1b      	ldr	r3, [r3, #32]
 8001762:	4a0d      	ldr	r2, [pc, #52]	; (8001798 <HAL_MspInit+0x58>)
 8001764:	f043 0301 	orr.w	r3, r3, #1
 8001768:	6213      	str	r3, [r2, #32]
 800176a:	4b0b      	ldr	r3, [pc, #44]	; (8001798 <HAL_MspInit+0x58>)
 800176c:	6a1b      	ldr	r3, [r3, #32]
 800176e:	f003 0301 	and.w	r3, r3, #1
 8001772:	60bb      	str	r3, [r7, #8]
 8001774:	68bb      	ldr	r3, [r7, #8]
 8001776:	4b08      	ldr	r3, [pc, #32]	; (8001798 <HAL_MspInit+0x58>)
 8001778:	6a5b      	ldr	r3, [r3, #36]	; 0x24
 800177a:	4a07      	ldr	r2, [pc, #28]	; (8001798 <HAL_MspInit+0x58>)
 800177c:	f043 5380 	orr.w	r3, r3, #268435456	; 0x10000000
 8001780:	6253      	str	r3, [r2, #36]	; 0x24
 8001782:	4b05      	ldr	r3, [pc, #20]	; (8001798 <HAL_MspInit+0x58>)
 8001784:	6a5b      	ldr	r3, [r3, #36]	; 0x24
 8001786:	f003 5380 	and.w	r3, r3, #268435456	; 0x10000000
 800178a:	607b      	str	r3, [r7, #4]
 800178c:	687b      	ldr	r3, [r7, #4]
 800178e:	bf00      	nop
 8001790:	3714      	adds	r7, #20
 8001792:	46bd      	mov	sp, r7
 8001794:	bc80      	pop	{r7}
 8001796:	4770      	bx	lr
 8001798:	40023800 	.word	0x40023800

0800179c <HAL_RTC_MspInit>:
 800179c:	b480      	push	{r7}
 800179e:	b083      	sub	sp, #12
 80017a0:	af00      	add	r7, sp, #0
 80017a2:	6078      	str	r0, [r7, #4]
 80017a4:	687b      	ldr	r3, [r7, #4]
 80017a6:	681b      	ldr	r3, [r3, #0]
 80017a8:	4a05      	ldr	r2, [pc, #20]	; (80017c0 <HAL_RTC_MspInit+0x24>)
 80017aa:	4293      	cmp	r3, r2
 80017ac:	d102      	bne.n	80017b4 <HAL_RTC_MspInit+0x18>
 80017ae:	4b05      	ldr	r3, [pc, #20]	; (80017c4 <HAL_RTC_MspInit+0x28>)
 80017b0:	2201      	movs	r2, #1
 80017b2:	601a      	str	r2, [r3, #0]
 80017b4:	bf00      	nop
 80017b6:	370c      	adds	r7, #12
 80017b8:	46bd      	mov	sp, r7
 80017ba:	bc80      	pop	{r7}
 80017bc:	4770      	bx	lr
 80017be:	bf00      	nop
 80017c0:	40002800 	.word	0x40002800
 80017c4:	424706d8 	.word	0x424706d8

080017c8 <HAL_SPI_MspInit>:
 80017c8:	b580      	push	{r7, lr}
 80017ca:	b08a      	sub	sp, #40	; 0x28
 80017cc:	af00      	add	r7, sp, #0
 80017ce:	6078      	str	r0, [r7, #4]
 80017d0:	f107 0314 	add.w	r3, r7, #20
 80017d4:	2200      	movs	r2, #0
 80017d6:	601a      	str	r2, [r3, #0]
 80017d8:	605a      	str	r2, [r3, #4]
 80017da:	609a      	str	r2, [r3, #8]
 80017dc:	60da      	str	r2, [r3, #12]
 80017de:	611a      	str	r2, [r3, #16]
 80017e0:	687b      	ldr	r3, [r7, #4]
 80017e2:	681b      	ldr	r3, [r3, #0]
 80017e4:	4a17      	ldr	r2, [pc, #92]	; (8001844 <HAL_SPI_MspInit+0x7c>)
 80017e6:	4293      	cmp	r3, r2
 80017e8:	d127      	bne.n	800183a <HAL_SPI_MspInit+0x72>
 80017ea:	4b17      	ldr	r3, [pc, #92]	; (8001848 <HAL_SPI_MspInit+0x80>)
 80017ec:	6a1b      	ldr	r3, [r3, #32]
 80017ee:	4a16      	ldr	r2, [pc, #88]	; (8001848 <HAL_SPI_MspInit+0x80>)
 80017f0:	f443 5380 	orr.w	r3, r3, #4096	; 0x1000
 80017f4:	6213      	str	r3, [r2, #32]
 80017f6:	4b14      	ldr	r3, [pc, #80]	; (8001848 <HAL_SPI_MspInit+0x80>)
 80017f8:	6a1b      	ldr	r3, [r3, #32]
 80017fa:	f403 5380 	and.w	r3, r3, #4096	; 0x1000
 80017fe:	613b      	str	r3, [r7, #16]
 8001800:	693b      	ldr	r3, [r7, #16]
 8001802:	4b11      	ldr	r3, [pc, #68]	; (8001848 <HAL_SPI_MspInit+0x80>)
 8001804:	69db      	ldr	r3, [r3, #28]
 8001806:	4a10      	ldr	r2, [pc, #64]	; (8001848 <HAL_SPI_MspInit+0x80>)
 8001808:	f043 0301 	orr.w	r3, r3, #1
 800180c:	61d3      	str	r3, [r2, #28]
 800180e:	4b0e      	ldr	r3, [pc, #56]	; (8001848 <HAL_SPI_MspInit+0x80>)
 8001810:	69db      	ldr	r3, [r3, #28]
 8001812:	f003 0301 	and.w	r3, r3, #1
 8001816:	60fb      	str	r3, [r7, #12]
 8001818:	68fb      	ldr	r3, [r7, #12]
 800181a:	23e0      	movs	r3, #224	; 0xe0
 800181c:	617b      	str	r3, [r7, #20]
 800181e:	2302      	movs	r3, #2
 8001820:	61bb      	str	r3, [r7, #24]
 8001822:	2300      	movs	r3, #0
 8001824:	61fb      	str	r3, [r7, #28]
 8001826:	2303      	movs	r3, #3
 8001828:	623b      	str	r3, [r7, #32]
 800182a:	2305      	movs	r3, #5
 800182c:	627b      	str	r3, [r7, #36]	; 0x24
 800182e:	f107 0314 	add.w	r3, r7, #20
 8001832:	4619      	mov	r1, r3
 8001834:	4805      	ldr	r0, [pc, #20]	; (800184c <HAL_SPI_MspInit+0x84>)
 8001836:	f000 fa93 	bl	8001d60 <HAL_GPIO_Init>
 800183a:	bf00      	nop
 800183c:	3728      	adds	r7, #40	; 0x28
 800183e:	46bd      	mov	sp, r7
 8001840:	bd80      	pop	{r7, pc}
 8001842:	bf00      	nop
 8001844:	40013000 	.word	0x40013000
 8001848:	40023800 	.word	0x40023800
 800184c:	40020000 	.word	0x40020000

08001850 <HAL_TIM_Base_MspInit>:
 8001850:	b580      	push	{r7, lr}
 8001852:	b084      	sub	sp, #16
 8001854:	af00      	add	r7, sp, #0
 8001856:	6078      	str	r0, [r7, #4]
 8001858:	687b      	ldr	r3, [r7, #4]
 800185a:	681b      	ldr	r3, [r3, #0]
 800185c:	4a0d      	ldr	r2, [pc, #52]	; (8001894 <HAL_TIM_Base_MspInit+0x44>)
 800185e:	4293      	cmp	r3, r2
 8001860:	d113      	bne.n	800188a <HAL_TIM_Base_MspInit+0x3a>
 8001862:	4b0d      	ldr	r3, [pc, #52]	; (8001898 <HAL_TIM_Base_MspInit+0x48>)
 8001864:	6a5b      	ldr	r3, [r3, #36]	; 0x24
 8001866:	4a0c      	ldr	r2, [pc, #48]	; (8001898 <HAL_TIM_Base_MspInit+0x48>)
 8001868:	f043 0304 	orr.w	r3, r3, #4
 800186c:	6253      	str	r3, [r2, #36]	; 0x24
 800186e:	4b0a      	ldr	r3, [pc, #40]	; (8001898 <HAL_TIM_Base_MspInit+0x48>)
 8001870:	6a5b      	ldr	r3, [r3, #36]	; 0x24
 8001872:	f003 0304 	and.w	r3, r3, #4
 8001876:	60fb      	str	r3, [r7, #12]
 8001878:	68fb      	ldr	r3, [r7, #12]
 800187a:	2200      	movs	r2, #0
 800187c:	2102      	movs	r1, #2
 800187e:	201e      	movs	r0, #30
 8001880:	f000 fa37 	bl	8001cf2 <HAL_NVIC_SetPriority>
 8001884:	201e      	movs	r0, #30
 8001886:	f000 fa50 	bl	8001d2a <HAL_NVIC_EnableIRQ>
 800188a:	bf00      	nop
 800188c:	3710      	adds	r7, #16
 800188e:	46bd      	mov	sp, r7
 8001890:	bd80      	pop	{r7, pc}
 8001892:	bf00      	nop
 8001894:	40000800 	.word	0x40000800
 8001898:	40023800 	.word	0x40023800

0800189c <NMI_Handler>:
 800189c:	b480      	push	{r7}
 800189e:	af00      	add	r7, sp, #0
 80018a0:	bf00      	nop
 80018a2:	46bd      	mov	sp, r7
 80018a4:	bc80      	pop	{r7}
 80018a6:	4770      	bx	lr

080018a8 <HardFault_Handler>:
 80018a8:	b480      	push	{r7}
 80018aa:	af00      	add	r7, sp, #0
 80018ac:	e7fe      	b.n	80018ac <HardFault_Handler+0x4>

080018ae <MemManage_Handler>:
 80018ae:	b480      	push	{r7}
 80018b0:	af00      	add	r7, sp, #0
 80018b2:	e7fe      	b.n	80018b2 <MemManage_Handler+0x4>

080018b4 <BusFault_Handler>:
 80018b4:	b480      	push	{r7}
 80018b6:	af00      	add	r7, sp, #0
 80018b8:	e7fe      	b.n	80018b8 <BusFault_Handler+0x4>

080018ba <UsageFault_Handler>:
 80018ba:	b480      	push	{r7}
 80018bc:	af00      	add	r7, sp, #0
 80018be:	e7fe      	b.n	80018be <UsageFault_Handler+0x4>

080018c0 <SVC_Handler>:
 80018c0:	b480      	push	{r7}
 80018c2:	af00      	add	r7, sp, #0
 80018c4:	bf00      	nop
 80018c6:	46bd      	mov	sp, r7
 80018c8:	bc80      	pop	{r7}
 80018ca:	4770      	bx	lr

080018cc <DebugMon_Handler>:
 80018cc:	b480      	push	{r7}
 80018ce:	af00      	add	r7, sp, #0
 80018d0:	bf00      	nop
 80018d2:	46bd      	mov	sp, r7
 80018d4:	bc80      	pop	{r7}
 80018d6:	4770      	bx	lr

080018d8 <PendSV_Handler>:
 80018d8:	b480      	push	{r7}
 80018da:	af00      	add	r7, sp, #0
 80018dc:	bf00      	nop
 80018de:	46bd      	mov	sp, r7
 80018e0:	bc80      	pop	{r7}
 80018e2:	4770      	bx	lr

080018e4 <SysTick_Handler>:
 80018e4:	b580      	push	{r7, lr}
 80018e6:	af00      	add	r7, sp, #0
 80018e8:	f000 f8ee 	bl	8001ac8 <HAL_IncTick>
 80018ec:	bf00      	nop
 80018ee:	bd80      	pop	{r7, pc}

080018f0 <USB_LP_IRQHandler>:
 80018f0:	b580      	push	{r7, lr}
 80018f2:	af00      	add	r7, sp, #0
 80018f4:	4802      	ldr	r0, [pc, #8]	; (8001900 <USB_LP_IRQHandler+0x10>)
 80018f6:	f000 fca5 	bl	8002244 <HAL_PCD_IRQHandler>
 80018fa:	bf00      	nop
 80018fc:	bd80      	pop	{r7, pc}
 80018fe:	bf00      	nop
 8001900:	20001768 	.word	0x20001768

08001904 <TIM4_IRQHandler>:
 8001904:	b580      	push	{r7, lr}
 8001906:	af00      	add	r7, sp, #0
 8001908:	4802      	ldr	r0, [pc, #8]	; (8001914 <TIM4_IRQHandler+0x10>)
 800190a:	f003 f9d9 	bl	8004cc0 <HAL_TIM_IRQHandler>
 800190e:	bf00      	nop
 8001910:	bd80      	pop	{r7, pc}
 8001912:	bf00      	nop
 8001914:	2000027c 	.word	0x2000027c

08001918 <_sbrk>:
 8001918:	b580      	push	{r7, lr}
 800191a:	b084      	sub	sp, #16
 800191c:	af00      	add	r7, sp, #0
 800191e:	6078      	str	r0, [r7, #4]
 8001920:	4b11      	ldr	r3, [pc, #68]	; (8001968 <_sbrk+0x50>)
 8001922:	681b      	ldr	r3, [r3, #0]
 8001924:	2b00      	cmp	r3, #0
 8001926:	d102      	bne.n	800192e <_sbrk+0x16>
 8001928:	4b0f      	ldr	r3, [pc, #60]	; (8001968 <_sbrk+0x50>)
 800192a:	4a10      	ldr	r2, [pc, #64]	; (800196c <_sbrk+0x54>)
 800192c:	601a      	str	r2, [r3, #0]
 800192e:	4b0e      	ldr	r3, [pc, #56]	; (8001968 <_sbrk+0x50>)
 8001930:	681b      	ldr	r3, [r3, #0]
 8001932:	60fb      	str	r3, [r7, #12]
 8001934:	4b0c      	ldr	r3, [pc, #48]	; (8001968 <_sbrk+0x50>)
 8001936:	681a      	ldr	r2, [r3, #0]
 8001938:	687b      	ldr	r3, [r7, #4]
 800193a:	4413      	add	r3, r2
 800193c:	466a      	mov	r2, sp
 800193e:	4293      	cmp	r3, r2
 8001940:	d907      	bls.n	8001952 <_sbrk+0x3a>
 8001942:	f006 fda1 	bl	8008488 <__errno>
 8001946:	4603      	mov	r3, r0
 8001948:	220c      	movs	r2, #12
 800194a:	601a      	str	r2, [r3, #0]
 800194c:	f04f 33ff 	mov.w	r3, #4294967295
 8001950:	e006      	b.n	8001960 <_sbrk+0x48>
 8001952:	4b05      	ldr	r3, [pc, #20]	; (8001968 <_sbrk+0x50>)
 8001954:	681a      	ldr	r2, [r3, #0]
 8001956:	687b      	ldr	r3, [r7, #4]
 8001958:	4413      	add	r3, r2
 800195a:	4a03      	ldr	r2, [pc, #12]	; (8001968 <_sbrk+0x50>)
 800195c:	6013      	str	r3, [r2, #0]
 800195e:	68fb      	ldr	r3, [r7, #12]
 8001960:	4618      	mov	r0, r3
 8001962:	3710      	adds	r7, #16
 8001964:	46bd      	mov	sp, r7
 8001966:	bd80      	pop	{r7, pc}
 8001968:	20000af0 	.word	0x20000af0
 800196c:	20001c08 	.word	0x20001c08

08001970 <SystemInit>:
 8001970:	b480      	push	{r7}
 8001972:	af00      	add	r7, sp, #0
 8001974:	4b15      	ldr	r3, [pc, #84]	; (80019cc <SystemInit+0x5c>)
 8001976:	681b      	ldr	r3, [r3, #0]
 8001978:	4a14      	ldr	r2, [pc, #80]	; (80019cc <SystemInit+0x5c>)
 800197a:	f443 7380 	orr.w	r3, r3, #256	; 0x100
 800197e:	6013      	str	r3, [r2, #0]
 8001980:	4b12      	ldr	r3, [pc, #72]	; (80019cc <SystemInit+0x5c>)
 8001982:	689a      	ldr	r2, [r3, #8]
 8001984:	4911      	ldr	r1, [pc, #68]	; (80019cc <SystemInit+0x5c>)
 8001986:	4b12      	ldr	r3, [pc, #72]	; (80019d0 <SystemInit+0x60>)
 8001988:	4013      	ands	r3, r2
 800198a:	608b      	str	r3, [r1, #8]
 800198c:	4b0f      	ldr	r3, [pc, #60]	; (80019cc <SystemInit+0x5c>)
 800198e:	681b      	ldr	r3, [r3, #0]
 8001990:	4a0e      	ldr	r2, [pc, #56]	; (80019cc <SystemInit+0x5c>)
 8001992:	f023 5388 	bic.w	r3, r3, #285212672	; 0x11000000
 8001996:	f023 1301 	bic.w	r3, r3, #65537	; 0x10001
 800199a:	6013      	str	r3, [r2, #0]
 800199c:	4b0b      	ldr	r3, [pc, #44]	; (80019cc <SystemInit+0x5c>)
 800199e:	681b      	ldr	r3, [r3, #0]
 80019a0:	4a0a      	ldr	r2, [pc, #40]	; (80019cc <SystemInit+0x5c>)
 80019a2:	f423 2380 	bic.w	r3, r3, #262144	; 0x40000
 80019a6:	6013      	str	r3, [r2, #0]
 80019a8:	4b08      	ldr	r3, [pc, #32]	; (80019cc <SystemInit+0x5c>)
 80019aa:	689b      	ldr	r3, [r3, #8]
 80019ac:	4a07      	ldr	r2, [pc, #28]	; (80019cc <SystemInit+0x5c>)
 80019ae:	f423 037d 	bic.w	r3, r3, #16580608	; 0xfd0000
 80019b2:	6093      	str	r3, [r2, #8]
 80019b4:	4b05      	ldr	r3, [pc, #20]	; (80019cc <SystemInit+0x5c>)
 80019b6:	2200      	movs	r2, #0
 80019b8:	60da      	str	r2, [r3, #12]
 80019ba:	4b06      	ldr	r3, [pc, #24]	; (80019d4 <SystemInit+0x64>)
 80019bc:	f04f 6200 	mov.w	r2, #134217728	; 0x8000000
 80019c0:	609a      	str	r2, [r3, #8]
 80019c2:	bf00      	nop
 80019c4:	46bd      	mov	sp, r7
 80019c6:	bc80      	pop	{r7}
 80019c8:	4770      	bx	lr
 80019ca:	bf00      	nop
 80019cc:	40023800 	.word	0x40023800
 80019d0:	88ffc00c 	.word	0x88ffc00c
 80019d4:	e000ed00 	.word	0xe000ed00

080019d8 <Reset_Handler>:
 80019d8:	2100      	movs	r1, #0
 80019da:	e003      	b.n	80019e4 <LoopCopyDataInit>

080019dc <CopyDataInit>:
 80019dc:	4b0b      	ldr	r3, [pc, #44]	; (8001a0c <LoopFillZerobss+0x14>)
 80019de:	585b      	ldr	r3, [r3, r1]
 80019e0:	5043      	str	r3, [r0, r1]
 80019e2:	3104      	adds	r1, #4

080019e4 <LoopCopyDataInit>:
 80019e4:	480a      	ldr	r0, [pc, #40]	; (8001a10 <LoopFillZerobss+0x18>)
 80019e6:	4b0b      	ldr	r3, [pc, #44]	; (8001a14 <LoopFillZerobss+0x1c>)
 80019e8:	1842      	adds	r2, r0, r1
 80019ea:	429a      	cmp	r2, r3
 80019ec:	d3f6      	bcc.n	80019dc <CopyDataInit>
 80019ee:	4a0a      	ldr	r2, [pc, #40]	; (8001a18 <LoopFillZerobss+0x20>)
 80019f0:	e002      	b.n	80019f8 <LoopFillZerobss>

080019f2 <FillZerobss>:
 80019f2:	2300      	movs	r3, #0
 80019f4:	f842 3b04 	str.w	r3, [r2], #4

080019f8 <LoopFillZerobss>:
 80019f8:	4b08      	ldr	r3, [pc, #32]	; (8001a1c <LoopFillZerobss+0x24>)
 80019fa:	429a      	cmp	r2, r3
 80019fc:	d3f9      	bcc.n	80019f2 <FillZerobss>
 80019fe:	f7ff ffb7 	bl	8001970 <SystemInit>
 8001a02:	f006 fd47 	bl	8008494 <__libc_init_array>
 8001a06:	f7ff fce5 	bl	80013d4 <main>
 8001a0a:	4770      	bx	lr
 8001a0c:	08008f04 	.word	0x08008f04
 8001a10:	20000000 	.word	0x20000000
 8001a14:	200001e4 	.word	0x200001e4
 8001a18:	200001e4 	.word	0x200001e4
 8001a1c:	20001c04 	.word	0x20001c04

08001a20 <ADC1_IRQHandler>:
 8001a20:	e7fe      	b.n	8001a20 <ADC1_IRQHandler>

08001a22 <HAL_Init>:
 8001a22:	b580      	push	{r7, lr}
 8001a24:	b082      	sub	sp, #8
 8001a26:	af00      	add	r7, sp, #0
 8001a28:	2300      	movs	r3, #0
 8001a2a:	71fb      	strb	r3, [r7, #7]
 8001a2c:	2003      	movs	r0, #3
 8001a2e:	f000 f955 	bl	8001cdc <HAL_NVIC_SetPriorityGrouping>
 8001a32:	2000      	movs	r0, #0
 8001a34:	f000 f80e 	bl	8001a54 <HAL_InitTick>
 8001a38:	4603      	mov	r3, r0
 8001a3a:	2b00      	cmp	r3, #0
 8001a3c:	d002      	beq.n	8001a44 <HAL_Init+0x22>
 8001a3e:	2301      	movs	r3, #1
 8001a40:	71fb      	strb	r3, [r7, #7]
 8001a42:	e001      	b.n	8001a48 <HAL_Init+0x26>
 8001a44:	f7ff fe7c 	bl	8001740 <HAL_MspInit>
 8001a48:	79fb      	ldrb	r3, [r7, #7]
 8001a4a:	4618      	mov	r0, r3
 8001a4c:	3708      	adds	r7, #8
 8001a4e:	46bd      	mov	sp, r7
 8001a50:	bd80      	pop	{r7, pc}
	...

08001a54 <HAL_InitTick>:
 8001a54:	b580      	push	{r7, lr}
 8001a56:	b084      	sub	sp, #16
 8001a58:	af00      	add	r7, sp, #0
 8001a5a:	6078      	str	r0, [r7, #4]
 8001a5c:	2300      	movs	r3, #0
 8001a5e:	73fb      	strb	r3, [r7, #15]
 8001a60:	4b16      	ldr	r3, [pc, #88]	; (8001abc <HAL_InitTick+0x68>)
 8001a62:	681b      	ldr	r3, [r3, #0]
 8001a64:	2b00      	cmp	r3, #0
 8001a66:	d022      	beq.n	8001aae <HAL_InitTick+0x5a>
 8001a68:	4b15      	ldr	r3, [pc, #84]	; (8001ac0 <HAL_InitTick+0x6c>)
 8001a6a:	681a      	ldr	r2, [r3, #0]
 8001a6c:	4b13      	ldr	r3, [pc, #76]	; (8001abc <HAL_InitTick+0x68>)
 8001a6e:	681b      	ldr	r3, [r3, #0]
 8001a70:	f44f 717a 	mov.w	r1, #1000	; 0x3e8
 8001a74:	fbb1 f3f3 	udiv	r3, r1, r3
 8001a78:	fbb2 f3f3 	udiv	r3, r2, r3
 8001a7c:	4618      	mov	r0, r3
 8001a7e:	f000 f962 	bl	8001d46 <HAL_SYSTICK_Config>
 8001a82:	4603      	mov	r3, r0
 8001a84:	2b00      	cmp	r3, #0
 8001a86:	d10f      	bne.n	8001aa8 <HAL_InitTick+0x54>
 8001a88:	687b      	ldr	r3, [r7, #4]
 8001a8a:	2b0f      	cmp	r3, #15
 8001a8c:	d809      	bhi.n	8001aa2 <HAL_InitTick+0x4e>
 8001a8e:	2200      	movs	r2, #0
 8001a90:	6879      	ldr	r1, [r7, #4]
 8001a92:	f04f 30ff 	mov.w	r0, #4294967295
 8001a96:	f000 f92c 	bl	8001cf2 <HAL_NVIC_SetPriority>
 8001a9a:	4a0a      	ldr	r2, [pc, #40]	; (8001ac4 <HAL_InitTick+0x70>)
 8001a9c:	687b      	ldr	r3, [r7, #4]
 8001a9e:	6013      	str	r3, [r2, #0]
 8001aa0:	e007      	b.n	8001ab2 <HAL_InitTick+0x5e>
 8001aa2:	2301      	movs	r3, #1
 8001aa4:	73fb      	strb	r3, [r7, #15]
 8001aa6:	e004      	b.n	8001ab2 <HAL_InitTick+0x5e>
 8001aa8:	2301      	movs	r3, #1
 8001aaa:	73fb      	strb	r3, [r7, #15]
 8001aac:	e001      	b.n	8001ab2 <HAL_InitTick+0x5e>
 8001aae:	2301      	movs	r3, #1
 8001ab0:	73fb      	strb	r3, [r7, #15]
 8001ab2:	7bfb      	ldrb	r3, [r7, #15]
 8001ab4:	4618      	mov	r0, r3
 8001ab6:	3710      	adds	r7, #16
 8001ab8:	46bd      	mov	sp, r7
 8001aba:	bd80      	pop	{r7, pc}
 8001abc:	2000000c 	.word	0x2000000c
 8001ac0:	20000004 	.word	0x20000004
 8001ac4:	20000008 	.word	0x20000008

08001ac8 <HAL_IncTick>:
 8001ac8:	b480      	push	{r7}
 8001aca:	af00      	add	r7, sp, #0
 8001acc:	4b05      	ldr	r3, [pc, #20]	; (8001ae4 <HAL_IncTick+0x1c>)
 8001ace:	681a      	ldr	r2, [r3, #0]
 8001ad0:	4b05      	ldr	r3, [pc, #20]	; (8001ae8 <HAL_IncTick+0x20>)
 8001ad2:	681b      	ldr	r3, [r3, #0]
 8001ad4:	4413      	add	r3, r2
 8001ad6:	4a03      	ldr	r2, [pc, #12]	; (8001ae4 <HAL_IncTick+0x1c>)
 8001ad8:	6013      	str	r3, [r2, #0]
 8001ada:	bf00      	nop
 8001adc:	46bd      	mov	sp, r7
 8001ade:	bc80      	pop	{r7}
 8001ae0:	4770      	bx	lr
 8001ae2:	bf00      	nop
 8001ae4:	20000af4 	.word	0x20000af4
 8001ae8:	2000000c 	.word	0x2000000c

08001aec <HAL_GetTick>:
 8001aec:	b480      	push	{r7}
 8001aee:	af00      	add	r7, sp, #0
 8001af0:	4b02      	ldr	r3, [pc, #8]	; (8001afc <HAL_GetTick+0x10>)
 8001af2:	681b      	ldr	r3, [r3, #0]
 8001af4:	4618      	mov	r0, r3
 8001af6:	46bd      	mov	sp, r7
 8001af8:	bc80      	pop	{r7}
 8001afa:	4770      	bx	lr
 8001afc:	20000af4 	.word	0x20000af4

08001b00 <HAL_Delay>:
 8001b00:	b580      	push	{r7, lr}
 8001b02:	b084      	sub	sp, #16
 8001b04:	af00      	add	r7, sp, #0
 8001b06:	6078      	str	r0, [r7, #4]
 8001b08:	f7ff fff0 	bl	8001aec <HAL_GetTick>
 8001b0c:	60b8      	str	r0, [r7, #8]
 8001b0e:	687b      	ldr	r3, [r7, #4]
 8001b10:	60fb      	str	r3, [r7, #12]
 8001b12:	68fb      	ldr	r3, [r7, #12]
 8001b14:	f1b3 3fff 	cmp.w	r3, #4294967295
 8001b18:	d004      	beq.n	8001b24 <HAL_Delay+0x24>
 8001b1a:	4b09      	ldr	r3, [pc, #36]	; (8001b40 <HAL_Delay+0x40>)
 8001b1c:	681b      	ldr	r3, [r3, #0]
 8001b1e:	68fa      	ldr	r2, [r7, #12]
 8001b20:	4413      	add	r3, r2
 8001b22:	60fb      	str	r3, [r7, #12]
 8001b24:	bf00      	nop
 8001b26:	f7ff ffe1 	bl	8001aec <HAL_GetTick>
 8001b2a:	4602      	mov	r2, r0
 8001b2c:	68bb      	ldr	r3, [r7, #8]
 8001b2e:	1ad3      	subs	r3, r2, r3
 8001b30:	68fa      	ldr	r2, [r7, #12]
 8001b32:	429a      	cmp	r2, r3
 8001b34:	d8f7      	bhi.n	8001b26 <HAL_Delay+0x26>
 8001b36:	bf00      	nop
 8001b38:	bf00      	nop
 8001b3a:	3710      	adds	r7, #16
 8001b3c:	46bd      	mov	sp, r7
 8001b3e:	bd80      	pop	{r7, pc}
 8001b40:	2000000c 	.word	0x2000000c

08001b44 <__NVIC_SetPriorityGrouping>:
 8001b44:	b480      	push	{r7}
 8001b46:	b085      	sub	sp, #20
 8001b48:	af00      	add	r7, sp, #0
 8001b4a:	6078      	str	r0, [r7, #4]
 8001b4c:	687b      	ldr	r3, [r7, #4]
 8001b4e:	f003 0307 	and.w	r3, r3, #7
 8001b52:	60fb      	str	r3, [r7, #12]
 8001b54:	4b0c      	ldr	r3, [pc, #48]	; (8001b88 <__NVIC_SetPriorityGrouping+0x44>)
 8001b56:	68db      	ldr	r3, [r3, #12]
 8001b58:	60bb      	str	r3, [r7, #8]
 8001b5a:	68ba      	ldr	r2, [r7, #8]
 8001b5c:	f64f 03ff 	movw	r3, #63743	; 0xf8ff
 8001b60:	4013      	ands	r3, r2
 8001b62:	60bb      	str	r3, [r7, #8]
 8001b64:	68fb      	ldr	r3, [r7, #12]
 8001b66:	021a      	lsls	r2, r3, #8
 8001b68:	68bb      	ldr	r3, [r7, #8]
 8001b6a:	4313      	orrs	r3, r2
 8001b6c:	f043 63bf 	orr.w	r3, r3, #100139008	; 0x5f80000
 8001b70:	f443 3300 	orr.w	r3, r3, #131072	; 0x20000
 8001b74:	60bb      	str	r3, [r7, #8]
 8001b76:	4a04      	ldr	r2, [pc, #16]	; (8001b88 <__NVIC_SetPriorityGrouping+0x44>)
 8001b78:	68bb      	ldr	r3, [r7, #8]
 8001b7a:	60d3      	str	r3, [r2, #12]
 8001b7c:	bf00      	nop
 8001b7e:	3714      	adds	r7, #20
 8001b80:	46bd      	mov	sp, r7
 8001b82:	bc80      	pop	{r7}
 8001b84:	4770      	bx	lr
 8001b86:	bf00      	nop
 8001b88:	e000ed00 	.word	0xe000ed00

08001b8c <__NVIC_GetPriorityGrouping>:
 8001b8c:	b480      	push	{r7}
 8001b8e:	af00      	add	r7, sp, #0
 8001b90:	4b04      	ldr	r3, [pc, #16]	; (8001ba4 <__NVIC_GetPriorityGrouping+0x18>)
 8001b92:	68db      	ldr	r3, [r3, #12]
 8001b94:	0a1b      	lsrs	r3, r3, #8
 8001b96:	f003 0307 	and.w	r3, r3, #7
 8001b9a:	4618      	mov	r0, r3
 8001b9c:	46bd      	mov	sp, r7
 8001b9e:	bc80      	pop	{r7}
 8001ba0:	4770      	bx	lr
 8001ba2:	bf00      	nop
 8001ba4:	e000ed00 	.word	0xe000ed00

08001ba8 <__NVIC_EnableIRQ>:
 8001ba8:	b480      	push	{r7}
 8001baa:	b083      	sub	sp, #12
 8001bac:	af00      	add	r7, sp, #0
 8001bae:	4603      	mov	r3, r0
 8001bb0:	71fb      	strb	r3, [r7, #7]
 8001bb2:	f997 3007 	ldrsb.w	r3, [r7, #7]
 8001bb6:	2b00      	cmp	r3, #0
 8001bb8:	db0b      	blt.n	8001bd2 <__NVIC_EnableIRQ+0x2a>
 8001bba:	79fb      	ldrb	r3, [r7, #7]
 8001bbc:	f003 021f 	and.w	r2, r3, #31
 8001bc0:	4906      	ldr	r1, [pc, #24]	; (8001bdc <__NVIC_EnableIRQ+0x34>)
 8001bc2:	f997 3007 	ldrsb.w	r3, [r7, #7]
 8001bc6:	095b      	lsrs	r3, r3, #5
 8001bc8:	2001      	movs	r0, #1
 8001bca:	fa00 f202 	lsl.w	r2, r0, r2
 8001bce:	f841 2023 	str.w	r2, [r1, r3, lsl #2]
 8001bd2:	bf00      	nop
 8001bd4:	370c      	adds	r7, #12
 8001bd6:	46bd      	mov	sp, r7
 8001bd8:	bc80      	pop	{r7}
 8001bda:	4770      	bx	lr
 8001bdc:	e000e100 	.word	0xe000e100

08001be0 <__NVIC_SetPriority>:
 8001be0:	b480      	push	{r7}
 8001be2:	b083      	sub	sp, #12
 8001be4:	af00      	add	r7, sp, #0
 8001be6:	4603      	mov	r3, r0
 8001be8:	6039      	str	r1, [r7, #0]
 8001bea:	71fb      	strb	r3, [r7, #7]
 8001bec:	f997 3007 	ldrsb.w	r3, [r7, #7]
 8001bf0:	2b00      	cmp	r3, #0
 8001bf2:	db0a      	blt.n	8001c0a <__NVIC_SetPriority+0x2a>
 8001bf4:	683b      	ldr	r3, [r7, #0]
 8001bf6:	b2da      	uxtb	r2, r3
 8001bf8:	490c      	ldr	r1, [pc, #48]	; (8001c2c <__NVIC_SetPriority+0x4c>)
 8001bfa:	f997 3007 	ldrsb.w	r3, [r7, #7]
 8001bfe:	0112      	lsls	r2, r2, #4
 8001c00:	b2d2      	uxtb	r2, r2
 8001c02:	440b      	add	r3, r1
 8001c04:	f883 2300 	strb.w	r2, [r3, #768]	; 0x300
 8001c08:	e00a      	b.n	8001c20 <__NVIC_SetPriority+0x40>
 8001c0a:	683b      	ldr	r3, [r7, #0]
 8001c0c:	b2da      	uxtb	r2, r3
 8001c0e:	4908      	ldr	r1, [pc, #32]	; (8001c30 <__NVIC_SetPriority+0x50>)
 8001c10:	79fb      	ldrb	r3, [r7, #7]
 8001c12:	f003 030f 	and.w	r3, r3, #15
 8001c16:	3b04      	subs	r3, #4
 8001c18:	0112      	lsls	r2, r2, #4
 8001c1a:	b2d2      	uxtb	r2, r2
 8001c1c:	440b      	add	r3, r1
 8001c1e:	761a      	strb	r2, [r3, #24]
 8001c20:	bf00      	nop
 8001c22:	370c      	adds	r7, #12
 8001c24:	46bd      	mov	sp, r7
 8001c26:	bc80      	pop	{r7}
 8001c28:	4770      	bx	lr
 8001c2a:	bf00      	nop
 8001c2c:	e000e100 	.word	0xe000e100
 8001c30:	e000ed00 	.word	0xe000ed00

08001c34 <NVIC_EncodePriority>:
 8001c34:	b480      	push	{r7}
 8001c36:	b089      	sub	sp, #36	; 0x24
 8001c38:	af00      	add	r7, sp, #0
 8001c3a:	60f8      	str	r0, [r7, #12]
 8001c3c:	60b9      	str	r1, [r7, #8]
 8001c3e:	607a      	str	r2, [r7, #4]
 8001c40:	68fb      	ldr	r3, [r7, #12]
 8001c42:	f003 0307 	and.w	r3, r3, #7
 8001c46:	61fb      	str	r3, [r7, #28]
 8001c48:	69fb      	ldr	r3, [r7, #28]
 8001c4a:	f1c3 0307 	rsb	r3, r3, #7
 8001c4e:	2b04      	cmp	r3, #4
 8001c50:	bf28      	it	cs
 8001c52:	2304      	movcs	r3, #4
 8001c54:	61bb      	str	r3, [r7, #24]
 8001c56:	69fb      	ldr	r3, [r7, #28]
 8001c58:	3304      	adds	r3, #4
 8001c5a:	2b06      	cmp	r3, #6
 8001c5c:	d902      	bls.n	8001c64 <NVIC_EncodePriority+0x30>
 8001c5e:	69fb      	ldr	r3, [r7, #28]
 8001c60:	3b03      	subs	r3, #3
 8001c62:	e000      	b.n	8001c66 <NVIC_EncodePriority+0x32>
 8001c64:	2300      	movs	r3, #0
 8001c66:	617b      	str	r3, [r7, #20]
 8001c68:	f04f 32ff 	mov.w	r2, #4294967295
 8001c6c:	69bb      	ldr	r3, [r7, #24]
 8001c6e:	fa02 f303 	lsl.w	r3, r2, r3
 8001c72:	43da      	mvns	r2, r3
 8001c74:	68bb      	ldr	r3, [r7, #8]
 8001c76:	401a      	ands	r2, r3
 8001c78:	697b      	ldr	r3, [r7, #20]
 8001c7a:	409a      	lsls	r2, r3
 8001c7c:	f04f 31ff 	mov.w	r1, #4294967295
 8001c80:	697b      	ldr	r3, [r7, #20]
 8001c82:	fa01 f303 	lsl.w	r3, r1, r3
 8001c86:	43d9      	mvns	r1, r3
 8001c88:	687b      	ldr	r3, [r7, #4]
 8001c8a:	400b      	ands	r3, r1
 8001c8c:	4313      	orrs	r3, r2
 8001c8e:	4618      	mov	r0, r3
 8001c90:	3724      	adds	r7, #36	; 0x24
 8001c92:	46bd      	mov	sp, r7
 8001c94:	bc80      	pop	{r7}
 8001c96:	4770      	bx	lr

08001c98 <SysTick_Config>:
 8001c98:	b580      	push	{r7, lr}
 8001c9a:	b082      	sub	sp, #8
 8001c9c:	af00      	add	r7, sp, #0
 8001c9e:	6078      	str	r0, [r7, #4]
 8001ca0:	687b      	ldr	r3, [r7, #4]
 8001ca2:	3b01      	subs	r3, #1
 8001ca4:	f1b3 7f80 	cmp.w	r3, #16777216	; 0x1000000
 8001ca8:	d301      	bcc.n	8001cae <SysTick_Config+0x16>
 8001caa:	2301      	movs	r3, #1
 8001cac:	e00f      	b.n	8001cce <SysTick_Config+0x36>
 8001cae:	4a0a      	ldr	r2, [pc, #40]	; (8001cd8 <SysTick_Config+0x40>)
 8001cb0:	687b      	ldr	r3, [r7, #4]
 8001cb2:	3b01      	subs	r3, #1
 8001cb4:	6053      	str	r3, [r2, #4]
 8001cb6:	210f      	movs	r1, #15
 8001cb8:	f04f 30ff 	mov.w	r0, #4294967295
 8001cbc:	f7ff ff90 	bl	8001be0 <__NVIC_SetPriority>
 8001cc0:	4b05      	ldr	r3, [pc, #20]	; (8001cd8 <SysTick_Config+0x40>)
 8001cc2:	2200      	movs	r2, #0
 8001cc4:	609a      	str	r2, [r3, #8]
 8001cc6:	4b04      	ldr	r3, [pc, #16]	; (8001cd8 <SysTick_Config+0x40>)
 8001cc8:	2207      	movs	r2, #7
 8001cca:	601a      	str	r2, [r3, #0]
 8001ccc:	2300      	movs	r3, #0
 8001cce:	4618      	mov	r0, r3
 8001cd0:	3708      	adds	r7, #8
 8001cd2:	46bd      	mov	sp, r7
 8001cd4:	bd80      	pop	{r7, pc}
 8001cd6:	bf00      	nop
 8001cd8:	e000e010 	.word	0xe000e010

08001cdc <HAL_NVIC_SetPriorityGrouping>:
 8001cdc:	b580      	push	{r7, lr}
 8001cde:	b082      	sub	sp, #8
 8001ce0:	af00      	add	r7, sp, #0
 8001ce2:	6078      	str	r0, [r7, #4]
 8001ce4:	6878      	ldr	r0, [r7, #4]
 8001ce6:	f7ff ff2d 	bl	8001b44 <__NVIC_SetPriorityGrouping>
 8001cea:	bf00      	nop
 8001cec:	3708      	adds	r7, #8
 8001cee:	46bd      	mov	sp, r7
 8001cf0:	bd80      	pop	{r7, pc}

08001cf2 <HAL_NVIC_SetPriority>:
 8001cf2:	b580      	push	{r7, lr}
 8001cf4:	b086      	sub	sp, #24
 8001cf6:	af00      	add	r7, sp, #0
 8001cf8:	4603      	mov	r3, r0
 8001cfa:	60b9      	str	r1, [r7, #8]
 8001cfc:	607a      	str	r2, [r7, #4]
 8001cfe:	73fb      	strb	r3, [r7, #15]
 8001d00:	2300      	movs	r3, #0
 8001d02:	617b      	str	r3, [r7, #20]
 8001d04:	f7ff ff42 	bl	8001b8c <__NVIC_GetPriorityGrouping>
 8001d08:	6178      	str	r0, [r7, #20]
 8001d0a:	687a      	ldr	r2, [r7, #4]
 8001d0c:	68b9      	ldr	r1, [r7, #8]
 8001d0e:	6978      	ldr	r0, [r7, #20]
 8001d10:	f7ff ff90 	bl	8001c34 <NVIC_EncodePriority>
 8001d14:	4602      	mov	r2, r0
 8001d16:	f997 300f 	ldrsb.w	r3, [r7, #15]
 8001d1a:	4611      	mov	r1, r2
 8001d1c:	4618      	mov	r0, r3
 8001d1e:	f7ff ff5f 	bl	8001be0 <__NVIC_SetPriority>
 8001d22:	bf00      	nop
 8001d24:	3718      	adds	r7, #24
 8001d26:	46bd      	mov	sp, r7
 8001d28:	bd80      	pop	{r7, pc}

08001d2a <HAL_NVIC_EnableIRQ>:
 8001d2a:	b580      	push	{r7, lr}
 8001d2c:	b082      	sub	sp, #8
 8001d2e:	af00      	add	r7, sp, #0
 8001d30:	4603      	mov	r3, r0
 8001d32:	71fb      	strb	r3, [r7, #7]
 8001d34:	f997 3007 	ldrsb.w	r3, [r7, #7]
 8001d38:	4618      	mov	r0, r3
 8001d3a:	f7ff ff35 	bl	8001ba8 <__NVIC_EnableIRQ>
 8001d3e:	bf00      	nop
 8001d40:	3708      	adds	r7, #8
 8001d42:	46bd      	mov	sp, r7
 8001d44:	bd80      	pop	{r7, pc}

08001d46 <HAL_SYSTICK_Config>:
 8001d46:	b580      	push	{r7, lr}
 8001d48:	b082      	sub	sp, #8
 8001d4a:	af00      	add	r7, sp, #0
 8001d4c:	6078      	str	r0, [r7, #4]
 8001d4e:	6878      	ldr	r0, [r7, #4]
 8001d50:	f7ff ffa2 	bl	8001c98 <SysTick_Config>
 8001d54:	4603      	mov	r3, r0
 8001d56:	4618      	mov	r0, r3
 8001d58:	3708      	adds	r7, #8
 8001d5a:	46bd      	mov	sp, r7
 8001d5c:	bd80      	pop	{r7, pc}
	...

08001d60 <HAL_GPIO_Init>:
 8001d60:	b480      	push	{r7}
 8001d62:	b087      	sub	sp, #28
 8001d64:	af00      	add	r7, sp, #0
 8001d66:	6078      	str	r0, [r7, #4]
 8001d68:	6039      	str	r1, [r7, #0]
 8001d6a:	2300      	movs	r3, #0
 8001d6c:	617b      	str	r3, [r7, #20]
 8001d6e:	2300      	movs	r3, #0
 8001d70:	60fb      	str	r3, [r7, #12]
 8001d72:	2300      	movs	r3, #0
 8001d74:	613b      	str	r3, [r7, #16]
 8001d76:	e154      	b.n	8002022 <HAL_GPIO_Init+0x2c2>
 8001d78:	683b      	ldr	r3, [r7, #0]
 8001d7a:	681a      	ldr	r2, [r3, #0]
 8001d7c:	2101      	movs	r1, #1
 8001d7e:	697b      	ldr	r3, [r7, #20]
 8001d80:	fa01 f303 	lsl.w	r3, r1, r3
 8001d84:	4013      	ands	r3, r2
 8001d86:	60fb      	str	r3, [r7, #12]
 8001d88:	68fb      	ldr	r3, [r7, #12]
 8001d8a:	2b00      	cmp	r3, #0
 8001d8c:	f000 8146 	beq.w	800201c <HAL_GPIO_Init+0x2bc>
 8001d90:	683b      	ldr	r3, [r7, #0]
 8001d92:	685b      	ldr	r3, [r3, #4]
 8001d94:	2b02      	cmp	r3, #2
 8001d96:	d003      	beq.n	8001da0 <HAL_GPIO_Init+0x40>
 8001d98:	683b      	ldr	r3, [r7, #0]
 8001d9a:	685b      	ldr	r3, [r3, #4]
 8001d9c:	2b12      	cmp	r3, #18
 8001d9e:	d123      	bne.n	8001de8 <HAL_GPIO_Init+0x88>
 8001da0:	697b      	ldr	r3, [r7, #20]
 8001da2:	08da      	lsrs	r2, r3, #3
 8001da4:	687b      	ldr	r3, [r7, #4]
 8001da6:	3208      	adds	r2, #8
 8001da8:	f853 3022 	ldr.w	r3, [r3, r2, lsl #2]
 8001dac:	613b      	str	r3, [r7, #16]
 8001dae:	697b      	ldr	r3, [r7, #20]
 8001db0:	f003 0307 	and.w	r3, r3, #7
 8001db4:	009b      	lsls	r3, r3, #2
 8001db6:	220f      	movs	r2, #15
 8001db8:	fa02 f303 	lsl.w	r3, r2, r3
 8001dbc:	43db      	mvns	r3, r3
 8001dbe:	693a      	ldr	r2, [r7, #16]
 8001dc0:	4013      	ands	r3, r2
 8001dc2:	613b      	str	r3, [r7, #16]
 8001dc4:	683b      	ldr	r3, [r7, #0]
 8001dc6:	691a      	ldr	r2, [r3, #16]
 8001dc8:	697b      	ldr	r3, [r7, #20]
 8001dca:	f003 0307 	and.w	r3, r3, #7
 8001dce:	009b      	lsls	r3, r3, #2
 8001dd0:	fa02 f303 	lsl.w	r3, r2, r3
 8001dd4:	693a      	ldr	r2, [r7, #16]
 8001dd6:	4313      	orrs	r3, r2
 8001dd8:	613b      	str	r3, [r7, #16]
 8001dda:	697b      	ldr	r3, [r7, #20]
 8001ddc:	08da      	lsrs	r2, r3, #3
 8001dde:	687b      	ldr	r3, [r7, #4]
 8001de0:	3208      	adds	r2, #8
 8001de2:	6939      	ldr	r1, [r7, #16]
 8001de4:	f843 1022 	str.w	r1, [r3, r2, lsl #2]
 8001de8:	687b      	ldr	r3, [r7, #4]
 8001dea:	681b      	ldr	r3, [r3, #0]
 8001dec:	613b      	str	r3, [r7, #16]
 8001dee:	697b      	ldr	r3, [r7, #20]
 8001df0:	005b      	lsls	r3, r3, #1
 8001df2:	2203      	movs	r2, #3
 8001df4:	fa02 f303 	lsl.w	r3, r2, r3
 8001df8:	43db      	mvns	r3, r3
 8001dfa:	693a      	ldr	r2, [r7, #16]
 8001dfc:	4013      	ands	r3, r2
 8001dfe:	613b      	str	r3, [r7, #16]
 8001e00:	683b      	ldr	r3, [r7, #0]
 8001e02:	685b      	ldr	r3, [r3, #4]
 8001e04:	f003 0203 	and.w	r2, r3, #3
 8001e08:	697b      	ldr	r3, [r7, #20]
 8001e0a:	005b      	lsls	r3, r3, #1
 8001e0c:	fa02 f303 	lsl.w	r3, r2, r3
 8001e10:	693a      	ldr	r2, [r7, #16]
 8001e12:	4313      	orrs	r3, r2
 8001e14:	613b      	str	r3, [r7, #16]
 8001e16:	687b      	ldr	r3, [r7, #4]
 8001e18:	693a      	ldr	r2, [r7, #16]
 8001e1a:	601a      	str	r2, [r3, #0]
 8001e1c:	683b      	ldr	r3, [r7, #0]
 8001e1e:	685b      	ldr	r3, [r3, #4]
 8001e20:	2b01      	cmp	r3, #1
 8001e22:	d00b      	beq.n	8001e3c <HAL_GPIO_Init+0xdc>
 8001e24:	683b      	ldr	r3, [r7, #0]
 8001e26:	685b      	ldr	r3, [r3, #4]
 8001e28:	2b02      	cmp	r3, #2
 8001e2a:	d007      	beq.n	8001e3c <HAL_GPIO_Init+0xdc>
 8001e2c:	683b      	ldr	r3, [r7, #0]
 8001e2e:	685b      	ldr	r3, [r3, #4]
 8001e30:	2b11      	cmp	r3, #17
 8001e32:	d003      	beq.n	8001e3c <HAL_GPIO_Init+0xdc>
 8001e34:	683b      	ldr	r3, [r7, #0]
 8001e36:	685b      	ldr	r3, [r3, #4]
 8001e38:	2b12      	cmp	r3, #18
 8001e3a:	d130      	bne.n	8001e9e <HAL_GPIO_Init+0x13e>
 8001e3c:	687b      	ldr	r3, [r7, #4]
 8001e3e:	689b      	ldr	r3, [r3, #8]
 8001e40:	613b      	str	r3, [r7, #16]
 8001e42:	697b      	ldr	r3, [r7, #20]
 8001e44:	005b      	lsls	r3, r3, #1
 8001e46:	2203      	movs	r2, #3
 8001e48:	fa02 f303 	lsl.w	r3, r2, r3
 8001e4c:	43db      	mvns	r3, r3
 8001e4e:	693a      	ldr	r2, [r7, #16]
 8001e50:	4013      	ands	r3, r2
 8001e52:	613b      	str	r3, [r7, #16]
 8001e54:	683b      	ldr	r3, [r7, #0]
 8001e56:	68da      	ldr	r2, [r3, #12]
 8001e58:	697b      	ldr	r3, [r7, #20]
 8001e5a:	005b      	lsls	r3, r3, #1
 8001e5c:	fa02 f303 	lsl.w	r3, r2, r3
 8001e60:	693a      	ldr	r2, [r7, #16]
 8001e62:	4313      	orrs	r3, r2
 8001e64:	613b      	str	r3, [r7, #16]
 8001e66:	687b      	ldr	r3, [r7, #4]
 8001e68:	693a      	ldr	r2, [r7, #16]
 8001e6a:	609a      	str	r2, [r3, #8]
 8001e6c:	687b      	ldr	r3, [r7, #4]
 8001e6e:	685b      	ldr	r3, [r3, #4]
 8001e70:	613b      	str	r3, [r7, #16]
 8001e72:	2201      	movs	r2, #1
 8001e74:	697b      	ldr	r3, [r7, #20]
 8001e76:	fa02 f303 	lsl.w	r3, r2, r3
 8001e7a:	43db      	mvns	r3, r3
 8001e7c:	693a      	ldr	r2, [r7, #16]
 8001e7e:	4013      	ands	r3, r2
 8001e80:	613b      	str	r3, [r7, #16]
 8001e82:	683b      	ldr	r3, [r7, #0]
 8001e84:	685b      	ldr	r3, [r3, #4]
 8001e86:	091b      	lsrs	r3, r3, #4
 8001e88:	f003 0201 	and.w	r2, r3, #1
 8001e8c:	697b      	ldr	r3, [r7, #20]
 8001e8e:	fa02 f303 	lsl.w	r3, r2, r3
 8001e92:	693a      	ldr	r2, [r7, #16]
 8001e94:	4313      	orrs	r3, r2
 8001e96:	613b      	str	r3, [r7, #16]
 8001e98:	687b      	ldr	r3, [r7, #4]
 8001e9a:	693a      	ldr	r2, [r7, #16]
 8001e9c:	605a      	str	r2, [r3, #4]
 8001e9e:	687b      	ldr	r3, [r7, #4]
 8001ea0:	68db      	ldr	r3, [r3, #12]
 8001ea2:	613b      	str	r3, [r7, #16]
 8001ea4:	697b      	ldr	r3, [r7, #20]
 8001ea6:	005b      	lsls	r3, r3, #1
 8001ea8:	2203      	movs	r2, #3
 8001eaa:	fa02 f303 	lsl.w	r3, r2, r3
 8001eae:	43db      	mvns	r3, r3
 8001eb0:	693a      	ldr	r2, [r7, #16]
 8001eb2:	4013      	ands	r3, r2
 8001eb4:	613b      	str	r3, [r7, #16]
 8001eb6:	683b      	ldr	r3, [r7, #0]
 8001eb8:	689a      	ldr	r2, [r3, #8]
 8001eba:	697b      	ldr	r3, [r7, #20]
 8001ebc:	005b      	lsls	r3, r3, #1
 8001ebe:	fa02 f303 	lsl.w	r3, r2, r3
 8001ec2:	693a      	ldr	r2, [r7, #16]
 8001ec4:	4313      	orrs	r3, r2
 8001ec6:	613b      	str	r3, [r7, #16]
 8001ec8:	687b      	ldr	r3, [r7, #4]
 8001eca:	693a      	ldr	r2, [r7, #16]
 8001ecc:	60da      	str	r2, [r3, #12]
 8001ece:	683b      	ldr	r3, [r7, #0]
 8001ed0:	685b      	ldr	r3, [r3, #4]
 8001ed2:	f003 5380 	and.w	r3, r3, #268435456	; 0x10000000
 8001ed6:	2b00      	cmp	r3, #0
 8001ed8:	f000 80a0 	beq.w	800201c <HAL_GPIO_Init+0x2bc>
 8001edc:	4b58      	ldr	r3, [pc, #352]	; (8002040 <HAL_GPIO_Init+0x2e0>)
 8001ede:	6a1b      	ldr	r3, [r3, #32]
 8001ee0:	4a57      	ldr	r2, [pc, #348]	; (8002040 <HAL_GPIO_Init+0x2e0>)
 8001ee2:	f043 0301 	orr.w	r3, r3, #1
 8001ee6:	6213      	str	r3, [r2, #32]
 8001ee8:	4b55      	ldr	r3, [pc, #340]	; (8002040 <HAL_GPIO_Init+0x2e0>)
 8001eea:	6a1b      	ldr	r3, [r3, #32]
 8001eec:	f003 0301 	and.w	r3, r3, #1
 8001ef0:	60bb      	str	r3, [r7, #8]
 8001ef2:	68bb      	ldr	r3, [r7, #8]
 8001ef4:	4a53      	ldr	r2, [pc, #332]	; (8002044 <HAL_GPIO_Init+0x2e4>)
 8001ef6:	697b      	ldr	r3, [r7, #20]
 8001ef8:	089b      	lsrs	r3, r3, #2
 8001efa:	3302      	adds	r3, #2
 8001efc:	f852 3023 	ldr.w	r3, [r2, r3, lsl #2]
 8001f00:	613b      	str	r3, [r7, #16]
 8001f02:	697b      	ldr	r3, [r7, #20]
 8001f04:	f003 0303 	and.w	r3, r3, #3
 8001f08:	009b      	lsls	r3, r3, #2
 8001f0a:	220f      	movs	r2, #15
 8001f0c:	fa02 f303 	lsl.w	r3, r2, r3
 8001f10:	43db      	mvns	r3, r3
 8001f12:	693a      	ldr	r2, [r7, #16]
 8001f14:	4013      	ands	r3, r2
 8001f16:	613b      	str	r3, [r7, #16]
 8001f18:	687b      	ldr	r3, [r7, #4]
 8001f1a:	4a4b      	ldr	r2, [pc, #300]	; (8002048 <HAL_GPIO_Init+0x2e8>)
 8001f1c:	4293      	cmp	r3, r2
 8001f1e:	d019      	beq.n	8001f54 <HAL_GPIO_Init+0x1f4>
 8001f20:	687b      	ldr	r3, [r7, #4]
 8001f22:	4a4a      	ldr	r2, [pc, #296]	; (800204c <HAL_GPIO_Init+0x2ec>)
 8001f24:	4293      	cmp	r3, r2
 8001f26:	d013      	beq.n	8001f50 <HAL_GPIO_Init+0x1f0>
 8001f28:	687b      	ldr	r3, [r7, #4]
 8001f2a:	4a49      	ldr	r2, [pc, #292]	; (8002050 <HAL_GPIO_Init+0x2f0>)
 8001f2c:	4293      	cmp	r3, r2
 8001f2e:	d00d      	beq.n	8001f4c <HAL_GPIO_Init+0x1ec>
 8001f30:	687b      	ldr	r3, [r7, #4]
 8001f32:	4a48      	ldr	r2, [pc, #288]	; (8002054 <HAL_GPIO_Init+0x2f4>)
 8001f34:	4293      	cmp	r3, r2
 8001f36:	d007      	beq.n	8001f48 <HAL_GPIO_Init+0x1e8>
 8001f38:	687b      	ldr	r3, [r7, #4]
 8001f3a:	4a47      	ldr	r2, [pc, #284]	; (8002058 <HAL_GPIO_Init+0x2f8>)
 8001f3c:	4293      	cmp	r3, r2
 8001f3e:	d101      	bne.n	8001f44 <HAL_GPIO_Init+0x1e4>
 8001f40:	2304      	movs	r3, #4
 8001f42:	e008      	b.n	8001f56 <HAL_GPIO_Init+0x1f6>
 8001f44:	2305      	movs	r3, #5
 8001f46:	e006      	b.n	8001f56 <HAL_GPIO_Init+0x1f6>
 8001f48:	2303      	movs	r3, #3
 8001f4a:	e004      	b.n	8001f56 <HAL_GPIO_Init+0x1f6>
 8001f4c:	2302      	movs	r3, #2
 8001f4e:	e002      	b.n	8001f56 <HAL_GPIO_Init+0x1f6>
 8001f50:	2301      	movs	r3, #1
 8001f52:	e000      	b.n	8001f56 <HAL_GPIO_Init+0x1f6>
 8001f54:	2300      	movs	r3, #0
 8001f56:	697a      	ldr	r2, [r7, #20]
 8001f58:	f002 0203 	and.w	r2, r2, #3
 8001f5c:	0092      	lsls	r2, r2, #2
 8001f5e:	4093      	lsls	r3, r2
 8001f60:	693a      	ldr	r2, [r7, #16]
 8001f62:	4313      	orrs	r3, r2
 8001f64:	613b      	str	r3, [r7, #16]
 8001f66:	4937      	ldr	r1, [pc, #220]	; (8002044 <HAL_GPIO_Init+0x2e4>)
 8001f68:	697b      	ldr	r3, [r7, #20]
 8001f6a:	089b      	lsrs	r3, r3, #2
 8001f6c:	3302      	adds	r3, #2
 8001f6e:	693a      	ldr	r2, [r7, #16]
 8001f70:	f841 2023 	str.w	r2, [r1, r3, lsl #2]
 8001f74:	4b39      	ldr	r3, [pc, #228]	; (800205c <HAL_GPIO_Init+0x2fc>)
 8001f76:	681b      	ldr	r3, [r3, #0]
 8001f78:	613b      	str	r3, [r7, #16]
 8001f7a:	68fb      	ldr	r3, [r7, #12]
 8001f7c:	43db      	mvns	r3, r3
 8001f7e:	693a      	ldr	r2, [r7, #16]
 8001f80:	4013      	ands	r3, r2
 8001f82:	613b      	str	r3, [r7, #16]
 8001f84:	683b      	ldr	r3, [r7, #0]
 8001f86:	685b      	ldr	r3, [r3, #4]
 8001f88:	f403 3380 	and.w	r3, r3, #65536	; 0x10000
 8001f8c:	2b00      	cmp	r3, #0
 8001f8e:	d003      	beq.n	8001f98 <HAL_GPIO_Init+0x238>
 8001f90:	693a      	ldr	r2, [r7, #16]
 8001f92:	68fb      	ldr	r3, [r7, #12]
 8001f94:	4313      	orrs	r3, r2
 8001f96:	613b      	str	r3, [r7, #16]
 8001f98:	4a30      	ldr	r2, [pc, #192]	; (800205c <HAL_GPIO_Init+0x2fc>)
 8001f9a:	693b      	ldr	r3, [r7, #16]
 8001f9c:	6013      	str	r3, [r2, #0]
 8001f9e:	4b2f      	ldr	r3, [pc, #188]	; (800205c <HAL_GPIO_Init+0x2fc>)
 8001fa0:	685b      	ldr	r3, [r3, #4]
 8001fa2:	613b      	str	r3, [r7, #16]
 8001fa4:	68fb      	ldr	r3, [r7, #12]
 8001fa6:	43db      	mvns	r3, r3
 8001fa8:	693a      	ldr	r2, [r7, #16]
 8001faa:	4013      	ands	r3, r2
 8001fac:	613b      	str	r3, [r7, #16]
 8001fae:	683b      	ldr	r3, [r7, #0]
 8001fb0:	685b      	ldr	r3, [r3, #4]
 8001fb2:	f403 3300 	and.w	r3, r3, #131072	; 0x20000
 8001fb6:	2b00      	cmp	r3, #0
 8001fb8:	d003      	beq.n	8001fc2 <HAL_GPIO_Init+0x262>
 8001fba:	693a      	ldr	r2, [r7, #16]
 8001fbc:	68fb      	ldr	r3, [r7, #12]
 8001fbe:	4313      	orrs	r3, r2
 8001fc0:	613b      	str	r3, [r7, #16]
 8001fc2:	4a26      	ldr	r2, [pc, #152]	; (800205c <HAL_GPIO_Init+0x2fc>)
 8001fc4:	693b      	ldr	r3, [r7, #16]
 8001fc6:	6053      	str	r3, [r2, #4]
 8001fc8:	4b24      	ldr	r3, [pc, #144]	; (800205c <HAL_GPIO_Init+0x2fc>)
 8001fca:	689b      	ldr	r3, [r3, #8]
 8001fcc:	613b      	str	r3, [r7, #16]
 8001fce:	68fb      	ldr	r3, [r7, #12]
 8001fd0:	43db      	mvns	r3, r3
 8001fd2:	693a      	ldr	r2, [r7, #16]
 8001fd4:	4013      	ands	r3, r2
 8001fd6:	613b      	str	r3, [r7, #16]
 8001fd8:	683b      	ldr	r3, [r7, #0]
 8001fda:	685b      	ldr	r3, [r3, #4]
 8001fdc:	f403 1380 	and.w	r3, r3, #1048576	; 0x100000
 8001fe0:	2b00      	cmp	r3, #0
 8001fe2:	d003      	beq.n	8001fec <HAL_GPIO_Init+0x28c>
 8001fe4:	693a      	ldr	r2, [r7, #16]
 8001fe6:	68fb      	ldr	r3, [r7, #12]
 8001fe8:	4313      	orrs	r3, r2
 8001fea:	613b      	str	r3, [r7, #16]
 8001fec:	4a1b      	ldr	r2, [pc, #108]	; (800205c <HAL_GPIO_Init+0x2fc>)
 8001fee:	693b      	ldr	r3, [r7, #16]
 8001ff0:	6093      	str	r3, [r2, #8]
 8001ff2:	4b1a      	ldr	r3, [pc, #104]	; (800205c <HAL_GPIO_Init+0x2fc>)
 8001ff4:	68db      	ldr	r3, [r3, #12]
 8001ff6:	613b      	str	r3, [r7, #16]
 8001ff8:	68fb      	ldr	r3, [r7, #12]
 8001ffa:	43db      	mvns	r3, r3
 8001ffc:	693a      	ldr	r2, [r7, #16]
 8001ffe:	4013      	ands	r3, r2
 8002000:	613b      	str	r3, [r7, #16]
 8002002:	683b      	ldr	r3, [r7, #0]
 8002004:	685b      	ldr	r3, [r3, #4]
 8002006:	f403 1300 	and.w	r3, r3, #2097152	; 0x200000
 800200a:	2b00      	cmp	r3, #0
 800200c:	d003      	beq.n	8002016 <HAL_GPIO_Init+0x2b6>
 800200e:	693a      	ldr	r2, [r7, #16]
 8002010:	68fb      	ldr	r3, [r7, #12]
 8002012:	4313      	orrs	r3, r2
 8002014:	613b      	str	r3, [r7, #16]
 8002016:	4a11      	ldr	r2, [pc, #68]	; (800205c <HAL_GPIO_Init+0x2fc>)
 8002018:	693b      	ldr	r3, [r7, #16]
 800201a:	60d3      	str	r3, [r2, #12]
 800201c:	697b      	ldr	r3, [r7, #20]
 800201e:	3301      	adds	r3, #1
 8002020:	617b      	str	r3, [r7, #20]
 8002022:	683b      	ldr	r3, [r7, #0]
 8002024:	681a      	ldr	r2, [r3, #0]
 8002026:	697b      	ldr	r3, [r7, #20]
 8002028:	fa22 f303 	lsr.w	r3, r2, r3
 800202c:	2b00      	cmp	r3, #0
 800202e:	f47f aea3 	bne.w	8001d78 <HAL_GPIO_Init+0x18>
 8002032:	bf00      	nop
 8002034:	bf00      	nop
 8002036:	371c      	adds	r7, #28
 8002038:	46bd      	mov	sp, r7
 800203a:	bc80      	pop	{r7}
 800203c:	4770      	bx	lr
 800203e:	bf00      	nop
 8002040:	40023800 	.word	0x40023800
 8002044:	40010000 	.word	0x40010000
 8002048:	40020000 	.word	0x40020000
 800204c:	40020400 	.word	0x40020400
 8002050:	40020800 	.word	0x40020800
 8002054:	40020c00 	.word	0x40020c00
 8002058:	40021000 	.word	0x40021000
 800205c:	40010400 	.word	0x40010400

08002060 <HAL_GPIO_WritePin>:
 8002060:	b480      	push	{r7}
 8002062:	b083      	sub	sp, #12
 8002064:	af00      	add	r7, sp, #0
 8002066:	6078      	str	r0, [r7, #4]
 8002068:	460b      	mov	r3, r1
 800206a:	807b      	strh	r3, [r7, #2]
 800206c:	4613      	mov	r3, r2
 800206e:	707b      	strb	r3, [r7, #1]
 8002070:	787b      	ldrb	r3, [r7, #1]
 8002072:	2b00      	cmp	r3, #0
 8002074:	d003      	beq.n	800207e <HAL_GPIO_WritePin+0x1e>
 8002076:	887a      	ldrh	r2, [r7, #2]
 8002078:	687b      	ldr	r3, [r7, #4]
 800207a:	619a      	str	r2, [r3, #24]
 800207c:	e003      	b.n	8002086 <HAL_GPIO_WritePin+0x26>
 800207e:	887b      	ldrh	r3, [r7, #2]
 8002080:	041a      	lsls	r2, r3, #16
 8002082:	687b      	ldr	r3, [r7, #4]
 8002084:	619a      	str	r2, [r3, #24]
 8002086:	bf00      	nop
 8002088:	370c      	adds	r7, #12
 800208a:	46bd      	mov	sp, r7
 800208c:	bc80      	pop	{r7}
 800208e:	4770      	bx	lr

08002090 <HAL_PCD_Init>:
 8002090:	b5f0      	push	{r4, r5, r6, r7, lr}
 8002092:	b08b      	sub	sp, #44	; 0x2c
 8002094:	af06      	add	r7, sp, #24
 8002096:	6078      	str	r0, [r7, #4]
 8002098:	687b      	ldr	r3, [r7, #4]
 800209a:	2b00      	cmp	r3, #0
 800209c:	d101      	bne.n	80020a2 <HAL_PCD_Init+0x12>
 800209e:	2301      	movs	r3, #1
 80020a0:	e0a6      	b.n	80021f0 <HAL_PCD_Init+0x160>
 80020a2:	687b      	ldr	r3, [r7, #4]
 80020a4:	f893 3229 	ldrb.w	r3, [r3, #553]	; 0x229
 80020a8:	b2db      	uxtb	r3, r3
 80020aa:	2b00      	cmp	r3, #0
 80020ac:	d106      	bne.n	80020bc <HAL_PCD_Init+0x2c>
 80020ae:	687b      	ldr	r3, [r7, #4]
 80020b0:	2200      	movs	r2, #0
 80020b2:	f883 2228 	strb.w	r2, [r3, #552]	; 0x228
 80020b6:	6878      	ldr	r0, [r7, #4]
 80020b8:	f005 ff52 	bl	8007f60 <HAL_PCD_MspInit>
 80020bc:	687b      	ldr	r3, [r7, #4]
 80020be:	2203      	movs	r2, #3
 80020c0:	f883 2229 	strb.w	r2, [r3, #553]	; 0x229
 80020c4:	687b      	ldr	r3, [r7, #4]
 80020c6:	681b      	ldr	r3, [r3, #0]
 80020c8:	4618      	mov	r0, r3
 80020ca:	f003 f91e 	bl	800530a <USB_DisableGlobalInt>
 80020ce:	2300      	movs	r3, #0
 80020d0:	73fb      	strb	r3, [r7, #15]
 80020d2:	e035      	b.n	8002140 <HAL_PCD_Init+0xb0>
 80020d4:	7bfb      	ldrb	r3, [r7, #15]
 80020d6:	687a      	ldr	r2, [r7, #4]
 80020d8:	015b      	lsls	r3, r3, #5
 80020da:	4413      	add	r3, r2
 80020dc:	3329      	adds	r3, #41	; 0x29
 80020de:	2201      	movs	r2, #1
 80020e0:	701a      	strb	r2, [r3, #0]
 80020e2:	7bfb      	ldrb	r3, [r7, #15]
 80020e4:	687a      	ldr	r2, [r7, #4]
 80020e6:	015b      	lsls	r3, r3, #5
 80020e8:	4413      	add	r3, r2
 80020ea:	3328      	adds	r3, #40	; 0x28
 80020ec:	7bfa      	ldrb	r2, [r7, #15]
 80020ee:	701a      	strb	r2, [r3, #0]
 80020f0:	7bfb      	ldrb	r3, [r7, #15]
 80020f2:	7bfa      	ldrb	r2, [r7, #15]
 80020f4:	b291      	uxth	r1, r2
 80020f6:	687a      	ldr	r2, [r7, #4]
 80020f8:	015b      	lsls	r3, r3, #5
 80020fa:	4413      	add	r3, r2
 80020fc:	3336      	adds	r3, #54	; 0x36
 80020fe:	460a      	mov	r2, r1
 8002100:	801a      	strh	r2, [r3, #0]
 8002102:	7bfb      	ldrb	r3, [r7, #15]
 8002104:	687a      	ldr	r2, [r7, #4]
 8002106:	015b      	lsls	r3, r3, #5
 8002108:	4413      	add	r3, r2
 800210a:	332b      	adds	r3, #43	; 0x2b
 800210c:	2200      	movs	r2, #0
 800210e:	701a      	strb	r2, [r3, #0]
 8002110:	7bfb      	ldrb	r3, [r7, #15]
 8002112:	687a      	ldr	r2, [r7, #4]
 8002114:	015b      	lsls	r3, r3, #5
 8002116:	4413      	add	r3, r2
 8002118:	3338      	adds	r3, #56	; 0x38
 800211a:	2200      	movs	r2, #0
 800211c:	601a      	str	r2, [r3, #0]
 800211e:	7bfb      	ldrb	r3, [r7, #15]
 8002120:	687a      	ldr	r2, [r7, #4]
 8002122:	015b      	lsls	r3, r3, #5
 8002124:	4413      	add	r3, r2
 8002126:	333c      	adds	r3, #60	; 0x3c
 8002128:	2200      	movs	r2, #0
 800212a:	601a      	str	r2, [r3, #0]
 800212c:	7bfb      	ldrb	r3, [r7, #15]
 800212e:	687a      	ldr	r2, [r7, #4]
 8002130:	3302      	adds	r3, #2
 8002132:	015b      	lsls	r3, r3, #5
 8002134:	4413      	add	r3, r2
 8002136:	2200      	movs	r2, #0
 8002138:	601a      	str	r2, [r3, #0]
 800213a:	7bfb      	ldrb	r3, [r7, #15]
 800213c:	3301      	adds	r3, #1
 800213e:	73fb      	strb	r3, [r7, #15]
 8002140:	7bfa      	ldrb	r2, [r7, #15]
 8002142:	687b      	ldr	r3, [r7, #4]
 8002144:	685b      	ldr	r3, [r3, #4]
 8002146:	429a      	cmp	r2, r3
 8002148:	d3c4      	bcc.n	80020d4 <HAL_PCD_Init+0x44>
 800214a:	2300      	movs	r3, #0
 800214c:	73fb      	strb	r3, [r7, #15]
 800214e:	e031      	b.n	80021b4 <HAL_PCD_Init+0x124>
 8002150:	7bfb      	ldrb	r3, [r7, #15]
 8002152:	687a      	ldr	r2, [r7, #4]
 8002154:	015b      	lsls	r3, r3, #5
 8002156:	4413      	add	r3, r2
 8002158:	f203 1329 	addw	r3, r3, #297	; 0x129
 800215c:	2200      	movs	r2, #0
 800215e:	701a      	strb	r2, [r3, #0]
 8002160:	7bfb      	ldrb	r3, [r7, #15]
 8002162:	687a      	ldr	r2, [r7, #4]
 8002164:	015b      	lsls	r3, r3, #5
 8002166:	4413      	add	r3, r2
 8002168:	f503 7394 	add.w	r3, r3, #296	; 0x128
 800216c:	7bfa      	ldrb	r2, [r7, #15]
 800216e:	701a      	strb	r2, [r3, #0]
 8002170:	7bfb      	ldrb	r3, [r7, #15]
 8002172:	687a      	ldr	r2, [r7, #4]
 8002174:	015b      	lsls	r3, r3, #5
 8002176:	4413      	add	r3, r2
 8002178:	f203 132b 	addw	r3, r3, #299	; 0x12b
 800217c:	2200      	movs	r2, #0
 800217e:	701a      	strb	r2, [r3, #0]
 8002180:	7bfb      	ldrb	r3, [r7, #15]
 8002182:	687a      	ldr	r2, [r7, #4]
 8002184:	015b      	lsls	r3, r3, #5
 8002186:	4413      	add	r3, r2
 8002188:	f503 739c 	add.w	r3, r3, #312	; 0x138
 800218c:	2200      	movs	r2, #0
 800218e:	601a      	str	r2, [r3, #0]
 8002190:	7bfb      	ldrb	r3, [r7, #15]
 8002192:	687a      	ldr	r2, [r7, #4]
 8002194:	015b      	lsls	r3, r3, #5
 8002196:	4413      	add	r3, r2
 8002198:	f503 739e 	add.w	r3, r3, #316	; 0x13c
 800219c:	2200      	movs	r2, #0
 800219e:	601a      	str	r2, [r3, #0]
 80021a0:	7bfb      	ldrb	r3, [r7, #15]
 80021a2:	687a      	ldr	r2, [r7, #4]
 80021a4:	330a      	adds	r3, #10
 80021a6:	015b      	lsls	r3, r3, #5
 80021a8:	4413      	add	r3, r2
 80021aa:	2200      	movs	r2, #0
 80021ac:	601a      	str	r2, [r3, #0]
 80021ae:	7bfb      	ldrb	r3, [r7, #15]
 80021b0:	3301      	adds	r3, #1
 80021b2:	73fb      	strb	r3, [r7, #15]
 80021b4:	7bfa      	ldrb	r2, [r7, #15]
 80021b6:	687b      	ldr	r3, [r7, #4]
 80021b8:	685b      	ldr	r3, [r3, #4]
 80021ba:	429a      	cmp	r2, r3
 80021bc:	d3c8      	bcc.n	8002150 <HAL_PCD_Init+0xc0>
 80021be:	687b      	ldr	r3, [r7, #4]
 80021c0:	681b      	ldr	r3, [r3, #0]
 80021c2:	603b      	str	r3, [r7, #0]
 80021c4:	687e      	ldr	r6, [r7, #4]
 80021c6:	466d      	mov	r5, sp
 80021c8:	f106 0410 	add.w	r4, r6, #16
 80021cc:	cc0f      	ldmia	r4!, {r0, r1, r2, r3}
 80021ce:	c50f      	stmia	r5!, {r0, r1, r2, r3}
 80021d0:	6823      	ldr	r3, [r4, #0]
 80021d2:	602b      	str	r3, [r5, #0]
 80021d4:	1d33      	adds	r3, r6, #4
 80021d6:	cb0e      	ldmia	r3, {r1, r2, r3}
 80021d8:	6838      	ldr	r0, [r7, #0]
 80021da:	f003 f8b2 	bl	8005342 <USB_DevInit>
 80021de:	687b      	ldr	r3, [r7, #4]
 80021e0:	2200      	movs	r2, #0
 80021e2:	f883 2024 	strb.w	r2, [r3, #36]	; 0x24
 80021e6:	687b      	ldr	r3, [r7, #4]
 80021e8:	2201      	movs	r2, #1
 80021ea:	f883 2229 	strb.w	r2, [r3, #553]	; 0x229
 80021ee:	2300      	movs	r3, #0
 80021f0:	4618      	mov	r0, r3
 80021f2:	3714      	adds	r7, #20
 80021f4:	46bd      	mov	sp, r7
 80021f6:	bdf0      	pop	{r4, r5, r6, r7, pc}

080021f8 <HAL_PCD_Start>:
 80021f8:	b580      	push	{r7, lr}
 80021fa:	b082      	sub	sp, #8
 80021fc:	af00      	add	r7, sp, #0
 80021fe:	6078      	str	r0, [r7, #4]
 8002200:	687b      	ldr	r3, [r7, #4]
 8002202:	f893 3228 	ldrb.w	r3, [r3, #552]	; 0x228
 8002206:	2b01      	cmp	r3, #1
 8002208:	d101      	bne.n	800220e <HAL_PCD_Start+0x16>
 800220a:	2302      	movs	r3, #2
 800220c:	e016      	b.n	800223c <HAL_PCD_Start+0x44>
 800220e:	687b      	ldr	r3, [r7, #4]
 8002210:	2201      	movs	r2, #1
 8002212:	f883 2228 	strb.w	r2, [r3, #552]	; 0x228
 8002216:	2101      	movs	r1, #1
 8002218:	6878      	ldr	r0, [r7, #4]
 800221a:	f000 fdd9 	bl	8002dd0 <HAL_PCDEx_SetConnectionState>
 800221e:	687b      	ldr	r3, [r7, #4]
 8002220:	681b      	ldr	r3, [r3, #0]
 8002222:	4618      	mov	r0, r3
 8002224:	f004 f8c3 	bl	80063ae <USB_DevConnect>
 8002228:	687b      	ldr	r3, [r7, #4]
 800222a:	681b      	ldr	r3, [r3, #0]
 800222c:	4618      	mov	r0, r3
 800222e:	f003 f855 	bl	80052dc <USB_EnableGlobalInt>
 8002232:	687b      	ldr	r3, [r7, #4]
 8002234:	2200      	movs	r2, #0
 8002236:	f883 2228 	strb.w	r2, [r3, #552]	; 0x228
 800223a:	2300      	movs	r3, #0
 800223c:	4618      	mov	r0, r3
 800223e:	3708      	adds	r7, #8
 8002240:	46bd      	mov	sp, r7
 8002242:	bd80      	pop	{r7, pc}

08002244 <HAL_PCD_IRQHandler>:
 8002244:	b580      	push	{r7, lr}
 8002246:	b082      	sub	sp, #8
 8002248:	af00      	add	r7, sp, #0
 800224a:	6078      	str	r0, [r7, #4]
 800224c:	687b      	ldr	r3, [r7, #4]
 800224e:	681b      	ldr	r3, [r3, #0]
 8002250:	4618      	mov	r0, r3
 8002252:	f004 f8b6 	bl	80063c2 <USB_ReadInterrupts>
 8002256:	4603      	mov	r3, r0
 8002258:	f403 4300 	and.w	r3, r3, #32768	; 0x8000
 800225c:	f5b3 4f00 	cmp.w	r3, #32768	; 0x8000
 8002260:	d102      	bne.n	8002268 <HAL_PCD_IRQHandler+0x24>
 8002262:	6878      	ldr	r0, [r7, #4]
 8002264:	f000 fae6 	bl	8002834 <PCD_EP_ISR_Handler>
 8002268:	687b      	ldr	r3, [r7, #4]
 800226a:	681b      	ldr	r3, [r3, #0]
 800226c:	4618      	mov	r0, r3
 800226e:	f004 f8a8 	bl	80063c2 <USB_ReadInterrupts>
 8002272:	4603      	mov	r3, r0
 8002274:	f403 6380 	and.w	r3, r3, #1024	; 0x400
 8002278:	f5b3 6f80 	cmp.w	r3, #1024	; 0x400
 800227c:	d112      	bne.n	80022a4 <HAL_PCD_IRQHandler+0x60>
 800227e:	687b      	ldr	r3, [r7, #4]
 8002280:	681b      	ldr	r3, [r3, #0]
 8002282:	f8b3 3044 	ldrh.w	r3, [r3, #68]	; 0x44
 8002286:	b29a      	uxth	r2, r3
 8002288:	687b      	ldr	r3, [r7, #4]
 800228a:	681b      	ldr	r3, [r3, #0]
 800228c:	f422 6280 	bic.w	r2, r2, #1024	; 0x400
 8002290:	b292      	uxth	r2, r2
 8002292:	f8a3 2044 	strh.w	r2, [r3, #68]	; 0x44
 8002296:	6878      	ldr	r0, [r7, #4]
 8002298:	f005 fed7 	bl	800804a <HAL_PCD_ResetCallback>
 800229c:	2100      	movs	r1, #0
 800229e:	6878      	ldr	r0, [r7, #4]
 80022a0:	f000 f8d2 	bl	8002448 <HAL_PCD_SetAddress>
 80022a4:	687b      	ldr	r3, [r7, #4]
 80022a6:	681b      	ldr	r3, [r3, #0]
 80022a8:	4618      	mov	r0, r3
 80022aa:	f004 f88a 	bl	80063c2 <USB_ReadInterrupts>
 80022ae:	4603      	mov	r3, r0
 80022b0:	f403 4380 	and.w	r3, r3, #16384	; 0x4000
 80022b4:	f5b3 4f80 	cmp.w	r3, #16384	; 0x4000
 80022b8:	d10b      	bne.n	80022d2 <HAL_PCD_IRQHandler+0x8e>
 80022ba:	687b      	ldr	r3, [r7, #4]
 80022bc:	681b      	ldr	r3, [r3, #0]
 80022be:	f8b3 3044 	ldrh.w	r3, [r3, #68]	; 0x44
 80022c2:	b29a      	uxth	r2, r3
 80022c4:	687b      	ldr	r3, [r7, #4]
 80022c6:	681b      	ldr	r3, [r3, #0]
 80022c8:	f422 4280 	bic.w	r2, r2, #16384	; 0x4000
 80022cc:	b292      	uxth	r2, r2
 80022ce:	f8a3 2044 	strh.w	r2, [r3, #68]	; 0x44
 80022d2:	687b      	ldr	r3, [r7, #4]
 80022d4:	681b      	ldr	r3, [r3, #0]
 80022d6:	4618      	mov	r0, r3
 80022d8:	f004 f873 	bl	80063c2 <USB_ReadInterrupts>
 80022dc:	4603      	mov	r3, r0
 80022de:	f403 5300 	and.w	r3, r3, #8192	; 0x2000
 80022e2:	f5b3 5f00 	cmp.w	r3, #8192	; 0x2000
 80022e6:	d10b      	bne.n	8002300 <HAL_PCD_IRQHandler+0xbc>
 80022e8:	687b      	ldr	r3, [r7, #4]
 80022ea:	681b      	ldr	r3, [r3, #0]
 80022ec:	f8b3 3044 	ldrh.w	r3, [r3, #68]	; 0x44
 80022f0:	b29a      	uxth	r2, r3
 80022f2:	687b      	ldr	r3, [r7, #4]
 80022f4:	681b      	ldr	r3, [r3, #0]
 80022f6:	f422 5200 	bic.w	r2, r2, #8192	; 0x2000
 80022fa:	b292      	uxth	r2, r2
 80022fc:	f8a3 2044 	strh.w	r2, [r3, #68]	; 0x44
 8002300:	687b      	ldr	r3, [r7, #4]
 8002302:	681b      	ldr	r3, [r3, #0]
 8002304:	4618      	mov	r0, r3
 8002306:	f004 f85c 	bl	80063c2 <USB_ReadInterrupts>
 800230a:	4603      	mov	r3, r0
 800230c:	f403 5380 	and.w	r3, r3, #4096	; 0x1000
 8002310:	f5b3 5f80 	cmp.w	r3, #4096	; 0x1000
 8002314:	d126      	bne.n	8002364 <HAL_PCD_IRQHandler+0x120>
 8002316:	687b      	ldr	r3, [r7, #4]
 8002318:	681b      	ldr	r3, [r3, #0]
 800231a:	f8b3 3040 	ldrh.w	r3, [r3, #64]	; 0x40
 800231e:	b29a      	uxth	r2, r3
 8002320:	687b      	ldr	r3, [r7, #4]
 8002322:	681b      	ldr	r3, [r3, #0]
 8002324:	f022 0204 	bic.w	r2, r2, #4
 8002328:	b292      	uxth	r2, r2
 800232a:	f8a3 2040 	strh.w	r2, [r3, #64]	; 0x40
 800232e:	687b      	ldr	r3, [r7, #4]
 8002330:	681b      	ldr	r3, [r3, #0]
 8002332:	f8b3 3040 	ldrh.w	r3, [r3, #64]	; 0x40
 8002336:	b29a      	uxth	r2, r3
 8002338:	687b      	ldr	r3, [r7, #4]
 800233a:	681b      	ldr	r3, [r3, #0]
 800233c:	f022 0208 	bic.w	r2, r2, #8
 8002340:	b292      	uxth	r2, r2
 8002342:	f8a3 2040 	strh.w	r2, [r3, #64]	; 0x40
 8002346:	6878      	ldr	r0, [r7, #4]
 8002348:	f005 feb8 	bl	80080bc <HAL_PCD_ResumeCallback>
 800234c:	687b      	ldr	r3, [r7, #4]
 800234e:	681b      	ldr	r3, [r3, #0]
 8002350:	f8b3 3044 	ldrh.w	r3, [r3, #68]	; 0x44
 8002354:	b29a      	uxth	r2, r3
 8002356:	687b      	ldr	r3, [r7, #4]
 8002358:	681b      	ldr	r3, [r3, #0]
 800235a:	f422 5280 	bic.w	r2, r2, #4096	; 0x1000
 800235e:	b292      	uxth	r2, r2
 8002360:	f8a3 2044 	strh.w	r2, [r3, #68]	; 0x44
 8002364:	687b      	ldr	r3, [r7, #4]
 8002366:	681b      	ldr	r3, [r3, #0]
 8002368:	4618      	mov	r0, r3
 800236a:	f004 f82a 	bl	80063c2 <USB_ReadInterrupts>
 800236e:	4603      	mov	r3, r0
 8002370:	f403 6300 	and.w	r3, r3, #2048	; 0x800
 8002374:	f5b3 6f00 	cmp.w	r3, #2048	; 0x800
 8002378:	d131      	bne.n	80023de <HAL_PCD_IRQHandler+0x19a>
 800237a:	687b      	ldr	r3, [r7, #4]
 800237c:	681b      	ldr	r3, [r3, #0]
 800237e:	f8b3 3040 	ldrh.w	r3, [r3, #64]	; 0x40
 8002382:	b29a      	uxth	r2, r3
 8002384:	687b      	ldr	r3, [r7, #4]
 8002386:	681b      	ldr	r3, [r3, #0]
 8002388:	f042 0208 	orr.w	r2, r2, #8
 800238c:	b292      	uxth	r2, r2
 800238e:	f8a3 2040 	strh.w	r2, [r3, #64]	; 0x40
 8002392:	687b      	ldr	r3, [r7, #4]
 8002394:	681b      	ldr	r3, [r3, #0]
 8002396:	f8b3 3044 	ldrh.w	r3, [r3, #68]	; 0x44
 800239a:	b29a      	uxth	r2, r3
 800239c:	687b      	ldr	r3, [r7, #4]
 800239e:	681b      	ldr	r3, [r3, #0]
 80023a0:	f422 6200 	bic.w	r2, r2, #2048	; 0x800
 80023a4:	b292      	uxth	r2, r2
 80023a6:	f8a3 2044 	strh.w	r2, [r3, #68]	; 0x44
 80023aa:	687b      	ldr	r3, [r7, #4]
 80023ac:	681b      	ldr	r3, [r3, #0]
 80023ae:	f8b3 3040 	ldrh.w	r3, [r3, #64]	; 0x40
 80023b2:	b29a      	uxth	r2, r3
 80023b4:	687b      	ldr	r3, [r7, #4]
 80023b6:	681b      	ldr	r3, [r3, #0]
 80023b8:	f042 0204 	orr.w	r2, r2, #4
 80023bc:	b292      	uxth	r2, r2
 80023be:	f8a3 2040 	strh.w	r2, [r3, #64]	; 0x40
 80023c2:	687b      	ldr	r3, [r7, #4]
 80023c4:	681b      	ldr	r3, [r3, #0]
 80023c6:	4618      	mov	r0, r3
 80023c8:	f003 fffb 	bl	80063c2 <USB_ReadInterrupts>
 80023cc:	4603      	mov	r3, r0
 80023ce:	f403 5380 	and.w	r3, r3, #4096	; 0x1000
 80023d2:	f5b3 5f80 	cmp.w	r3, #4096	; 0x1000
 80023d6:	d002      	beq.n	80023de <HAL_PCD_IRQHandler+0x19a>
 80023d8:	6878      	ldr	r0, [r7, #4]
 80023da:	f005 fe55 	bl	8008088 <HAL_PCD_SuspendCallback>
 80023de:	687b      	ldr	r3, [r7, #4]
 80023e0:	681b      	ldr	r3, [r3, #0]
 80023e2:	4618      	mov	r0, r3
 80023e4:	f003 ffed 	bl	80063c2 <USB_ReadInterrupts>
 80023e8:	4603      	mov	r3, r0
 80023ea:	f403 7300 	and.w	r3, r3, #512	; 0x200
 80023ee:	f5b3 7f00 	cmp.w	r3, #512	; 0x200
 80023f2:	d10e      	bne.n	8002412 <HAL_PCD_IRQHandler+0x1ce>
 80023f4:	687b      	ldr	r3, [r7, #4]
 80023f6:	681b      	ldr	r3, [r3, #0]
 80023f8:	f8b3 3044 	ldrh.w	r3, [r3, #68]	; 0x44
 80023fc:	b29a      	uxth	r2, r3
 80023fe:	687b      	ldr	r3, [r7, #4]
 8002400:	681b      	ldr	r3, [r3, #0]
 8002402:	f422 7200 	bic.w	r2, r2, #512	; 0x200
 8002406:	b292      	uxth	r2, r2
 8002408:	f8a3 2044 	strh.w	r2, [r3, #68]	; 0x44
 800240c:	6878      	ldr	r0, [r7, #4]
 800240e:	f005 fe0e 	bl	800802e <HAL_PCD_SOFCallback>
 8002412:	687b      	ldr	r3, [r7, #4]
 8002414:	681b      	ldr	r3, [r3, #0]
 8002416:	4618      	mov	r0, r3
 8002418:	f003 ffd3 	bl	80063c2 <USB_ReadInterrupts>
 800241c:	4603      	mov	r3, r0
 800241e:	f403 7380 	and.w	r3, r3, #256	; 0x100
 8002422:	f5b3 7f80 	cmp.w	r3, #256	; 0x100
 8002426:	d10b      	bne.n	8002440 <HAL_PCD_IRQHandler+0x1fc>
 8002428:	687b      	ldr	r3, [r7, #4]
 800242a:	681b      	ldr	r3, [r3, #0]
 800242c:	f8b3 3044 	ldrh.w	r3, [r3, #68]	; 0x44
 8002430:	b29a      	uxth	r2, r3
 8002432:	687b      	ldr	r3, [r7, #4]
 8002434:	681b      	ldr	r3, [r3, #0]
 8002436:	f422 7280 	bic.w	r2, r2, #256	; 0x100
 800243a:	b292      	uxth	r2, r2
 800243c:	f8a3 2044 	strh.w	r2, [r3, #68]	; 0x44
 8002440:	bf00      	nop
 8002442:	3708      	adds	r7, #8
 8002444:	46bd      	mov	sp, r7
 8002446:	bd80      	pop	{r7, pc}

08002448 <HAL_PCD_SetAddress>:
 8002448:	b580      	push	{r7, lr}
 800244a:	b082      	sub	sp, #8
 800244c:	af00      	add	r7, sp, #0
 800244e:	6078      	str	r0, [r7, #4]
 8002450:	460b      	mov	r3, r1
 8002452:	70fb      	strb	r3, [r7, #3]
 8002454:	687b      	ldr	r3, [r7, #4]
 8002456:	f893 3228 	ldrb.w	r3, [r3, #552]	; 0x228
 800245a:	2b01      	cmp	r3, #1
 800245c:	d101      	bne.n	8002462 <HAL_PCD_SetAddress+0x1a>
 800245e:	2302      	movs	r3, #2
 8002460:	e013      	b.n	800248a <HAL_PCD_SetAddress+0x42>
 8002462:	687b      	ldr	r3, [r7, #4]
 8002464:	2201      	movs	r2, #1
 8002466:	f883 2228 	strb.w	r2, [r3, #552]	; 0x228
 800246a:	687b      	ldr	r3, [r7, #4]
 800246c:	78fa      	ldrb	r2, [r7, #3]
 800246e:	f883 2024 	strb.w	r2, [r3, #36]	; 0x24
 8002472:	687b      	ldr	r3, [r7, #4]
 8002474:	681b      	ldr	r3, [r3, #0]
 8002476:	78fa      	ldrb	r2, [r7, #3]
 8002478:	4611      	mov	r1, r2
 800247a:	4618      	mov	r0, r3
 800247c:	f003 ff84 	bl	8006388 <USB_SetDevAddress>
 8002480:	687b      	ldr	r3, [r7, #4]
 8002482:	2200      	movs	r2, #0
 8002484:	f883 2228 	strb.w	r2, [r3, #552]	; 0x228
 8002488:	2300      	movs	r3, #0
 800248a:	4618      	mov	r0, r3
 800248c:	3708      	adds	r7, #8
 800248e:	46bd      	mov	sp, r7
 8002490:	bd80      	pop	{r7, pc}

08002492 <HAL_PCD_EP_Open>:
 8002492:	b580      	push	{r7, lr}
 8002494:	b084      	sub	sp, #16
 8002496:	af00      	add	r7, sp, #0
 8002498:	6078      	str	r0, [r7, #4]
 800249a:	4608      	mov	r0, r1
 800249c:	4611      	mov	r1, r2
 800249e:	461a      	mov	r2, r3
 80024a0:	4603      	mov	r3, r0
 80024a2:	70fb      	strb	r3, [r7, #3]
 80024a4:	460b      	mov	r3, r1
 80024a6:	803b      	strh	r3, [r7, #0]
 80024a8:	4613      	mov	r3, r2
 80024aa:	70bb      	strb	r3, [r7, #2]
 80024ac:	2300      	movs	r3, #0
 80024ae:	72fb      	strb	r3, [r7, #11]
 80024b0:	f997 3003 	ldrsb.w	r3, [r7, #3]
 80024b4:	2b00      	cmp	r3, #0
 80024b6:	da0b      	bge.n	80024d0 <HAL_PCD_EP_Open+0x3e>
 80024b8:	78fb      	ldrb	r3, [r7, #3]
 80024ba:	f003 0307 	and.w	r3, r3, #7
 80024be:	015b      	lsls	r3, r3, #5
 80024c0:	3328      	adds	r3, #40	; 0x28
 80024c2:	687a      	ldr	r2, [r7, #4]
 80024c4:	4413      	add	r3, r2
 80024c6:	60fb      	str	r3, [r7, #12]
 80024c8:	68fb      	ldr	r3, [r7, #12]
 80024ca:	2201      	movs	r2, #1
 80024cc:	705a      	strb	r2, [r3, #1]
 80024ce:	e00b      	b.n	80024e8 <HAL_PCD_EP_Open+0x56>
 80024d0:	78fb      	ldrb	r3, [r7, #3]
 80024d2:	f003 0307 	and.w	r3, r3, #7
 80024d6:	015b      	lsls	r3, r3, #5
 80024d8:	f503 7394 	add.w	r3, r3, #296	; 0x128
 80024dc:	687a      	ldr	r2, [r7, #4]
 80024de:	4413      	add	r3, r2
 80024e0:	60fb      	str	r3, [r7, #12]
 80024e2:	68fb      	ldr	r3, [r7, #12]
 80024e4:	2200      	movs	r2, #0
 80024e6:	705a      	strb	r2, [r3, #1]
 80024e8:	78fb      	ldrb	r3, [r7, #3]
 80024ea:	f003 0307 	and.w	r3, r3, #7
 80024ee:	b2da      	uxtb	r2, r3
 80024f0:	68fb      	ldr	r3, [r7, #12]
 80024f2:	701a      	strb	r2, [r3, #0]
 80024f4:	883a      	ldrh	r2, [r7, #0]
 80024f6:	68fb      	ldr	r3, [r7, #12]
 80024f8:	611a      	str	r2, [r3, #16]
 80024fa:	68fb      	ldr	r3, [r7, #12]
 80024fc:	78ba      	ldrb	r2, [r7, #2]
 80024fe:	70da      	strb	r2, [r3, #3]
 8002500:	68fb      	ldr	r3, [r7, #12]
 8002502:	785b      	ldrb	r3, [r3, #1]
 8002504:	2b00      	cmp	r3, #0
 8002506:	d004      	beq.n	8002512 <HAL_PCD_EP_Open+0x80>
 8002508:	68fb      	ldr	r3, [r7, #12]
 800250a:	781b      	ldrb	r3, [r3, #0]
 800250c:	b29a      	uxth	r2, r3
 800250e:	68fb      	ldr	r3, [r7, #12]
 8002510:	81da      	strh	r2, [r3, #14]
 8002512:	78bb      	ldrb	r3, [r7, #2]
 8002514:	2b02      	cmp	r3, #2
 8002516:	d102      	bne.n	800251e <HAL_PCD_EP_Open+0x8c>
 8002518:	68fb      	ldr	r3, [r7, #12]
 800251a:	2200      	movs	r2, #0
 800251c:	711a      	strb	r2, [r3, #4]
 800251e:	687b      	ldr	r3, [r7, #4]
 8002520:	f893 3228 	ldrb.w	r3, [r3, #552]	; 0x228
 8002524:	2b01      	cmp	r3, #1
 8002526:	d101      	bne.n	800252c <HAL_PCD_EP_Open+0x9a>
 8002528:	2302      	movs	r3, #2
 800252a:	e00e      	b.n	800254a <HAL_PCD_EP_Open+0xb8>
 800252c:	687b      	ldr	r3, [r7, #4]
 800252e:	2201      	movs	r2, #1
 8002530:	f883 2228 	strb.w	r2, [r3, #552]	; 0x228
 8002534:	687b      	ldr	r3, [r7, #4]
 8002536:	681b      	ldr	r3, [r3, #0]
 8002538:	68f9      	ldr	r1, [r7, #12]
 800253a:	4618      	mov	r0, r3
 800253c:	f002 ff26 	bl	800538c <USB_ActivateEndpoint>
 8002540:	687b      	ldr	r3, [r7, #4]
 8002542:	2200      	movs	r2, #0
 8002544:	f883 2228 	strb.w	r2, [r3, #552]	; 0x228
 8002548:	7afb      	ldrb	r3, [r7, #11]
 800254a:	4618      	mov	r0, r3
 800254c:	3710      	adds	r7, #16
 800254e:	46bd      	mov	sp, r7
 8002550:	bd80      	pop	{r7, pc}

08002552 <HAL_PCD_EP_Close>:
 8002552:	b580      	push	{r7, lr}
 8002554:	b084      	sub	sp, #16
 8002556:	af00      	add	r7, sp, #0
 8002558:	6078      	str	r0, [r7, #4]
 800255a:	460b      	mov	r3, r1
 800255c:	70fb      	strb	r3, [r7, #3]
 800255e:	f997 3003 	ldrsb.w	r3, [r7, #3]
 8002562:	2b00      	cmp	r3, #0
 8002564:	da0b      	bge.n	800257e <HAL_PCD_EP_Close+0x2c>
 8002566:	78fb      	ldrb	r3, [r7, #3]
 8002568:	f003 0307 	and.w	r3, r3, #7
 800256c:	015b      	lsls	r3, r3, #5
 800256e:	3328      	adds	r3, #40	; 0x28
 8002570:	687a      	ldr	r2, [r7, #4]
 8002572:	4413      	add	r3, r2
 8002574:	60fb      	str	r3, [r7, #12]
 8002576:	68fb      	ldr	r3, [r7, #12]
 8002578:	2201      	movs	r2, #1
 800257a:	705a      	strb	r2, [r3, #1]
 800257c:	e00b      	b.n	8002596 <HAL_PCD_EP_Close+0x44>
 800257e:	78fb      	ldrb	r3, [r7, #3]
 8002580:	f003 0307 	and.w	r3, r3, #7
 8002584:	015b      	lsls	r3, r3, #5
 8002586:	f503 7394 	add.w	r3, r3, #296	; 0x128
 800258a:	687a      	ldr	r2, [r7, #4]
 800258c:	4413      	add	r3, r2
 800258e:	60fb      	str	r3, [r7, #12]
 8002590:	68fb      	ldr	r3, [r7, #12]
 8002592:	2200      	movs	r2, #0
 8002594:	705a      	strb	r2, [r3, #1]
 8002596:	78fb      	ldrb	r3, [r7, #3]
 8002598:	f003 0307 	and.w	r3, r3, #7
 800259c:	b2da      	uxtb	r2, r3
 800259e:	68fb      	ldr	r3, [r7, #12]
 80025a0:	701a      	strb	r2, [r3, #0]
 80025a2:	687b      	ldr	r3, [r7, #4]
 80025a4:	f893 3228 	ldrb.w	r3, [r3, #552]	; 0x228
 80025a8:	2b01      	cmp	r3, #1
 80025aa:	d101      	bne.n	80025b0 <HAL_PCD_EP_Close+0x5e>
 80025ac:	2302      	movs	r3, #2
 80025ae:	e00e      	b.n	80025ce <HAL_PCD_EP_Close+0x7c>
 80025b0:	687b      	ldr	r3, [r7, #4]
 80025b2:	2201      	movs	r2, #1
 80025b4:	f883 2228 	strb.w	r2, [r3, #552]	; 0x228
 80025b8:	687b      	ldr	r3, [r7, #4]
 80025ba:	681b      	ldr	r3, [r3, #0]
 80025bc:	68f9      	ldr	r1, [r7, #12]
 80025be:	4618      	mov	r0, r3
 80025c0:	f003 f9cc 	bl	800595c <USB_DeactivateEndpoint>
 80025c4:	687b      	ldr	r3, [r7, #4]
 80025c6:	2200      	movs	r2, #0
 80025c8:	f883 2228 	strb.w	r2, [r3, #552]	; 0x228
 80025cc:	2300      	movs	r3, #0
 80025ce:	4618      	mov	r0, r3
 80025d0:	3710      	adds	r7, #16
 80025d2:	46bd      	mov	sp, r7
 80025d4:	bd80      	pop	{r7, pc}

080025d6 <HAL_PCD_EP_Receive>:
 80025d6:	b580      	push	{r7, lr}
 80025d8:	b086      	sub	sp, #24
 80025da:	af00      	add	r7, sp, #0
 80025dc:	60f8      	str	r0, [r7, #12]
 80025de:	607a      	str	r2, [r7, #4]
 80025e0:	603b      	str	r3, [r7, #0]
 80025e2:	460b      	mov	r3, r1
 80025e4:	72fb      	strb	r3, [r7, #11]
 80025e6:	7afb      	ldrb	r3, [r7, #11]
 80025e8:	f003 0307 	and.w	r3, r3, #7
 80025ec:	015b      	lsls	r3, r3, #5
 80025ee:	f503 7394 	add.w	r3, r3, #296	; 0x128
 80025f2:	68fa      	ldr	r2, [r7, #12]
 80025f4:	4413      	add	r3, r2
 80025f6:	617b      	str	r3, [r7, #20]
 80025f8:	697b      	ldr	r3, [r7, #20]
 80025fa:	687a      	ldr	r2, [r7, #4]
 80025fc:	615a      	str	r2, [r3, #20]
 80025fe:	697b      	ldr	r3, [r7, #20]
 8002600:	683a      	ldr	r2, [r7, #0]
 8002602:	619a      	str	r2, [r3, #24]
 8002604:	697b      	ldr	r3, [r7, #20]
 8002606:	2200      	movs	r2, #0
 8002608:	61da      	str	r2, [r3, #28]
 800260a:	697b      	ldr	r3, [r7, #20]
 800260c:	2200      	movs	r2, #0
 800260e:	705a      	strb	r2, [r3, #1]
 8002610:	7afb      	ldrb	r3, [r7, #11]
 8002612:	f003 0307 	and.w	r3, r3, #7
 8002616:	b2da      	uxtb	r2, r3
 8002618:	697b      	ldr	r3, [r7, #20]
 800261a:	701a      	strb	r2, [r3, #0]
 800261c:	7afb      	ldrb	r3, [r7, #11]
 800261e:	f003 0307 	and.w	r3, r3, #7
 8002622:	2b00      	cmp	r3, #0
 8002624:	d106      	bne.n	8002634 <HAL_PCD_EP_Receive+0x5e>
 8002626:	68fb      	ldr	r3, [r7, #12]
 8002628:	681b      	ldr	r3, [r3, #0]
 800262a:	6979      	ldr	r1, [r7, #20]
 800262c:	4618      	mov	r0, r3
 800262e:	f003 fb2b 	bl	8005c88 <USB_EPStartXfer>
 8002632:	e005      	b.n	8002640 <HAL_PCD_EP_Receive+0x6a>
 8002634:	68fb      	ldr	r3, [r7, #12]
 8002636:	681b      	ldr	r3, [r3, #0]
 8002638:	6979      	ldr	r1, [r7, #20]
 800263a:	4618      	mov	r0, r3
 800263c:	f003 fb24 	bl	8005c88 <USB_EPStartXfer>
 8002640:	2300      	movs	r3, #0
 8002642:	4618      	mov	r0, r3
 8002644:	3718      	adds	r7, #24
 8002646:	46bd      	mov	sp, r7
 8002648:	bd80      	pop	{r7, pc}

0800264a <HAL_PCD_EP_GetRxCount>:
 800264a:	b480      	push	{r7}
 800264c:	b083      	sub	sp, #12
 800264e:	af00      	add	r7, sp, #0
 8002650:	6078      	str	r0, [r7, #4]
 8002652:	460b      	mov	r3, r1
 8002654:	70fb      	strb	r3, [r7, #3]
 8002656:	78fb      	ldrb	r3, [r7, #3]
 8002658:	f003 0307 	and.w	r3, r3, #7
 800265c:	687a      	ldr	r2, [r7, #4]
 800265e:	330a      	adds	r3, #10
 8002660:	015b      	lsls	r3, r3, #5
 8002662:	4413      	add	r3, r2
 8002664:	3304      	adds	r3, #4
 8002666:	681b      	ldr	r3, [r3, #0]
 8002668:	4618      	mov	r0, r3
 800266a:	370c      	adds	r7, #12
 800266c:	46bd      	mov	sp, r7
 800266e:	bc80      	pop	{r7}
 8002670:	4770      	bx	lr

08002672 <HAL_PCD_EP_Transmit>:
 8002672:	b580      	push	{r7, lr}
 8002674:	b086      	sub	sp, #24
 8002676:	af00      	add	r7, sp, #0
 8002678:	60f8      	str	r0, [r7, #12]
 800267a:	607a      	str	r2, [r7, #4]
 800267c:	603b      	str	r3, [r7, #0]
 800267e:	460b      	mov	r3, r1
 8002680:	72fb      	strb	r3, [r7, #11]
 8002682:	7afb      	ldrb	r3, [r7, #11]
 8002684:	f003 0307 	and.w	r3, r3, #7
 8002688:	015b      	lsls	r3, r3, #5
 800268a:	3328      	adds	r3, #40	; 0x28
 800268c:	68fa      	ldr	r2, [r7, #12]
 800268e:	4413      	add	r3, r2
 8002690:	617b      	str	r3, [r7, #20]
 8002692:	697b      	ldr	r3, [r7, #20]
 8002694:	687a      	ldr	r2, [r7, #4]
 8002696:	615a      	str	r2, [r3, #20]
 8002698:	697b      	ldr	r3, [r7, #20]
 800269a:	683a      	ldr	r2, [r7, #0]
 800269c:	619a      	str	r2, [r3, #24]
 800269e:	697b      	ldr	r3, [r7, #20]
 80026a0:	2200      	movs	r2, #0
 80026a2:	61da      	str	r2, [r3, #28]
 80026a4:	697b      	ldr	r3, [r7, #20]
 80026a6:	2201      	movs	r2, #1
 80026a8:	705a      	strb	r2, [r3, #1]
 80026aa:	7afb      	ldrb	r3, [r7, #11]
 80026ac:	f003 0307 	and.w	r3, r3, #7
 80026b0:	b2da      	uxtb	r2, r3
 80026b2:	697b      	ldr	r3, [r7, #20]
 80026b4:	701a      	strb	r2, [r3, #0]
 80026b6:	7afb      	ldrb	r3, [r7, #11]
 80026b8:	f003 0307 	and.w	r3, r3, #7
 80026bc:	2b00      	cmp	r3, #0
 80026be:	d106      	bne.n	80026ce <HAL_PCD_EP_Transmit+0x5c>
 80026c0:	68fb      	ldr	r3, [r7, #12]
 80026c2:	681b      	ldr	r3, [r3, #0]
 80026c4:	6979      	ldr	r1, [r7, #20]
 80026c6:	4618      	mov	r0, r3
 80026c8:	f003 fade 	bl	8005c88 <USB_EPStartXfer>
 80026cc:	e005      	b.n	80026da <HAL_PCD_EP_Transmit+0x68>
 80026ce:	68fb      	ldr	r3, [r7, #12]
 80026d0:	681b      	ldr	r3, [r3, #0]
 80026d2:	6979      	ldr	r1, [r7, #20]
 80026d4:	4618      	mov	r0, r3
 80026d6:	f003 fad7 	bl	8005c88 <USB_EPStartXfer>
 80026da:	2300      	movs	r3, #0
 80026dc:	4618      	mov	r0, r3
 80026de:	3718      	adds	r7, #24
 80026e0:	46bd      	mov	sp, r7
 80026e2:	bd80      	pop	{r7, pc}

080026e4 <HAL_PCD_EP_SetStall>:
 80026e4:	b580      	push	{r7, lr}
 80026e6:	b084      	sub	sp, #16
 80026e8:	af00      	add	r7, sp, #0
 80026ea:	6078      	str	r0, [r7, #4]
 80026ec:	460b      	mov	r3, r1
 80026ee:	70fb      	strb	r3, [r7, #3]
 80026f0:	78fb      	ldrb	r3, [r7, #3]
 80026f2:	f003 0207 	and.w	r2, r3, #7
 80026f6:	687b      	ldr	r3, [r7, #4]
 80026f8:	685b      	ldr	r3, [r3, #4]
 80026fa:	429a      	cmp	r2, r3
 80026fc:	d901      	bls.n	8002702 <HAL_PCD_EP_SetStall+0x1e>
 80026fe:	2301      	movs	r3, #1
 8002700:	e046      	b.n	8002790 <HAL_PCD_EP_SetStall+0xac>
 8002702:	f997 3003 	ldrsb.w	r3, [r7, #3]
 8002706:	2b00      	cmp	r3, #0
 8002708:	da0b      	bge.n	8002722 <HAL_PCD_EP_SetStall+0x3e>
 800270a:	78fb      	ldrb	r3, [r7, #3]
 800270c:	f003 0307 	and.w	r3, r3, #7
 8002710:	015b      	lsls	r3, r3, #5
 8002712:	3328      	adds	r3, #40	; 0x28
 8002714:	687a      	ldr	r2, [r7, #4]
 8002716:	4413      	add	r3, r2
 8002718:	60fb      	str	r3, [r7, #12]
 800271a:	68fb      	ldr	r3, [r7, #12]
 800271c:	2201      	movs	r2, #1
 800271e:	705a      	strb	r2, [r3, #1]
 8002720:	e009      	b.n	8002736 <HAL_PCD_EP_SetStall+0x52>
 8002722:	78fb      	ldrb	r3, [r7, #3]
 8002724:	015b      	lsls	r3, r3, #5
 8002726:	f503 7394 	add.w	r3, r3, #296	; 0x128
 800272a:	687a      	ldr	r2, [r7, #4]
 800272c:	4413      	add	r3, r2
 800272e:	60fb      	str	r3, [r7, #12]
 8002730:	68fb      	ldr	r3, [r7, #12]
 8002732:	2200      	movs	r2, #0
 8002734:	705a      	strb	r2, [r3, #1]
 8002736:	68fb      	ldr	r3, [r7, #12]
 8002738:	2201      	movs	r2, #1
 800273a:	709a      	strb	r2, [r3, #2]
 800273c:	78fb      	ldrb	r3, [r7, #3]
 800273e:	f003 0307 	and.w	r3, r3, #7
 8002742:	b2da      	uxtb	r2, r3
 8002744:	68fb      	ldr	r3, [r7, #12]
 8002746:	701a      	strb	r2, [r3, #0]
 8002748:	687b      	ldr	r3, [r7, #4]
 800274a:	f893 3228 	ldrb.w	r3, [r3, #552]	; 0x228
 800274e:	2b01      	cmp	r3, #1
 8002750:	d101      	bne.n	8002756 <HAL_PCD_EP_SetStall+0x72>
 8002752:	2302      	movs	r3, #2
 8002754:	e01c      	b.n	8002790 <HAL_PCD_EP_SetStall+0xac>
 8002756:	687b      	ldr	r3, [r7, #4]
 8002758:	2201      	movs	r2, #1
 800275a:	f883 2228 	strb.w	r2, [r3, #552]	; 0x228
 800275e:	687b      	ldr	r3, [r7, #4]
 8002760:	681b      	ldr	r3, [r3, #0]
 8002762:	68f9      	ldr	r1, [r7, #12]
 8002764:	4618      	mov	r0, r3
 8002766:	f003 fd39 	bl	80061dc <USB_EPSetStall>
 800276a:	78fb      	ldrb	r3, [r7, #3]
 800276c:	f003 0307 	and.w	r3, r3, #7
 8002770:	2b00      	cmp	r3, #0
 8002772:	d108      	bne.n	8002786 <HAL_PCD_EP_SetStall+0xa2>
 8002774:	687b      	ldr	r3, [r7, #4]
 8002776:	681a      	ldr	r2, [r3, #0]
 8002778:	687b      	ldr	r3, [r7, #4]
 800277a:	f503 730c 	add.w	r3, r3, #560	; 0x230
 800277e:	4619      	mov	r1, r3
 8002780:	4610      	mov	r0, r2
 8002782:	f003 fe2d 	bl	80063e0 <USB_EP0_OutStart>
 8002786:	687b      	ldr	r3, [r7, #4]
 8002788:	2200      	movs	r2, #0
 800278a:	f883 2228 	strb.w	r2, [r3, #552]	; 0x228
 800278e:	2300      	movs	r3, #0
 8002790:	4618      	mov	r0, r3
 8002792:	3710      	adds	r7, #16
 8002794:	46bd      	mov	sp, r7
 8002796:	bd80      	pop	{r7, pc}

08002798 <HAL_PCD_EP_ClrStall>:
 8002798:	b580      	push	{r7, lr}
 800279a:	b084      	sub	sp, #16
 800279c:	af00      	add	r7, sp, #0
 800279e:	6078      	str	r0, [r7, #4]
 80027a0:	460b      	mov	r3, r1
 80027a2:	70fb      	strb	r3, [r7, #3]
 80027a4:	78fb      	ldrb	r3, [r7, #3]
 80027a6:	f003 020f 	and.w	r2, r3, #15
 80027aa:	687b      	ldr	r3, [r7, #4]
 80027ac:	685b      	ldr	r3, [r3, #4]
 80027ae:	429a      	cmp	r2, r3
 80027b0:	d901      	bls.n	80027b6 <HAL_PCD_EP_ClrStall+0x1e>
 80027b2:	2301      	movs	r3, #1
 80027b4:	e03a      	b.n	800282c <HAL_PCD_EP_ClrStall+0x94>
 80027b6:	f997 3003 	ldrsb.w	r3, [r7, #3]
 80027ba:	2b00      	cmp	r3, #0
 80027bc:	da0b      	bge.n	80027d6 <HAL_PCD_EP_ClrStall+0x3e>
 80027be:	78fb      	ldrb	r3, [r7, #3]
 80027c0:	f003 0307 	and.w	r3, r3, #7
 80027c4:	015b      	lsls	r3, r3, #5
 80027c6:	3328      	adds	r3, #40	; 0x28
 80027c8:	687a      	ldr	r2, [r7, #4]
 80027ca:	4413      	add	r3, r2
 80027cc:	60fb      	str	r3, [r7, #12]
 80027ce:	68fb      	ldr	r3, [r7, #12]
 80027d0:	2201      	movs	r2, #1
 80027d2:	705a      	strb	r2, [r3, #1]
 80027d4:	e00b      	b.n	80027ee <HAL_PCD_EP_ClrStall+0x56>
 80027d6:	78fb      	ldrb	r3, [r7, #3]
 80027d8:	f003 0307 	and.w	r3, r3, #7
 80027dc:	015b      	lsls	r3, r3, #5
 80027de:	f503 7394 	add.w	r3, r3, #296	; 0x128
 80027e2:	687a      	ldr	r2, [r7, #4]
 80027e4:	4413      	add	r3, r2
 80027e6:	60fb      	str	r3, [r7, #12]
 80027e8:	68fb      	ldr	r3, [r7, #12]
 80027ea:	2200      	movs	r2, #0
 80027ec:	705a      	strb	r2, [r3, #1]
 80027ee:	68fb      	ldr	r3, [r7, #12]
 80027f0:	2200      	movs	r2, #0
 80027f2:	709a      	strb	r2, [r3, #2]
 80027f4:	78fb      	ldrb	r3, [r7, #3]
 80027f6:	f003 0307 	and.w	r3, r3, #7
 80027fa:	b2da      	uxtb	r2, r3
 80027fc:	68fb      	ldr	r3, [r7, #12]
 80027fe:	701a      	strb	r2, [r3, #0]
 8002800:	687b      	ldr	r3, [r7, #4]
 8002802:	f893 3228 	ldrb.w	r3, [r3, #552]	; 0x228
 8002806:	2b01      	cmp	r3, #1
 8002808:	d101      	bne.n	800280e <HAL_PCD_EP_ClrStall+0x76>
 800280a:	2302      	movs	r3, #2
 800280c:	e00e      	b.n	800282c <HAL_PCD_EP_ClrStall+0x94>
 800280e:	687b      	ldr	r3, [r7, #4]
 8002810:	2201      	movs	r2, #1
 8002812:	f883 2228 	strb.w	r2, [r3, #552]	; 0x228
 8002816:	687b      	ldr	r3, [r7, #4]
 8002818:	681b      	ldr	r3, [r3, #0]
 800281a:	68f9      	ldr	r1, [r7, #12]
 800281c:	4618      	mov	r0, r3
 800281e:	f003 fd1f 	bl	8006260 <USB_EPClearStall>
 8002822:	687b      	ldr	r3, [r7, #4]
 8002824:	2200      	movs	r2, #0
 8002826:	f883 2228 	strb.w	r2, [r3, #552]	; 0x228
 800282a:	2300      	movs	r3, #0
 800282c:	4618      	mov	r0, r3
 800282e:	3710      	adds	r7, #16
 8002830:	46bd      	mov	sp, r7
 8002832:	bd80      	pop	{r7, pc}

08002834 <PCD_EP_ISR_Handler>:
 8002834:	b590      	push	{r4, r7, lr}
 8002836:	b089      	sub	sp, #36	; 0x24
 8002838:	af00      	add	r7, sp, #0
 800283a:	6078      	str	r0, [r7, #4]
 800283c:	e27d      	b.n	8002d3a <PCD_EP_ISR_Handler+0x506>
 800283e:	687b      	ldr	r3, [r7, #4]
 8002840:	681b      	ldr	r3, [r3, #0]
 8002842:	f8b3 3044 	ldrh.w	r3, [r3, #68]	; 0x44
 8002846:	82fb      	strh	r3, [r7, #22]
 8002848:	8afb      	ldrh	r3, [r7, #22]
 800284a:	b2db      	uxtb	r3, r3
 800284c:	f003 030f 	and.w	r3, r3, #15
 8002850:	757b      	strb	r3, [r7, #21]
 8002852:	7d7b      	ldrb	r3, [r7, #21]
 8002854:	2b00      	cmp	r3, #0
 8002856:	f040 8139 	bne.w	8002acc <PCD_EP_ISR_Handler+0x298>
 800285a:	8afb      	ldrh	r3, [r7, #22]
 800285c:	f003 0310 	and.w	r3, r3, #16
 8002860:	2b00      	cmp	r3, #0
 8002862:	d151      	bne.n	8002908 <PCD_EP_ISR_Handler+0xd4>
 8002864:	687b      	ldr	r3, [r7, #4]
 8002866:	681b      	ldr	r3, [r3, #0]
 8002868:	881b      	ldrh	r3, [r3, #0]
 800286a:	b29b      	uxth	r3, r3
 800286c:	f423 43e1 	bic.w	r3, r3, #28800	; 0x7080
 8002870:	f023 0370 	bic.w	r3, r3, #112	; 0x70
 8002874:	b29c      	uxth	r4, r3
 8002876:	687b      	ldr	r3, [r7, #4]
 8002878:	681a      	ldr	r2, [r3, #0]
 800287a:	ea6f 4344 	mvn.w	r3, r4, lsl #17
 800287e:	ea6f 4353 	mvn.w	r3, r3, lsr #17
 8002882:	b29b      	uxth	r3, r3
 8002884:	8013      	strh	r3, [r2, #0]
 8002886:	687b      	ldr	r3, [r7, #4]
 8002888:	3328      	adds	r3, #40	; 0x28
 800288a:	60fb      	str	r3, [r7, #12]
 800288c:	687b      	ldr	r3, [r7, #4]
 800288e:	681b      	ldr	r3, [r3, #0]
 8002890:	f8b3 3050 	ldrh.w	r3, [r3, #80]	; 0x50
 8002894:	b29b      	uxth	r3, r3
 8002896:	461a      	mov	r2, r3
 8002898:	68fb      	ldr	r3, [r7, #12]
 800289a:	781b      	ldrb	r3, [r3, #0]
 800289c:	00db      	lsls	r3, r3, #3
 800289e:	4413      	add	r3, r2
 80028a0:	3302      	adds	r3, #2
 80028a2:	005b      	lsls	r3, r3, #1
 80028a4:	687a      	ldr	r2, [r7, #4]
 80028a6:	6812      	ldr	r2, [r2, #0]
 80028a8:	4413      	add	r3, r2
 80028aa:	f503 6380 	add.w	r3, r3, #1024	; 0x400
 80028ae:	881b      	ldrh	r3, [r3, #0]
 80028b0:	f3c3 0209 	ubfx	r2, r3, #0, #10
 80028b4:	68fb      	ldr	r3, [r7, #12]
 80028b6:	61da      	str	r2, [r3, #28]
 80028b8:	68fb      	ldr	r3, [r7, #12]
 80028ba:	695a      	ldr	r2, [r3, #20]
 80028bc:	68fb      	ldr	r3, [r7, #12]
 80028be:	69db      	ldr	r3, [r3, #28]
 80028c0:	441a      	add	r2, r3
 80028c2:	68fb      	ldr	r3, [r7, #12]
 80028c4:	615a      	str	r2, [r3, #20]
 80028c6:	2100      	movs	r1, #0
 80028c8:	6878      	ldr	r0, [r7, #4]
 80028ca:	f005 fb99 	bl	8008000 <HAL_PCD_DataInStageCallback>
 80028ce:	687b      	ldr	r3, [r7, #4]
 80028d0:	f893 3024 	ldrb.w	r3, [r3, #36]	; 0x24
 80028d4:	b2db      	uxtb	r3, r3
 80028d6:	2b00      	cmp	r3, #0
 80028d8:	f000 822f 	beq.w	8002d3a <PCD_EP_ISR_Handler+0x506>
 80028dc:	68fb      	ldr	r3, [r7, #12]
 80028de:	699b      	ldr	r3, [r3, #24]
 80028e0:	2b00      	cmp	r3, #0
 80028e2:	f040 822a 	bne.w	8002d3a <PCD_EP_ISR_Handler+0x506>
 80028e6:	687b      	ldr	r3, [r7, #4]
 80028e8:	f893 3024 	ldrb.w	r3, [r3, #36]	; 0x24
 80028ec:	b2db      	uxtb	r3, r3
 80028ee:	f063 037f 	orn	r3, r3, #127	; 0x7f
 80028f2:	b2da      	uxtb	r2, r3
 80028f4:	687b      	ldr	r3, [r7, #4]
 80028f6:	681b      	ldr	r3, [r3, #0]
 80028f8:	b292      	uxth	r2, r2
 80028fa:	f8a3 204c 	strh.w	r2, [r3, #76]	; 0x4c
 80028fe:	687b      	ldr	r3, [r7, #4]
 8002900:	2200      	movs	r2, #0
 8002902:	f883 2024 	strb.w	r2, [r3, #36]	; 0x24
 8002906:	e218      	b.n	8002d3a <PCD_EP_ISR_Handler+0x506>
 8002908:	687b      	ldr	r3, [r7, #4]
 800290a:	f503 7394 	add.w	r3, r3, #296	; 0x128
 800290e:	60fb      	str	r3, [r7, #12]
 8002910:	687b      	ldr	r3, [r7, #4]
 8002912:	681b      	ldr	r3, [r3, #0]
 8002914:	881b      	ldrh	r3, [r3, #0]
 8002916:	827b      	strh	r3, [r7, #18]
 8002918:	8a7b      	ldrh	r3, [r7, #18]
 800291a:	f403 6300 	and.w	r3, r3, #2048	; 0x800
 800291e:	2b00      	cmp	r3, #0
 8002920:	d033      	beq.n	800298a <PCD_EP_ISR_Handler+0x156>
 8002922:	687b      	ldr	r3, [r7, #4]
 8002924:	681b      	ldr	r3, [r3, #0]
 8002926:	f8b3 3050 	ldrh.w	r3, [r3, #80]	; 0x50
 800292a:	b29b      	uxth	r3, r3
 800292c:	461a      	mov	r2, r3
 800292e:	68fb      	ldr	r3, [r7, #12]
 8002930:	781b      	ldrb	r3, [r3, #0]
 8002932:	00db      	lsls	r3, r3, #3
 8002934:	4413      	add	r3, r2
 8002936:	3306      	adds	r3, #6
 8002938:	005b      	lsls	r3, r3, #1
 800293a:	687a      	ldr	r2, [r7, #4]
 800293c:	6812      	ldr	r2, [r2, #0]
 800293e:	4413      	add	r3, r2
 8002940:	f503 6380 	add.w	r3, r3, #1024	; 0x400
 8002944:	881b      	ldrh	r3, [r3, #0]
 8002946:	f3c3 0209 	ubfx	r2, r3, #0, #10
 800294a:	68fb      	ldr	r3, [r7, #12]
 800294c:	61da      	str	r2, [r3, #28]
 800294e:	687b      	ldr	r3, [r7, #4]
 8002950:	6818      	ldr	r0, [r3, #0]
 8002952:	687b      	ldr	r3, [r7, #4]
 8002954:	f503 710c 	add.w	r1, r3, #560	; 0x230
 8002958:	68fb      	ldr	r3, [r7, #12]
 800295a:	88da      	ldrh	r2, [r3, #6]
 800295c:	68fb      	ldr	r3, [r7, #12]
 800295e:	69db      	ldr	r3, [r3, #28]
 8002960:	b29b      	uxth	r3, r3
 8002962:	f003 fd8d 	bl	8006480 <USB_ReadPMA>
 8002966:	687b      	ldr	r3, [r7, #4]
 8002968:	681b      	ldr	r3, [r3, #0]
 800296a:	881b      	ldrh	r3, [r3, #0]
 800296c:	b29a      	uxth	r2, r3
 800296e:	f640 738f 	movw	r3, #3983	; 0xf8f
 8002972:	4013      	ands	r3, r2
 8002974:	b29c      	uxth	r4, r3
 8002976:	687b      	ldr	r3, [r7, #4]
 8002978:	681b      	ldr	r3, [r3, #0]
 800297a:	f044 0280 	orr.w	r2, r4, #128	; 0x80
 800297e:	b292      	uxth	r2, r2
 8002980:	801a      	strh	r2, [r3, #0]
 8002982:	6878      	ldr	r0, [r7, #4]
 8002984:	f005 fb12 	bl	8007fac <HAL_PCD_SetupStageCallback>
 8002988:	e1d7      	b.n	8002d3a <PCD_EP_ISR_Handler+0x506>
 800298a:	f9b7 3012 	ldrsh.w	r3, [r7, #18]
 800298e:	2b00      	cmp	r3, #0
 8002990:	f280 81d3 	bge.w	8002d3a <PCD_EP_ISR_Handler+0x506>
 8002994:	687b      	ldr	r3, [r7, #4]
 8002996:	681b      	ldr	r3, [r3, #0]
 8002998:	881b      	ldrh	r3, [r3, #0]
 800299a:	b29a      	uxth	r2, r3
 800299c:	f640 738f 	movw	r3, #3983	; 0xf8f
 80029a0:	4013      	ands	r3, r2
 80029a2:	b29c      	uxth	r4, r3
 80029a4:	687b      	ldr	r3, [r7, #4]
 80029a6:	681b      	ldr	r3, [r3, #0]
 80029a8:	f044 0280 	orr.w	r2, r4, #128	; 0x80
 80029ac:	b292      	uxth	r2, r2
 80029ae:	801a      	strh	r2, [r3, #0]
 80029b0:	687b      	ldr	r3, [r7, #4]
 80029b2:	681b      	ldr	r3, [r3, #0]
 80029b4:	f8b3 3050 	ldrh.w	r3, [r3, #80]	; 0x50
 80029b8:	b29b      	uxth	r3, r3
 80029ba:	461a      	mov	r2, r3
 80029bc:	68fb      	ldr	r3, [r7, #12]
 80029be:	781b      	ldrb	r3, [r3, #0]
 80029c0:	00db      	lsls	r3, r3, #3
 80029c2:	4413      	add	r3, r2
 80029c4:	3306      	adds	r3, #6
 80029c6:	005b      	lsls	r3, r3, #1
 80029c8:	687a      	ldr	r2, [r7, #4]
 80029ca:	6812      	ldr	r2, [r2, #0]
 80029cc:	4413      	add	r3, r2
 80029ce:	f503 6380 	add.w	r3, r3, #1024	; 0x400
 80029d2:	881b      	ldrh	r3, [r3, #0]
 80029d4:	f3c3 0209 	ubfx	r2, r3, #0, #10
 80029d8:	68fb      	ldr	r3, [r7, #12]
 80029da:	61da      	str	r2, [r3, #28]
 80029dc:	68fb      	ldr	r3, [r7, #12]
 80029de:	69db      	ldr	r3, [r3, #28]
 80029e0:	2b00      	cmp	r3, #0
 80029e2:	d011      	beq.n	8002a08 <PCD_EP_ISR_Handler+0x1d4>
 80029e4:	687b      	ldr	r3, [r7, #4]
 80029e6:	6818      	ldr	r0, [r3, #0]
 80029e8:	68fb      	ldr	r3, [r7, #12]
 80029ea:	6959      	ldr	r1, [r3, #20]
 80029ec:	68fb      	ldr	r3, [r7, #12]
 80029ee:	88da      	ldrh	r2, [r3, #6]
 80029f0:	68fb      	ldr	r3, [r7, #12]
 80029f2:	69db      	ldr	r3, [r3, #28]
 80029f4:	b29b      	uxth	r3, r3
 80029f6:	f003 fd43 	bl	8006480 <USB_ReadPMA>
 80029fa:	68fb      	ldr	r3, [r7, #12]
 80029fc:	695a      	ldr	r2, [r3, #20]
 80029fe:	68fb      	ldr	r3, [r7, #12]
 8002a00:	69db      	ldr	r3, [r3, #28]
 8002a02:	441a      	add	r2, r3
 8002a04:	68fb      	ldr	r3, [r7, #12]
 8002a06:	615a      	str	r2, [r3, #20]
 8002a08:	2100      	movs	r1, #0
 8002a0a:	6878      	ldr	r0, [r7, #4]
 8002a0c:	f005 fae0 	bl	8007fd0 <HAL_PCD_DataOutStageCallback>
 8002a10:	687b      	ldr	r3, [r7, #4]
 8002a12:	681b      	ldr	r3, [r3, #0]
 8002a14:	461c      	mov	r4, r3
 8002a16:	687b      	ldr	r3, [r7, #4]
 8002a18:	681b      	ldr	r3, [r3, #0]
 8002a1a:	f8b3 3050 	ldrh.w	r3, [r3, #80]	; 0x50
 8002a1e:	b29b      	uxth	r3, r3
 8002a20:	441c      	add	r4, r3
 8002a22:	f204 430c 	addw	r3, r4, #1036	; 0x40c
 8002a26:	60bb      	str	r3, [r7, #8]
 8002a28:	68fb      	ldr	r3, [r7, #12]
 8002a2a:	691b      	ldr	r3, [r3, #16]
 8002a2c:	2b00      	cmp	r3, #0
 8002a2e:	d110      	bne.n	8002a52 <PCD_EP_ISR_Handler+0x21e>
 8002a30:	68bb      	ldr	r3, [r7, #8]
 8002a32:	881b      	ldrh	r3, [r3, #0]
 8002a34:	f423 43f8 	bic.w	r3, r3, #31744	; 0x7c00
 8002a38:	b29a      	uxth	r2, r3
 8002a3a:	68bb      	ldr	r3, [r7, #8]
 8002a3c:	801a      	strh	r2, [r3, #0]
 8002a3e:	68bb      	ldr	r3, [r7, #8]
 8002a40:	881b      	ldrh	r3, [r3, #0]
 8002a42:	ea6f 4343 	mvn.w	r3, r3, lsl #17
 8002a46:	ea6f 4353 	mvn.w	r3, r3, lsr #17
 8002a4a:	b29a      	uxth	r2, r3
 8002a4c:	68bb      	ldr	r3, [r7, #8]
 8002a4e:	801a      	strh	r2, [r3, #0]
 8002a50:	e026      	b.n	8002aa0 <PCD_EP_ISR_Handler+0x26c>
 8002a52:	68fb      	ldr	r3, [r7, #12]
 8002a54:	691b      	ldr	r3, [r3, #16]
 8002a56:	2b3d      	cmp	r3, #61	; 0x3d
 8002a58:	d813      	bhi.n	8002a82 <PCD_EP_ISR_Handler+0x24e>
 8002a5a:	68fb      	ldr	r3, [r7, #12]
 8002a5c:	691b      	ldr	r3, [r3, #16]
 8002a5e:	085b      	lsrs	r3, r3, #1
 8002a60:	61bb      	str	r3, [r7, #24]
 8002a62:	68fb      	ldr	r3, [r7, #12]
 8002a64:	691b      	ldr	r3, [r3, #16]
 8002a66:	f003 0301 	and.w	r3, r3, #1
 8002a6a:	2b00      	cmp	r3, #0
 8002a6c:	d002      	beq.n	8002a74 <PCD_EP_ISR_Handler+0x240>
 8002a6e:	69bb      	ldr	r3, [r7, #24]
 8002a70:	3301      	adds	r3, #1
 8002a72:	61bb      	str	r3, [r7, #24]
 8002a74:	69bb      	ldr	r3, [r7, #24]
 8002a76:	b29b      	uxth	r3, r3
 8002a78:	029b      	lsls	r3, r3, #10
 8002a7a:	b29a      	uxth	r2, r3
 8002a7c:	68bb      	ldr	r3, [r7, #8]
 8002a7e:	801a      	strh	r2, [r3, #0]
 8002a80:	e00e      	b.n	8002aa0 <PCD_EP_ISR_Handler+0x26c>
 8002a82:	68fb      	ldr	r3, [r7, #12]
 8002a84:	691b      	ldr	r3, [r3, #16]
 8002a86:	095b      	lsrs	r3, r3, #5
 8002a88:	61bb      	str	r3, [r7, #24]
 8002a8a:	69bb      	ldr	r3, [r7, #24]
 8002a8c:	b29b      	uxth	r3, r3
 8002a8e:	029b      	lsls	r3, r3, #10
 8002a90:	b29b      	uxth	r3, r3
 8002a92:	ea6f 4343 	mvn.w	r3, r3, lsl #17
 8002a96:	ea6f 4353 	mvn.w	r3, r3, lsr #17
 8002a9a:	b29a      	uxth	r2, r3
 8002a9c:	68bb      	ldr	r3, [r7, #8]
 8002a9e:	801a      	strh	r2, [r3, #0]
 8002aa0:	687b      	ldr	r3, [r7, #4]
 8002aa2:	681b      	ldr	r3, [r3, #0]
 8002aa4:	881b      	ldrh	r3, [r3, #0]
 8002aa6:	b29b      	uxth	r3, r3
 8002aa8:	f423 4380 	bic.w	r3, r3, #16384	; 0x4000
 8002aac:	f023 0370 	bic.w	r3, r3, #112	; 0x70
 8002ab0:	b29c      	uxth	r4, r3
 8002ab2:	f484 5380 	eor.w	r3, r4, #4096	; 0x1000
 8002ab6:	b29c      	uxth	r4, r3
 8002ab8:	f484 5300 	eor.w	r3, r4, #8192	; 0x2000
 8002abc:	b29c      	uxth	r4, r3
 8002abe:	687b      	ldr	r3, [r7, #4]
 8002ac0:	681a      	ldr	r2, [r3, #0]
 8002ac2:	4b97      	ldr	r3, [pc, #604]	; (8002d20 <PCD_EP_ISR_Handler+0x4ec>)
 8002ac4:	4323      	orrs	r3, r4
 8002ac6:	b29b      	uxth	r3, r3
 8002ac8:	8013      	strh	r3, [r2, #0]
 8002aca:	e136      	b.n	8002d3a <PCD_EP_ISR_Handler+0x506>
 8002acc:	687b      	ldr	r3, [r7, #4]
 8002ace:	681b      	ldr	r3, [r3, #0]
 8002ad0:	461a      	mov	r2, r3
 8002ad2:	7d7b      	ldrb	r3, [r7, #21]
 8002ad4:	009b      	lsls	r3, r3, #2
 8002ad6:	4413      	add	r3, r2
 8002ad8:	881b      	ldrh	r3, [r3, #0]
 8002ada:	827b      	strh	r3, [r7, #18]
 8002adc:	f9b7 3012 	ldrsh.w	r3, [r7, #18]
 8002ae0:	2b00      	cmp	r3, #0
 8002ae2:	f280 80d1 	bge.w	8002c88 <PCD_EP_ISR_Handler+0x454>
 8002ae6:	687b      	ldr	r3, [r7, #4]
 8002ae8:	681b      	ldr	r3, [r3, #0]
 8002aea:	461a      	mov	r2, r3
 8002aec:	7d7b      	ldrb	r3, [r7, #21]
 8002aee:	009b      	lsls	r3, r3, #2
 8002af0:	4413      	add	r3, r2
 8002af2:	881b      	ldrh	r3, [r3, #0]
 8002af4:	b29a      	uxth	r2, r3
 8002af6:	f640 738f 	movw	r3, #3983	; 0xf8f
 8002afa:	4013      	ands	r3, r2
 8002afc:	b29c      	uxth	r4, r3
 8002afe:	687b      	ldr	r3, [r7, #4]
 8002b00:	681b      	ldr	r3, [r3, #0]
 8002b02:	461a      	mov	r2, r3
 8002b04:	7d7b      	ldrb	r3, [r7, #21]
 8002b06:	009b      	lsls	r3, r3, #2
 8002b08:	4413      	add	r3, r2
 8002b0a:	f044 0280 	orr.w	r2, r4, #128	; 0x80
 8002b0e:	b292      	uxth	r2, r2
 8002b10:	801a      	strh	r2, [r3, #0]
 8002b12:	7d7b      	ldrb	r3, [r7, #21]
 8002b14:	015b      	lsls	r3, r3, #5
 8002b16:	f503 7394 	add.w	r3, r3, #296	; 0x128
 8002b1a:	687a      	ldr	r2, [r7, #4]
 8002b1c:	4413      	add	r3, r2
 8002b1e:	60fb      	str	r3, [r7, #12]
 8002b20:	68fb      	ldr	r3, [r7, #12]
 8002b22:	7b1b      	ldrb	r3, [r3, #12]
 8002b24:	2b00      	cmp	r3, #0
 8002b26:	d121      	bne.n	8002b6c <PCD_EP_ISR_Handler+0x338>
 8002b28:	687b      	ldr	r3, [r7, #4]
 8002b2a:	681b      	ldr	r3, [r3, #0]
 8002b2c:	f8b3 3050 	ldrh.w	r3, [r3, #80]	; 0x50
 8002b30:	b29b      	uxth	r3, r3
 8002b32:	461a      	mov	r2, r3
 8002b34:	68fb      	ldr	r3, [r7, #12]
 8002b36:	781b      	ldrb	r3, [r3, #0]
 8002b38:	00db      	lsls	r3, r3, #3
 8002b3a:	4413      	add	r3, r2
 8002b3c:	3306      	adds	r3, #6
 8002b3e:	005b      	lsls	r3, r3, #1
 8002b40:	687a      	ldr	r2, [r7, #4]
 8002b42:	6812      	ldr	r2, [r2, #0]
 8002b44:	4413      	add	r3, r2
 8002b46:	f503 6380 	add.w	r3, r3, #1024	; 0x400
 8002b4a:	881b      	ldrh	r3, [r3, #0]
 8002b4c:	f3c3 0309 	ubfx	r3, r3, #0, #10
 8002b50:	83fb      	strh	r3, [r7, #30]
 8002b52:	8bfb      	ldrh	r3, [r7, #30]
 8002b54:	2b00      	cmp	r3, #0
 8002b56:	d072      	beq.n	8002c3e <PCD_EP_ISR_Handler+0x40a>
 8002b58:	687b      	ldr	r3, [r7, #4]
 8002b5a:	6818      	ldr	r0, [r3, #0]
 8002b5c:	68fb      	ldr	r3, [r7, #12]
 8002b5e:	6959      	ldr	r1, [r3, #20]
 8002b60:	68fb      	ldr	r3, [r7, #12]
 8002b62:	88da      	ldrh	r2, [r3, #6]
 8002b64:	8bfb      	ldrh	r3, [r7, #30]
 8002b66:	f003 fc8b 	bl	8006480 <USB_ReadPMA>
 8002b6a:	e068      	b.n	8002c3e <PCD_EP_ISR_Handler+0x40a>
 8002b6c:	687b      	ldr	r3, [r7, #4]
 8002b6e:	681b      	ldr	r3, [r3, #0]
 8002b70:	461a      	mov	r2, r3
 8002b72:	68fb      	ldr	r3, [r7, #12]
 8002b74:	781b      	ldrb	r3, [r3, #0]
 8002b76:	009b      	lsls	r3, r3, #2
 8002b78:	4413      	add	r3, r2
 8002b7a:	881b      	ldrh	r3, [r3, #0]
 8002b7c:	b29b      	uxth	r3, r3
 8002b7e:	f403 4380 	and.w	r3, r3, #16384	; 0x4000
 8002b82:	2b00      	cmp	r3, #0
 8002b84:	d021      	beq.n	8002bca <PCD_EP_ISR_Handler+0x396>
 8002b86:	687b      	ldr	r3, [r7, #4]
 8002b88:	681b      	ldr	r3, [r3, #0]
 8002b8a:	f8b3 3050 	ldrh.w	r3, [r3, #80]	; 0x50
 8002b8e:	b29b      	uxth	r3, r3
 8002b90:	461a      	mov	r2, r3
 8002b92:	68fb      	ldr	r3, [r7, #12]
 8002b94:	781b      	ldrb	r3, [r3, #0]
 8002b96:	00db      	lsls	r3, r3, #3
 8002b98:	4413      	add	r3, r2
 8002b9a:	3302      	adds	r3, #2
 8002b9c:	005b      	lsls	r3, r3, #1
 8002b9e:	687a      	ldr	r2, [r7, #4]
 8002ba0:	6812      	ldr	r2, [r2, #0]
 8002ba2:	4413      	add	r3, r2
 8002ba4:	f503 6380 	add.w	r3, r3, #1024	; 0x400
 8002ba8:	881b      	ldrh	r3, [r3, #0]
 8002baa:	f3c3 0309 	ubfx	r3, r3, #0, #10
 8002bae:	83fb      	strh	r3, [r7, #30]
 8002bb0:	8bfb      	ldrh	r3, [r7, #30]
 8002bb2:	2b00      	cmp	r3, #0
 8002bb4:	d02a      	beq.n	8002c0c <PCD_EP_ISR_Handler+0x3d8>
 8002bb6:	687b      	ldr	r3, [r7, #4]
 8002bb8:	6818      	ldr	r0, [r3, #0]
 8002bba:	68fb      	ldr	r3, [r7, #12]
 8002bbc:	6959      	ldr	r1, [r3, #20]
 8002bbe:	68fb      	ldr	r3, [r7, #12]
 8002bc0:	891a      	ldrh	r2, [r3, #8]
 8002bc2:	8bfb      	ldrh	r3, [r7, #30]
 8002bc4:	f003 fc5c 	bl	8006480 <USB_ReadPMA>
 8002bc8:	e020      	b.n	8002c0c <PCD_EP_ISR_Handler+0x3d8>
 8002bca:	687b      	ldr	r3, [r7, #4]
 8002bcc:	681b      	ldr	r3, [r3, #0]
 8002bce:	f8b3 3050 	ldrh.w	r3, [r3, #80]	; 0x50
 8002bd2:	b29b      	uxth	r3, r3
 8002bd4:	461a      	mov	r2, r3
 8002bd6:	68fb      	ldr	r3, [r7, #12]
 8002bd8:	781b      	ldrb	r3, [r3, #0]
 8002bda:	00db      	lsls	r3, r3, #3
 8002bdc:	4413      	add	r3, r2
 8002bde:	3306      	adds	r3, #6
 8002be0:	005b      	lsls	r3, r3, #1
 8002be2:	687a      	ldr	r2, [r7, #4]
 8002be4:	6812      	ldr	r2, [r2, #0]
 8002be6:	4413      	add	r3, r2
 8002be8:	f503 6380 	add.w	r3, r3, #1024	; 0x400
 8002bec:	881b      	ldrh	r3, [r3, #0]
 8002bee:	f3c3 0309 	ubfx	r3, r3, #0, #10
 8002bf2:	83fb      	strh	r3, [r7, #30]
 8002bf4:	8bfb      	ldrh	r3, [r7, #30]
 8002bf6:	2b00      	cmp	r3, #0
 8002bf8:	d008      	beq.n	8002c0c <PCD_EP_ISR_Handler+0x3d8>
 8002bfa:	687b      	ldr	r3, [r7, #4]
 8002bfc:	6818      	ldr	r0, [r3, #0]
 8002bfe:	68fb      	ldr	r3, [r7, #12]
 8002c00:	6959      	ldr	r1, [r3, #20]
 8002c02:	68fb      	ldr	r3, [r7, #12]
 8002c04:	895a      	ldrh	r2, [r3, #10]
 8002c06:	8bfb      	ldrh	r3, [r7, #30]
 8002c08:	f003 fc3a 	bl	8006480 <USB_ReadPMA>
 8002c0c:	687b      	ldr	r3, [r7, #4]
 8002c0e:	681b      	ldr	r3, [r3, #0]
 8002c10:	461a      	mov	r2, r3
 8002c12:	68fb      	ldr	r3, [r7, #12]
 8002c14:	781b      	ldrb	r3, [r3, #0]
 8002c16:	009b      	lsls	r3, r3, #2
 8002c18:	4413      	add	r3, r2
 8002c1a:	881b      	ldrh	r3, [r3, #0]
 8002c1c:	b29b      	uxth	r3, r3
 8002c1e:	f423 43e0 	bic.w	r3, r3, #28672	; 0x7000
 8002c22:	f023 0370 	bic.w	r3, r3, #112	; 0x70
 8002c26:	b29c      	uxth	r4, r3
 8002c28:	687b      	ldr	r3, [r7, #4]
 8002c2a:	681b      	ldr	r3, [r3, #0]
 8002c2c:	461a      	mov	r2, r3
 8002c2e:	68fb      	ldr	r3, [r7, #12]
 8002c30:	781b      	ldrb	r3, [r3, #0]
 8002c32:	009b      	lsls	r3, r3, #2
 8002c34:	441a      	add	r2, r3
 8002c36:	4b3b      	ldr	r3, [pc, #236]	; (8002d24 <PCD_EP_ISR_Handler+0x4f0>)
 8002c38:	4323      	orrs	r3, r4
 8002c3a:	b29b      	uxth	r3, r3
 8002c3c:	8013      	strh	r3, [r2, #0]
 8002c3e:	68fb      	ldr	r3, [r7, #12]
 8002c40:	69da      	ldr	r2, [r3, #28]
 8002c42:	8bfb      	ldrh	r3, [r7, #30]
 8002c44:	441a      	add	r2, r3
 8002c46:	68fb      	ldr	r3, [r7, #12]
 8002c48:	61da      	str	r2, [r3, #28]
 8002c4a:	68fb      	ldr	r3, [r7, #12]
 8002c4c:	695a      	ldr	r2, [r3, #20]
 8002c4e:	8bfb      	ldrh	r3, [r7, #30]
 8002c50:	441a      	add	r2, r3
 8002c52:	68fb      	ldr	r3, [r7, #12]
 8002c54:	615a      	str	r2, [r3, #20]
 8002c56:	68fb      	ldr	r3, [r7, #12]
 8002c58:	699b      	ldr	r3, [r3, #24]
 8002c5a:	2b00      	cmp	r3, #0
 8002c5c:	d004      	beq.n	8002c68 <PCD_EP_ISR_Handler+0x434>
 8002c5e:	8bfa      	ldrh	r2, [r7, #30]
 8002c60:	68fb      	ldr	r3, [r7, #12]
 8002c62:	691b      	ldr	r3, [r3, #16]
 8002c64:	429a      	cmp	r2, r3
 8002c66:	d206      	bcs.n	8002c76 <PCD_EP_ISR_Handler+0x442>
 8002c68:	68fb      	ldr	r3, [r7, #12]
 8002c6a:	781b      	ldrb	r3, [r3, #0]
 8002c6c:	4619      	mov	r1, r3
 8002c6e:	6878      	ldr	r0, [r7, #4]
 8002c70:	f005 f9ae 	bl	8007fd0 <HAL_PCD_DataOutStageCallback>
 8002c74:	e008      	b.n	8002c88 <PCD_EP_ISR_Handler+0x454>
 8002c76:	68fb      	ldr	r3, [r7, #12]
 8002c78:	7819      	ldrb	r1, [r3, #0]
 8002c7a:	68fb      	ldr	r3, [r7, #12]
 8002c7c:	695a      	ldr	r2, [r3, #20]
 8002c7e:	68fb      	ldr	r3, [r7, #12]
 8002c80:	699b      	ldr	r3, [r3, #24]
 8002c82:	6878      	ldr	r0, [r7, #4]
 8002c84:	f7ff fca7 	bl	80025d6 <HAL_PCD_EP_Receive>
 8002c88:	8a7b      	ldrh	r3, [r7, #18]
 8002c8a:	f003 0380 	and.w	r3, r3, #128	; 0x80
 8002c8e:	2b00      	cmp	r3, #0
 8002c90:	d053      	beq.n	8002d3a <PCD_EP_ISR_Handler+0x506>
 8002c92:	7d7b      	ldrb	r3, [r7, #21]
 8002c94:	015b      	lsls	r3, r3, #5
 8002c96:	3328      	adds	r3, #40	; 0x28
 8002c98:	687a      	ldr	r2, [r7, #4]
 8002c9a:	4413      	add	r3, r2
 8002c9c:	60fb      	str	r3, [r7, #12]
 8002c9e:	687b      	ldr	r3, [r7, #4]
 8002ca0:	681b      	ldr	r3, [r3, #0]
 8002ca2:	461a      	mov	r2, r3
 8002ca4:	7d7b      	ldrb	r3, [r7, #21]
 8002ca6:	009b      	lsls	r3, r3, #2
 8002ca8:	4413      	add	r3, r2
 8002caa:	881b      	ldrh	r3, [r3, #0]
 8002cac:	b29b      	uxth	r3, r3
 8002cae:	f423 43e1 	bic.w	r3, r3, #28800	; 0x7080
 8002cb2:	f023 0370 	bic.w	r3, r3, #112	; 0x70
 8002cb6:	b29c      	uxth	r4, r3
 8002cb8:	687b      	ldr	r3, [r7, #4]
 8002cba:	681b      	ldr	r3, [r3, #0]
 8002cbc:	461a      	mov	r2, r3
 8002cbe:	7d7b      	ldrb	r3, [r7, #21]
 8002cc0:	009b      	lsls	r3, r3, #2
 8002cc2:	441a      	add	r2, r3
 8002cc4:	ea6f 4344 	mvn.w	r3, r4, lsl #17
 8002cc8:	ea6f 4353 	mvn.w	r3, r3, lsr #17
 8002ccc:	b29b      	uxth	r3, r3
 8002cce:	8013      	strh	r3, [r2, #0]
 8002cd0:	687b      	ldr	r3, [r7, #4]
 8002cd2:	681b      	ldr	r3, [r3, #0]
 8002cd4:	f8b3 3050 	ldrh.w	r3, [r3, #80]	; 0x50
 8002cd8:	b29b      	uxth	r3, r3
 8002cda:	461a      	mov	r2, r3
 8002cdc:	68fb      	ldr	r3, [r7, #12]
 8002cde:	781b      	ldrb	r3, [r3, #0]
 8002ce0:	00db      	lsls	r3, r3, #3
 8002ce2:	4413      	add	r3, r2
 8002ce4:	3302      	adds	r3, #2
 8002ce6:	005b      	lsls	r3, r3, #1
 8002ce8:	687a      	ldr	r2, [r7, #4]
 8002cea:	6812      	ldr	r2, [r2, #0]
 8002cec:	4413      	add	r3, r2
 8002cee:	f503 6380 	add.w	r3, r3, #1024	; 0x400
 8002cf2:	881b      	ldrh	r3, [r3, #0]
 8002cf4:	f3c3 0209 	ubfx	r2, r3, #0, #10
 8002cf8:	68fb      	ldr	r3, [r7, #12]
 8002cfa:	61da      	str	r2, [r3, #28]
 8002cfc:	68fb      	ldr	r3, [r7, #12]
 8002cfe:	695a      	ldr	r2, [r3, #20]
 8002d00:	68fb      	ldr	r3, [r7, #12]
 8002d02:	69db      	ldr	r3, [r3, #28]
 8002d04:	441a      	add	r2, r3
 8002d06:	68fb      	ldr	r3, [r7, #12]
 8002d08:	615a      	str	r2, [r3, #20]
 8002d0a:	68fb      	ldr	r3, [r7, #12]
 8002d0c:	699b      	ldr	r3, [r3, #24]
 8002d0e:	2b00      	cmp	r3, #0
 8002d10:	d10a      	bne.n	8002d28 <PCD_EP_ISR_Handler+0x4f4>
 8002d12:	68fb      	ldr	r3, [r7, #12]
 8002d14:	781b      	ldrb	r3, [r3, #0]
 8002d16:	4619      	mov	r1, r3
 8002d18:	6878      	ldr	r0, [r7, #4]
 8002d1a:	f005 f971 	bl	8008000 <HAL_PCD_DataInStageCallback>
 8002d1e:	e00c      	b.n	8002d3a <PCD_EP_ISR_Handler+0x506>
 8002d20:	ffff8080 	.word	0xffff8080
 8002d24:	ffff80c0 	.word	0xffff80c0
 8002d28:	68fb      	ldr	r3, [r7, #12]
 8002d2a:	7819      	ldrb	r1, [r3, #0]
 8002d2c:	68fb      	ldr	r3, [r7, #12]
 8002d2e:	695a      	ldr	r2, [r3, #20]
 8002d30:	68fb      	ldr	r3, [r7, #12]
 8002d32:	699b      	ldr	r3, [r3, #24]
 8002d34:	6878      	ldr	r0, [r7, #4]
 8002d36:	f7ff fc9c 	bl	8002672 <HAL_PCD_EP_Transmit>
 8002d3a:	687b      	ldr	r3, [r7, #4]
 8002d3c:	681b      	ldr	r3, [r3, #0]
 8002d3e:	f8b3 3044 	ldrh.w	r3, [r3, #68]	; 0x44
 8002d42:	b29b      	uxth	r3, r3
 8002d44:	b21b      	sxth	r3, r3
 8002d46:	2b00      	cmp	r3, #0
 8002d48:	f6ff ad79 	blt.w	800283e <PCD_EP_ISR_Handler+0xa>
 8002d4c:	2300      	movs	r3, #0
 8002d4e:	4618      	mov	r0, r3
 8002d50:	3724      	adds	r7, #36	; 0x24
 8002d52:	46bd      	mov	sp, r7
 8002d54:	bd90      	pop	{r4, r7, pc}
 8002d56:	bf00      	nop

08002d58 <HAL_PCDEx_PMAConfig>:
 8002d58:	b480      	push	{r7}
 8002d5a:	b087      	sub	sp, #28
 8002d5c:	af00      	add	r7, sp, #0
 8002d5e:	60f8      	str	r0, [r7, #12]
 8002d60:	607b      	str	r3, [r7, #4]
 8002d62:	460b      	mov	r3, r1
 8002d64:	817b      	strh	r3, [r7, #10]
 8002d66:	4613      	mov	r3, r2
 8002d68:	813b      	strh	r3, [r7, #8]
 8002d6a:	897b      	ldrh	r3, [r7, #10]
 8002d6c:	f003 0380 	and.w	r3, r3, #128	; 0x80
 8002d70:	b29b      	uxth	r3, r3
 8002d72:	2b00      	cmp	r3, #0
 8002d74:	d008      	beq.n	8002d88 <HAL_PCDEx_PMAConfig+0x30>
 8002d76:	897b      	ldrh	r3, [r7, #10]
 8002d78:	f003 0307 	and.w	r3, r3, #7
 8002d7c:	015b      	lsls	r3, r3, #5
 8002d7e:	3328      	adds	r3, #40	; 0x28
 8002d80:	68fa      	ldr	r2, [r7, #12]
 8002d82:	4413      	add	r3, r2
 8002d84:	617b      	str	r3, [r7, #20]
 8002d86:	e006      	b.n	8002d96 <HAL_PCDEx_PMAConfig+0x3e>
 8002d88:	897b      	ldrh	r3, [r7, #10]
 8002d8a:	015b      	lsls	r3, r3, #5
 8002d8c:	f503 7394 	add.w	r3, r3, #296	; 0x128
 8002d90:	68fa      	ldr	r2, [r7, #12]
 8002d92:	4413      	add	r3, r2
 8002d94:	617b      	str	r3, [r7, #20]
 8002d96:	893b      	ldrh	r3, [r7, #8]
 8002d98:	2b00      	cmp	r3, #0
 8002d9a:	d107      	bne.n	8002dac <HAL_PCDEx_PMAConfig+0x54>
 8002d9c:	697b      	ldr	r3, [r7, #20]
 8002d9e:	2200      	movs	r2, #0
 8002da0:	731a      	strb	r2, [r3, #12]
 8002da2:	687b      	ldr	r3, [r7, #4]
 8002da4:	b29a      	uxth	r2, r3
 8002da6:	697b      	ldr	r3, [r7, #20]
 8002da8:	80da      	strh	r2, [r3, #6]
 8002daa:	e00b      	b.n	8002dc4 <HAL_PCDEx_PMAConfig+0x6c>
 8002dac:	697b      	ldr	r3, [r7, #20]
 8002dae:	2201      	movs	r2, #1
 8002db0:	731a      	strb	r2, [r3, #12]
 8002db2:	687b      	ldr	r3, [r7, #4]
 8002db4:	b29a      	uxth	r2, r3
 8002db6:	697b      	ldr	r3, [r7, #20]
 8002db8:	811a      	strh	r2, [r3, #8]
 8002dba:	687b      	ldr	r3, [r7, #4]
 8002dbc:	0c1b      	lsrs	r3, r3, #16
 8002dbe:	b29a      	uxth	r2, r3
 8002dc0:	697b      	ldr	r3, [r7, #20]
 8002dc2:	815a      	strh	r2, [r3, #10]
 8002dc4:	2300      	movs	r3, #0
 8002dc6:	4618      	mov	r0, r3
 8002dc8:	371c      	adds	r7, #28
 8002dca:	46bd      	mov	sp, r7
 8002dcc:	bc80      	pop	{r7}
 8002dce:	4770      	bx	lr

08002dd0 <HAL_PCDEx_SetConnectionState>:
 8002dd0:	b480      	push	{r7}
 8002dd2:	b083      	sub	sp, #12
 8002dd4:	af00      	add	r7, sp, #0
 8002dd6:	6078      	str	r0, [r7, #4]
 8002dd8:	460b      	mov	r3, r1
 8002dda:	70fb      	strb	r3, [r7, #3]
 8002ddc:	bf00      	nop
 8002dde:	370c      	adds	r7, #12
 8002de0:	46bd      	mov	sp, r7
 8002de2:	bc80      	pop	{r7}
 8002de4:	4770      	bx	lr
	...

08002de8 <HAL_RCC_OscConfig>:
 8002de8:	b580      	push	{r7, lr}
 8002dea:	b088      	sub	sp, #32
 8002dec:	af00      	add	r7, sp, #0
 8002dee:	6078      	str	r0, [r7, #4]
 8002df0:	687b      	ldr	r3, [r7, #4]
 8002df2:	2b00      	cmp	r3, #0
 8002df4:	d101      	bne.n	8002dfa <HAL_RCC_OscConfig+0x12>
 8002df6:	2301      	movs	r3, #1
 8002df8:	e31d      	b.n	8003436 <HAL_RCC_OscConfig+0x64e>
 8002dfa:	4b94      	ldr	r3, [pc, #592]	; (800304c <HAL_RCC_OscConfig+0x264>)
 8002dfc:	689b      	ldr	r3, [r3, #8]
 8002dfe:	f003 030c 	and.w	r3, r3, #12
 8002e02:	61bb      	str	r3, [r7, #24]
 8002e04:	4b91      	ldr	r3, [pc, #580]	; (800304c <HAL_RCC_OscConfig+0x264>)
 8002e06:	689b      	ldr	r3, [r3, #8]
 8002e08:	f403 3380 	and.w	r3, r3, #65536	; 0x10000
 8002e0c:	617b      	str	r3, [r7, #20]
 8002e0e:	687b      	ldr	r3, [r7, #4]
 8002e10:	681b      	ldr	r3, [r3, #0]
 8002e12:	f003 0301 	and.w	r3, r3, #1
 8002e16:	2b00      	cmp	r3, #0
 8002e18:	d07b      	beq.n	8002f12 <HAL_RCC_OscConfig+0x12a>
 8002e1a:	69bb      	ldr	r3, [r7, #24]
 8002e1c:	2b08      	cmp	r3, #8
 8002e1e:	d006      	beq.n	8002e2e <HAL_RCC_OscConfig+0x46>
 8002e20:	69bb      	ldr	r3, [r7, #24]
 8002e22:	2b0c      	cmp	r3, #12
 8002e24:	d10f      	bne.n	8002e46 <HAL_RCC_OscConfig+0x5e>
 8002e26:	697b      	ldr	r3, [r7, #20]
 8002e28:	f5b3 3f80 	cmp.w	r3, #65536	; 0x10000
 8002e2c:	d10b      	bne.n	8002e46 <HAL_RCC_OscConfig+0x5e>
 8002e2e:	4b87      	ldr	r3, [pc, #540]	; (800304c <HAL_RCC_OscConfig+0x264>)
 8002e30:	681b      	ldr	r3, [r3, #0]
 8002e32:	f403 3300 	and.w	r3, r3, #131072	; 0x20000
 8002e36:	2b00      	cmp	r3, #0
 8002e38:	d06a      	beq.n	8002f10 <HAL_RCC_OscConfig+0x128>
 8002e3a:	687b      	ldr	r3, [r7, #4]
 8002e3c:	685b      	ldr	r3, [r3, #4]
 8002e3e:	2b00      	cmp	r3, #0
 8002e40:	d166      	bne.n	8002f10 <HAL_RCC_OscConfig+0x128>
 8002e42:	2301      	movs	r3, #1
 8002e44:	e2f7      	b.n	8003436 <HAL_RCC_OscConfig+0x64e>
 8002e46:	687b      	ldr	r3, [r7, #4]
 8002e48:	685b      	ldr	r3, [r3, #4]
 8002e4a:	2b01      	cmp	r3, #1
 8002e4c:	d106      	bne.n	8002e5c <HAL_RCC_OscConfig+0x74>
 8002e4e:	4b7f      	ldr	r3, [pc, #508]	; (800304c <HAL_RCC_OscConfig+0x264>)
 8002e50:	681b      	ldr	r3, [r3, #0]
 8002e52:	4a7e      	ldr	r2, [pc, #504]	; (800304c <HAL_RCC_OscConfig+0x264>)
 8002e54:	f443 3380 	orr.w	r3, r3, #65536	; 0x10000
 8002e58:	6013      	str	r3, [r2, #0]
 8002e5a:	e02d      	b.n	8002eb8 <HAL_RCC_OscConfig+0xd0>
 8002e5c:	687b      	ldr	r3, [r7, #4]
 8002e5e:	685b      	ldr	r3, [r3, #4]
 8002e60:	2b00      	cmp	r3, #0
 8002e62:	d10c      	bne.n	8002e7e <HAL_RCC_OscConfig+0x96>
 8002e64:	4b79      	ldr	r3, [pc, #484]	; (800304c <HAL_RCC_OscConfig+0x264>)
 8002e66:	681b      	ldr	r3, [r3, #0]
 8002e68:	4a78      	ldr	r2, [pc, #480]	; (800304c <HAL_RCC_OscConfig+0x264>)
 8002e6a:	f423 3380 	bic.w	r3, r3, #65536	; 0x10000
 8002e6e:	6013      	str	r3, [r2, #0]
 8002e70:	4b76      	ldr	r3, [pc, #472]	; (800304c <HAL_RCC_OscConfig+0x264>)
 8002e72:	681b      	ldr	r3, [r3, #0]
 8002e74:	4a75      	ldr	r2, [pc, #468]	; (800304c <HAL_RCC_OscConfig+0x264>)
 8002e76:	f423 2380 	bic.w	r3, r3, #262144	; 0x40000
 8002e7a:	6013      	str	r3, [r2, #0]
 8002e7c:	e01c      	b.n	8002eb8 <HAL_RCC_OscConfig+0xd0>
 8002e7e:	687b      	ldr	r3, [r7, #4]
 8002e80:	685b      	ldr	r3, [r3, #4]
 8002e82:	2b05      	cmp	r3, #5
 8002e84:	d10c      	bne.n	8002ea0 <HAL_RCC_OscConfig+0xb8>
 8002e86:	4b71      	ldr	r3, [pc, #452]	; (800304c <HAL_RCC_OscConfig+0x264>)
 8002e88:	681b      	ldr	r3, [r3, #0]
 8002e8a:	4a70      	ldr	r2, [pc, #448]	; (800304c <HAL_RCC_OscConfig+0x264>)
 8002e8c:	f443 2380 	orr.w	r3, r3, #262144	; 0x40000
 8002e90:	6013      	str	r3, [r2, #0]
 8002e92:	4b6e      	ldr	r3, [pc, #440]	; (800304c <HAL_RCC_OscConfig+0x264>)
 8002e94:	681b      	ldr	r3, [r3, #0]
 8002e96:	4a6d      	ldr	r2, [pc, #436]	; (800304c <HAL_RCC_OscConfig+0x264>)
 8002e98:	f443 3380 	orr.w	r3, r3, #65536	; 0x10000
 8002e9c:	6013      	str	r3, [r2, #0]
 8002e9e:	e00b      	b.n	8002eb8 <HAL_RCC_OscConfig+0xd0>
 8002ea0:	4b6a      	ldr	r3, [pc, #424]	; (800304c <HAL_RCC_OscConfig+0x264>)
 8002ea2:	681b      	ldr	r3, [r3, #0]
 8002ea4:	4a69      	ldr	r2, [pc, #420]	; (800304c <HAL_RCC_OscConfig+0x264>)
 8002ea6:	f423 3380 	bic.w	r3, r3, #65536	; 0x10000
 8002eaa:	6013      	str	r3, [r2, #0]
 8002eac:	4b67      	ldr	r3, [pc, #412]	; (800304c <HAL_RCC_OscConfig+0x264>)
 8002eae:	681b      	ldr	r3, [r3, #0]
 8002eb0:	4a66      	ldr	r2, [pc, #408]	; (800304c <HAL_RCC_OscConfig+0x264>)
 8002eb2:	f423 2380 	bic.w	r3, r3, #262144	; 0x40000
 8002eb6:	6013      	str	r3, [r2, #0]
 8002eb8:	687b      	ldr	r3, [r7, #4]
 8002eba:	685b      	ldr	r3, [r3, #4]
 8002ebc:	2b00      	cmp	r3, #0
 8002ebe:	d013      	beq.n	8002ee8 <HAL_RCC_OscConfig+0x100>
 8002ec0:	f7fe fe14 	bl	8001aec <HAL_GetTick>
 8002ec4:	6138      	str	r0, [r7, #16]
 8002ec6:	e008      	b.n	8002eda <HAL_RCC_OscConfig+0xf2>
 8002ec8:	f7fe fe10 	bl	8001aec <HAL_GetTick>
 8002ecc:	4602      	mov	r2, r0
 8002ece:	693b      	ldr	r3, [r7, #16]
 8002ed0:	1ad3      	subs	r3, r2, r3
 8002ed2:	2b64      	cmp	r3, #100	; 0x64
 8002ed4:	d901      	bls.n	8002eda <HAL_RCC_OscConfig+0xf2>
 8002ed6:	2303      	movs	r3, #3
 8002ed8:	e2ad      	b.n	8003436 <HAL_RCC_OscConfig+0x64e>
 8002eda:	4b5c      	ldr	r3, [pc, #368]	; (800304c <HAL_RCC_OscConfig+0x264>)
 8002edc:	681b      	ldr	r3, [r3, #0]
 8002ede:	f403 3300 	and.w	r3, r3, #131072	; 0x20000
 8002ee2:	2b00      	cmp	r3, #0
 8002ee4:	d0f0      	beq.n	8002ec8 <HAL_RCC_OscConfig+0xe0>
 8002ee6:	e014      	b.n	8002f12 <HAL_RCC_OscConfig+0x12a>
 8002ee8:	f7fe fe00 	bl	8001aec <HAL_GetTick>
 8002eec:	6138      	str	r0, [r7, #16]
 8002eee:	e008      	b.n	8002f02 <HAL_RCC_OscConfig+0x11a>
 8002ef0:	f7fe fdfc 	bl	8001aec <HAL_GetTick>
 8002ef4:	4602      	mov	r2, r0
 8002ef6:	693b      	ldr	r3, [r7, #16]
 8002ef8:	1ad3      	subs	r3, r2, r3
 8002efa:	2b64      	cmp	r3, #100	; 0x64
 8002efc:	d901      	bls.n	8002f02 <HAL_RCC_OscConfig+0x11a>
 8002efe:	2303      	movs	r3, #3
 8002f00:	e299      	b.n	8003436 <HAL_RCC_OscConfig+0x64e>
 8002f02:	4b52      	ldr	r3, [pc, #328]	; (800304c <HAL_RCC_OscConfig+0x264>)
 8002f04:	681b      	ldr	r3, [r3, #0]
 8002f06:	f403 3300 	and.w	r3, r3, #131072	; 0x20000
 8002f0a:	2b00      	cmp	r3, #0
 8002f0c:	d1f0      	bne.n	8002ef0 <HAL_RCC_OscConfig+0x108>
 8002f0e:	e000      	b.n	8002f12 <HAL_RCC_OscConfig+0x12a>
 8002f10:	bf00      	nop
 8002f12:	687b      	ldr	r3, [r7, #4]
 8002f14:	681b      	ldr	r3, [r3, #0]
 8002f16:	f003 0302 	and.w	r3, r3, #2
 8002f1a:	2b00      	cmp	r3, #0
 8002f1c:	d05a      	beq.n	8002fd4 <HAL_RCC_OscConfig+0x1ec>
 8002f1e:	69bb      	ldr	r3, [r7, #24]
 8002f20:	2b04      	cmp	r3, #4
 8002f22:	d005      	beq.n	8002f30 <HAL_RCC_OscConfig+0x148>
 8002f24:	69bb      	ldr	r3, [r7, #24]
 8002f26:	2b0c      	cmp	r3, #12
 8002f28:	d119      	bne.n	8002f5e <HAL_RCC_OscConfig+0x176>
 8002f2a:	697b      	ldr	r3, [r7, #20]
 8002f2c:	2b00      	cmp	r3, #0
 8002f2e:	d116      	bne.n	8002f5e <HAL_RCC_OscConfig+0x176>
 8002f30:	4b46      	ldr	r3, [pc, #280]	; (800304c <HAL_RCC_OscConfig+0x264>)
 8002f32:	681b      	ldr	r3, [r3, #0]
 8002f34:	f003 0302 	and.w	r3, r3, #2
 8002f38:	2b00      	cmp	r3, #0
 8002f3a:	d005      	beq.n	8002f48 <HAL_RCC_OscConfig+0x160>
 8002f3c:	687b      	ldr	r3, [r7, #4]
 8002f3e:	68db      	ldr	r3, [r3, #12]
 8002f40:	2b01      	cmp	r3, #1
 8002f42:	d001      	beq.n	8002f48 <HAL_RCC_OscConfig+0x160>
 8002f44:	2301      	movs	r3, #1
 8002f46:	e276      	b.n	8003436 <HAL_RCC_OscConfig+0x64e>
 8002f48:	4b40      	ldr	r3, [pc, #256]	; (800304c <HAL_RCC_OscConfig+0x264>)
 8002f4a:	685b      	ldr	r3, [r3, #4]
 8002f4c:	f423 52f8 	bic.w	r2, r3, #7936	; 0x1f00
 8002f50:	687b      	ldr	r3, [r7, #4]
 8002f52:	691b      	ldr	r3, [r3, #16]
 8002f54:	021b      	lsls	r3, r3, #8
 8002f56:	493d      	ldr	r1, [pc, #244]	; (800304c <HAL_RCC_OscConfig+0x264>)
 8002f58:	4313      	orrs	r3, r2
 8002f5a:	604b      	str	r3, [r1, #4]
 8002f5c:	e03a      	b.n	8002fd4 <HAL_RCC_OscConfig+0x1ec>
 8002f5e:	687b      	ldr	r3, [r7, #4]
 8002f60:	68db      	ldr	r3, [r3, #12]
 8002f62:	2b00      	cmp	r3, #0
 8002f64:	d020      	beq.n	8002fa8 <HAL_RCC_OscConfig+0x1c0>
 8002f66:	4b3a      	ldr	r3, [pc, #232]	; (8003050 <HAL_RCC_OscConfig+0x268>)
 8002f68:	2201      	movs	r2, #1
 8002f6a:	601a      	str	r2, [r3, #0]
 8002f6c:	f7fe fdbe 	bl	8001aec <HAL_GetTick>
 8002f70:	6138      	str	r0, [r7, #16]
 8002f72:	e008      	b.n	8002f86 <HAL_RCC_OscConfig+0x19e>
 8002f74:	f7fe fdba 	bl	8001aec <HAL_GetTick>
 8002f78:	4602      	mov	r2, r0
 8002f7a:	693b      	ldr	r3, [r7, #16]
 8002f7c:	1ad3      	subs	r3, r2, r3
 8002f7e:	2b02      	cmp	r3, #2
 8002f80:	d901      	bls.n	8002f86 <HAL_RCC_OscConfig+0x19e>
 8002f82:	2303      	movs	r3, #3
 8002f84:	e257      	b.n	8003436 <HAL_RCC_OscConfig+0x64e>
 8002f86:	4b31      	ldr	r3, [pc, #196]	; (800304c <HAL_RCC_OscConfig+0x264>)
 8002f88:	681b      	ldr	r3, [r3, #0]
 8002f8a:	f003 0302 	and.w	r3, r3, #2
 8002f8e:	2b00      	cmp	r3, #0
 8002f90:	d0f0      	beq.n	8002f74 <HAL_RCC_OscConfig+0x18c>
 8002f92:	4b2e      	ldr	r3, [pc, #184]	; (800304c <HAL_RCC_OscConfig+0x264>)
 8002f94:	685b      	ldr	r3, [r3, #4]
 8002f96:	f423 52f8 	bic.w	r2, r3, #7936	; 0x1f00
 8002f9a:	687b      	ldr	r3, [r7, #4]
 8002f9c:	691b      	ldr	r3, [r3, #16]
 8002f9e:	021b      	lsls	r3, r3, #8
 8002fa0:	492a      	ldr	r1, [pc, #168]	; (800304c <HAL_RCC_OscConfig+0x264>)
 8002fa2:	4313      	orrs	r3, r2
 8002fa4:	604b      	str	r3, [r1, #4]
 8002fa6:	e015      	b.n	8002fd4 <HAL_RCC_OscConfig+0x1ec>
 8002fa8:	4b29      	ldr	r3, [pc, #164]	; (8003050 <HAL_RCC_OscConfig+0x268>)
 8002faa:	2200      	movs	r2, #0
 8002fac:	601a      	str	r2, [r3, #0]
 8002fae:	f7fe fd9d 	bl	8001aec <HAL_GetTick>
 8002fb2:	6138      	str	r0, [r7, #16]
 8002fb4:	e008      	b.n	8002fc8 <HAL_RCC_OscConfig+0x1e0>
 8002fb6:	f7fe fd99 	bl	8001aec <HAL_GetTick>
 8002fba:	4602      	mov	r2, r0
 8002fbc:	693b      	ldr	r3, [r7, #16]
 8002fbe:	1ad3      	subs	r3, r2, r3
 8002fc0:	2b02      	cmp	r3, #2
 8002fc2:	d901      	bls.n	8002fc8 <HAL_RCC_OscConfig+0x1e0>
 8002fc4:	2303      	movs	r3, #3
 8002fc6:	e236      	b.n	8003436 <HAL_RCC_OscConfig+0x64e>
 8002fc8:	4b20      	ldr	r3, [pc, #128]	; (800304c <HAL_RCC_OscConfig+0x264>)
 8002fca:	681b      	ldr	r3, [r3, #0]
 8002fcc:	f003 0302 	and.w	r3, r3, #2
 8002fd0:	2b00      	cmp	r3, #0
 8002fd2:	d1f0      	bne.n	8002fb6 <HAL_RCC_OscConfig+0x1ce>
 8002fd4:	687b      	ldr	r3, [r7, #4]
 8002fd6:	681b      	ldr	r3, [r3, #0]
 8002fd8:	f003 0310 	and.w	r3, r3, #16
 8002fdc:	2b00      	cmp	r3, #0
 8002fde:	f000 80b8 	beq.w	8003152 <HAL_RCC_OscConfig+0x36a>
 8002fe2:	69bb      	ldr	r3, [r7, #24]
 8002fe4:	2b00      	cmp	r3, #0
 8002fe6:	d170      	bne.n	80030ca <HAL_RCC_OscConfig+0x2e2>
 8002fe8:	4b18      	ldr	r3, [pc, #96]	; (800304c <HAL_RCC_OscConfig+0x264>)
 8002fea:	681b      	ldr	r3, [r3, #0]
 8002fec:	f403 7300 	and.w	r3, r3, #512	; 0x200
 8002ff0:	2b00      	cmp	r3, #0
 8002ff2:	d005      	beq.n	8003000 <HAL_RCC_OscConfig+0x218>
 8002ff4:	687b      	ldr	r3, [r7, #4]
 8002ff6:	699b      	ldr	r3, [r3, #24]
 8002ff8:	2b00      	cmp	r3, #0
 8002ffa:	d101      	bne.n	8003000 <HAL_RCC_OscConfig+0x218>
 8002ffc:	2301      	movs	r3, #1
 8002ffe:	e21a      	b.n	8003436 <HAL_RCC_OscConfig+0x64e>
 8003000:	687b      	ldr	r3, [r7, #4]
 8003002:	6a1a      	ldr	r2, [r3, #32]
 8003004:	4b11      	ldr	r3, [pc, #68]	; (800304c <HAL_RCC_OscConfig+0x264>)
 8003006:	685b      	ldr	r3, [r3, #4]
 8003008:	f403 4360 	and.w	r3, r3, #57344	; 0xe000
 800300c:	429a      	cmp	r2, r3
 800300e:	d921      	bls.n	8003054 <HAL_RCC_OscConfig+0x26c>
 8003010:	687b      	ldr	r3, [r7, #4]
 8003012:	6a1b      	ldr	r3, [r3, #32]
 8003014:	4618      	mov	r0, r3
 8003016:	f000 fba7 	bl	8003768 <RCC_SetFlashLatencyFromMSIRange>
 800301a:	4603      	mov	r3, r0
 800301c:	2b00      	cmp	r3, #0
 800301e:	d001      	beq.n	8003024 <HAL_RCC_OscConfig+0x23c>
 8003020:	2301      	movs	r3, #1
 8003022:	e208      	b.n	8003436 <HAL_RCC_OscConfig+0x64e>
 8003024:	4b09      	ldr	r3, [pc, #36]	; (800304c <HAL_RCC_OscConfig+0x264>)
 8003026:	685b      	ldr	r3, [r3, #4]
 8003028:	f423 4260 	bic.w	r2, r3, #57344	; 0xe000
 800302c:	687b      	ldr	r3, [r7, #4]
 800302e:	6a1b      	ldr	r3, [r3, #32]
 8003030:	4906      	ldr	r1, [pc, #24]	; (800304c <HAL_RCC_OscConfig+0x264>)
 8003032:	4313      	orrs	r3, r2
 8003034:	604b      	str	r3, [r1, #4]
 8003036:	4b05      	ldr	r3, [pc, #20]	; (800304c <HAL_RCC_OscConfig+0x264>)
 8003038:	685b      	ldr	r3, [r3, #4]
 800303a:	f023 427f 	bic.w	r2, r3, #4278190080	; 0xff000000
 800303e:	687b      	ldr	r3, [r7, #4]
 8003040:	69db      	ldr	r3, [r3, #28]
 8003042:	061b      	lsls	r3, r3, #24
 8003044:	4901      	ldr	r1, [pc, #4]	; (800304c <HAL_RCC_OscConfig+0x264>)
 8003046:	4313      	orrs	r3, r2
 8003048:	604b      	str	r3, [r1, #4]
 800304a:	e020      	b.n	800308e <HAL_RCC_OscConfig+0x2a6>
 800304c:	40023800 	.word	0x40023800
 8003050:	42470000 	.word	0x42470000
 8003054:	4b99      	ldr	r3, [pc, #612]	; (80032bc <HAL_RCC_OscConfig+0x4d4>)
 8003056:	685b      	ldr	r3, [r3, #4]
 8003058:	f423 4260 	bic.w	r2, r3, #57344	; 0xe000
 800305c:	687b      	ldr	r3, [r7, #4]
 800305e:	6a1b      	ldr	r3, [r3, #32]
 8003060:	4996      	ldr	r1, [pc, #600]	; (80032bc <HAL_RCC_OscConfig+0x4d4>)
 8003062:	4313      	orrs	r3, r2
 8003064:	604b      	str	r3, [r1, #4]
 8003066:	4b95      	ldr	r3, [pc, #596]	; (80032bc <HAL_RCC_OscConfig+0x4d4>)
 8003068:	685b      	ldr	r3, [r3, #4]
 800306a:	f023 427f 	bic.w	r2, r3, #4278190080	; 0xff000000
 800306e:	687b      	ldr	r3, [r7, #4]
 8003070:	69db      	ldr	r3, [r3, #28]
 8003072:	061b      	lsls	r3, r3, #24
 8003074:	4991      	ldr	r1, [pc, #580]	; (80032bc <HAL_RCC_OscConfig+0x4d4>)
 8003076:	4313      	orrs	r3, r2
 8003078:	604b      	str	r3, [r1, #4]
 800307a:	687b      	ldr	r3, [r7, #4]
 800307c:	6a1b      	ldr	r3, [r3, #32]
 800307e:	4618      	mov	r0, r3
 8003080:	f000 fb72 	bl	8003768 <RCC_SetFlashLatencyFromMSIRange>
 8003084:	4603      	mov	r3, r0
 8003086:	2b00      	cmp	r3, #0
 8003088:	d001      	beq.n	800308e <HAL_RCC_OscConfig+0x2a6>
 800308a:	2301      	movs	r3, #1
 800308c:	e1d3      	b.n	8003436 <HAL_RCC_OscConfig+0x64e>
 800308e:	687b      	ldr	r3, [r7, #4]
 8003090:	6a1b      	ldr	r3, [r3, #32]
 8003092:	0b5b      	lsrs	r3, r3, #13
 8003094:	3301      	adds	r3, #1
 8003096:	f44f 4200 	mov.w	r2, #32768	; 0x8000
 800309a:	fa02 f303 	lsl.w	r3, r2, r3
 800309e:	4a87      	ldr	r2, [pc, #540]	; (80032bc <HAL_RCC_OscConfig+0x4d4>)
 80030a0:	6892      	ldr	r2, [r2, #8]
 80030a2:	0912      	lsrs	r2, r2, #4
 80030a4:	f002 020f 	and.w	r2, r2, #15
 80030a8:	4985      	ldr	r1, [pc, #532]	; (80032c0 <HAL_RCC_OscConfig+0x4d8>)
 80030aa:	5c8a      	ldrb	r2, [r1, r2]
 80030ac:	40d3      	lsrs	r3, r2
 80030ae:	4a85      	ldr	r2, [pc, #532]	; (80032c4 <HAL_RCC_OscConfig+0x4dc>)
 80030b0:	6013      	str	r3, [r2, #0]
 80030b2:	4b85      	ldr	r3, [pc, #532]	; (80032c8 <HAL_RCC_OscConfig+0x4e0>)
 80030b4:	681b      	ldr	r3, [r3, #0]
 80030b6:	4618      	mov	r0, r3
 80030b8:	f7fe fccc 	bl	8001a54 <HAL_InitTick>
 80030bc:	4603      	mov	r3, r0
 80030be:	73fb      	strb	r3, [r7, #15]
 80030c0:	7bfb      	ldrb	r3, [r7, #15]
 80030c2:	2b00      	cmp	r3, #0
 80030c4:	d045      	beq.n	8003152 <HAL_RCC_OscConfig+0x36a>
 80030c6:	7bfb      	ldrb	r3, [r7, #15]
 80030c8:	e1b5      	b.n	8003436 <HAL_RCC_OscConfig+0x64e>
 80030ca:	687b      	ldr	r3, [r7, #4]
 80030cc:	699b      	ldr	r3, [r3, #24]
 80030ce:	2b00      	cmp	r3, #0
 80030d0:	d029      	beq.n	8003126 <HAL_RCC_OscConfig+0x33e>
 80030d2:	4b7e      	ldr	r3, [pc, #504]	; (80032cc <HAL_RCC_OscConfig+0x4e4>)
 80030d4:	2201      	movs	r2, #1
 80030d6:	601a      	str	r2, [r3, #0]
 80030d8:	f7fe fd08 	bl	8001aec <HAL_GetTick>
 80030dc:	6138      	str	r0, [r7, #16]
 80030de:	e008      	b.n	80030f2 <HAL_RCC_OscConfig+0x30a>
 80030e0:	f7fe fd04 	bl	8001aec <HAL_GetTick>
 80030e4:	4602      	mov	r2, r0
 80030e6:	693b      	ldr	r3, [r7, #16]
 80030e8:	1ad3      	subs	r3, r2, r3
 80030ea:	2b02      	cmp	r3, #2
 80030ec:	d901      	bls.n	80030f2 <HAL_RCC_OscConfig+0x30a>
 80030ee:	2303      	movs	r3, #3
 80030f0:	e1a1      	b.n	8003436 <HAL_RCC_OscConfig+0x64e>
 80030f2:	4b72      	ldr	r3, [pc, #456]	; (80032bc <HAL_RCC_OscConfig+0x4d4>)
 80030f4:	681b      	ldr	r3, [r3, #0]
 80030f6:	f403 7300 	and.w	r3, r3, #512	; 0x200
 80030fa:	2b00      	cmp	r3, #0
 80030fc:	d0f0      	beq.n	80030e0 <HAL_RCC_OscConfig+0x2f8>
 80030fe:	4b6f      	ldr	r3, [pc, #444]	; (80032bc <HAL_RCC_OscConfig+0x4d4>)
 8003100:	685b      	ldr	r3, [r3, #4]
 8003102:	f423 4260 	bic.w	r2, r3, #57344	; 0xe000
 8003106:	687b      	ldr	r3, [r7, #4]
 8003108:	6a1b      	ldr	r3, [r3, #32]
 800310a:	496c      	ldr	r1, [pc, #432]	; (80032bc <HAL_RCC_OscConfig+0x4d4>)
 800310c:	4313      	orrs	r3, r2
 800310e:	604b      	str	r3, [r1, #4]
 8003110:	4b6a      	ldr	r3, [pc, #424]	; (80032bc <HAL_RCC_OscConfig+0x4d4>)
 8003112:	685b      	ldr	r3, [r3, #4]
 8003114:	f023 427f 	bic.w	r2, r3, #4278190080	; 0xff000000
 8003118:	687b      	ldr	r3, [r7, #4]
 800311a:	69db      	ldr	r3, [r3, #28]
 800311c:	061b      	lsls	r3, r3, #24
 800311e:	4967      	ldr	r1, [pc, #412]	; (80032bc <HAL_RCC_OscConfig+0x4d4>)
 8003120:	4313      	orrs	r3, r2
 8003122:	604b      	str	r3, [r1, #4]
 8003124:	e015      	b.n	8003152 <HAL_RCC_OscConfig+0x36a>
 8003126:	4b69      	ldr	r3, [pc, #420]	; (80032cc <HAL_RCC_OscConfig+0x4e4>)
 8003128:	2200      	movs	r2, #0
 800312a:	601a      	str	r2, [r3, #0]
 800312c:	f7fe fcde 	bl	8001aec <HAL_GetTick>
 8003130:	6138      	str	r0, [r7, #16]
 8003132:	e008      	b.n	8003146 <HAL_RCC_OscConfig+0x35e>
 8003134:	f7fe fcda 	bl	8001aec <HAL_GetTick>
 8003138:	4602      	mov	r2, r0
 800313a:	693b      	ldr	r3, [r7, #16]
 800313c:	1ad3      	subs	r3, r2, r3
 800313e:	2b02      	cmp	r3, #2
 8003140:	d901      	bls.n	8003146 <HAL_RCC_OscConfig+0x35e>
 8003142:	2303      	movs	r3, #3
 8003144:	e177      	b.n	8003436 <HAL_RCC_OscConfig+0x64e>
 8003146:	4b5d      	ldr	r3, [pc, #372]	; (80032bc <HAL_RCC_OscConfig+0x4d4>)
 8003148:	681b      	ldr	r3, [r3, #0]
 800314a:	f403 7300 	and.w	r3, r3, #512	; 0x200
 800314e:	2b00      	cmp	r3, #0
 8003150:	d1f0      	bne.n	8003134 <HAL_RCC_OscConfig+0x34c>
 8003152:	687b      	ldr	r3, [r7, #4]
 8003154:	681b      	ldr	r3, [r3, #0]
 8003156:	f003 0308 	and.w	r3, r3, #8
 800315a:	2b00      	cmp	r3, #0
 800315c:	d030      	beq.n	80031c0 <HAL_RCC_OscConfig+0x3d8>
 800315e:	687b      	ldr	r3, [r7, #4]
 8003160:	695b      	ldr	r3, [r3, #20]
 8003162:	2b00      	cmp	r3, #0
 8003164:	d016      	beq.n	8003194 <HAL_RCC_OscConfig+0x3ac>
 8003166:	4b5a      	ldr	r3, [pc, #360]	; (80032d0 <HAL_RCC_OscConfig+0x4e8>)
 8003168:	2201      	movs	r2, #1
 800316a:	601a      	str	r2, [r3, #0]
 800316c:	f7fe fcbe 	bl	8001aec <HAL_GetTick>
 8003170:	6138      	str	r0, [r7, #16]
 8003172:	e008      	b.n	8003186 <HAL_RCC_OscConfig+0x39e>
 8003174:	f7fe fcba 	bl	8001aec <HAL_GetTick>
 8003178:	4602      	mov	r2, r0
 800317a:	693b      	ldr	r3, [r7, #16]
 800317c:	1ad3      	subs	r3, r2, r3
 800317e:	2b02      	cmp	r3, #2
 8003180:	d901      	bls.n	8003186 <HAL_RCC_OscConfig+0x39e>
 8003182:	2303      	movs	r3, #3
 8003184:	e157      	b.n	8003436 <HAL_RCC_OscConfig+0x64e>
 8003186:	4b4d      	ldr	r3, [pc, #308]	; (80032bc <HAL_RCC_OscConfig+0x4d4>)
 8003188:	6b5b      	ldr	r3, [r3, #52]	; 0x34
 800318a:	f003 0302 	and.w	r3, r3, #2
 800318e:	2b00      	cmp	r3, #0
 8003190:	d0f0      	beq.n	8003174 <HAL_RCC_OscConfig+0x38c>
 8003192:	e015      	b.n	80031c0 <HAL_RCC_OscConfig+0x3d8>
 8003194:	4b4e      	ldr	r3, [pc, #312]	; (80032d0 <HAL_RCC_OscConfig+0x4e8>)
 8003196:	2200      	movs	r2, #0
 8003198:	601a      	str	r2, [r3, #0]
 800319a:	f7fe fca7 	bl	8001aec <HAL_GetTick>
 800319e:	6138      	str	r0, [r7, #16]
 80031a0:	e008      	b.n	80031b4 <HAL_RCC_OscConfig+0x3cc>
 80031a2:	f7fe fca3 	bl	8001aec <HAL_GetTick>
 80031a6:	4602      	mov	r2, r0
 80031a8:	693b      	ldr	r3, [r7, #16]
 80031aa:	1ad3      	subs	r3, r2, r3
 80031ac:	2b02      	cmp	r3, #2
 80031ae:	d901      	bls.n	80031b4 <HAL_RCC_OscConfig+0x3cc>
 80031b0:	2303      	movs	r3, #3
 80031b2:	e140      	b.n	8003436 <HAL_RCC_OscConfig+0x64e>
 80031b4:	4b41      	ldr	r3, [pc, #260]	; (80032bc <HAL_RCC_OscConfig+0x4d4>)
 80031b6:	6b5b      	ldr	r3, [r3, #52]	; 0x34
 80031b8:	f003 0302 	and.w	r3, r3, #2
 80031bc:	2b00      	cmp	r3, #0
 80031be:	d1f0      	bne.n	80031a2 <HAL_RCC_OscConfig+0x3ba>
 80031c0:	687b      	ldr	r3, [r7, #4]
 80031c2:	681b      	ldr	r3, [r3, #0]
 80031c4:	f003 0304 	and.w	r3, r3, #4
 80031c8:	2b00      	cmp	r3, #0
 80031ca:	f000 80b5 	beq.w	8003338 <HAL_RCC_OscConfig+0x550>
 80031ce:	2300      	movs	r3, #0
 80031d0:	77fb      	strb	r3, [r7, #31]
 80031d2:	4b3a      	ldr	r3, [pc, #232]	; (80032bc <HAL_RCC_OscConfig+0x4d4>)
 80031d4:	6a5b      	ldr	r3, [r3, #36]	; 0x24
 80031d6:	f003 5380 	and.w	r3, r3, #268435456	; 0x10000000
 80031da:	2b00      	cmp	r3, #0
 80031dc:	d10d      	bne.n	80031fa <HAL_RCC_OscConfig+0x412>
 80031de:	4b37      	ldr	r3, [pc, #220]	; (80032bc <HAL_RCC_OscConfig+0x4d4>)
 80031e0:	6a5b      	ldr	r3, [r3, #36]	; 0x24
 80031e2:	4a36      	ldr	r2, [pc, #216]	; (80032bc <HAL_RCC_OscConfig+0x4d4>)
 80031e4:	f043 5380 	orr.w	r3, r3, #268435456	; 0x10000000
 80031e8:	6253      	str	r3, [r2, #36]	; 0x24
 80031ea:	4b34      	ldr	r3, [pc, #208]	; (80032bc <HAL_RCC_OscConfig+0x4d4>)
 80031ec:	6a5b      	ldr	r3, [r3, #36]	; 0x24
 80031ee:	f003 5380 	and.w	r3, r3, #268435456	; 0x10000000
 80031f2:	60bb      	str	r3, [r7, #8]
 80031f4:	68bb      	ldr	r3, [r7, #8]
 80031f6:	2301      	movs	r3, #1
 80031f8:	77fb      	strb	r3, [r7, #31]
 80031fa:	4b36      	ldr	r3, [pc, #216]	; (80032d4 <HAL_RCC_OscConfig+0x4ec>)
 80031fc:	681b      	ldr	r3, [r3, #0]
 80031fe:	f403 7380 	and.w	r3, r3, #256	; 0x100
 8003202:	2b00      	cmp	r3, #0
 8003204:	d118      	bne.n	8003238 <HAL_RCC_OscConfig+0x450>
 8003206:	4b33      	ldr	r3, [pc, #204]	; (80032d4 <HAL_RCC_OscConfig+0x4ec>)
 8003208:	681b      	ldr	r3, [r3, #0]
 800320a:	4a32      	ldr	r2, [pc, #200]	; (80032d4 <HAL_RCC_OscConfig+0x4ec>)
 800320c:	f443 7380 	orr.w	r3, r3, #256	; 0x100
 8003210:	6013      	str	r3, [r2, #0]
 8003212:	f7fe fc6b 	bl	8001aec <HAL_GetTick>
 8003216:	6138      	str	r0, [r7, #16]
 8003218:	e008      	b.n	800322c <HAL_RCC_OscConfig+0x444>
 800321a:	f7fe fc67 	bl	8001aec <HAL_GetTick>
 800321e:	4602      	mov	r2, r0
 8003220:	693b      	ldr	r3, [r7, #16]
 8003222:	1ad3      	subs	r3, r2, r3
 8003224:	2b64      	cmp	r3, #100	; 0x64
 8003226:	d901      	bls.n	800322c <HAL_RCC_OscConfig+0x444>
 8003228:	2303      	movs	r3, #3
 800322a:	e104      	b.n	8003436 <HAL_RCC_OscConfig+0x64e>
 800322c:	4b29      	ldr	r3, [pc, #164]	; (80032d4 <HAL_RCC_OscConfig+0x4ec>)
 800322e:	681b      	ldr	r3, [r3, #0]
 8003230:	f403 7380 	and.w	r3, r3, #256	; 0x100
 8003234:	2b00      	cmp	r3, #0
 8003236:	d0f0      	beq.n	800321a <HAL_RCC_OscConfig+0x432>
 8003238:	687b      	ldr	r3, [r7, #4]
 800323a:	689b      	ldr	r3, [r3, #8]
 800323c:	2b01      	cmp	r3, #1
 800323e:	d106      	bne.n	800324e <HAL_RCC_OscConfig+0x466>
 8003240:	4b1e      	ldr	r3, [pc, #120]	; (80032bc <HAL_RCC_OscConfig+0x4d4>)
 8003242:	6b5b      	ldr	r3, [r3, #52]	; 0x34
 8003244:	4a1d      	ldr	r2, [pc, #116]	; (80032bc <HAL_RCC_OscConfig+0x4d4>)
 8003246:	f443 7380 	orr.w	r3, r3, #256	; 0x100
 800324a:	6353      	str	r3, [r2, #52]	; 0x34
 800324c:	e02d      	b.n	80032aa <HAL_RCC_OscConfig+0x4c2>
 800324e:	687b      	ldr	r3, [r7, #4]
 8003250:	689b      	ldr	r3, [r3, #8]
 8003252:	2b00      	cmp	r3, #0
 8003254:	d10c      	bne.n	8003270 <HAL_RCC_OscConfig+0x488>
 8003256:	4b19      	ldr	r3, [pc, #100]	; (80032bc <HAL_RCC_OscConfig+0x4d4>)
 8003258:	6b5b      	ldr	r3, [r3, #52]	; 0x34
 800325a:	4a18      	ldr	r2, [pc, #96]	; (80032bc <HAL_RCC_OscConfig+0x4d4>)
 800325c:	f423 7380 	bic.w	r3, r3, #256	; 0x100
 8003260:	6353      	str	r3, [r2, #52]	; 0x34
 8003262:	4b16      	ldr	r3, [pc, #88]	; (80032bc <HAL_RCC_OscConfig+0x4d4>)
 8003264:	6b5b      	ldr	r3, [r3, #52]	; 0x34
 8003266:	4a15      	ldr	r2, [pc, #84]	; (80032bc <HAL_RCC_OscConfig+0x4d4>)
 8003268:	f423 6380 	bic.w	r3, r3, #1024	; 0x400
 800326c:	6353      	str	r3, [r2, #52]	; 0x34
 800326e:	e01c      	b.n	80032aa <HAL_RCC_OscConfig+0x4c2>
 8003270:	687b      	ldr	r3, [r7, #4]
 8003272:	689b      	ldr	r3, [r3, #8]
 8003274:	2b05      	cmp	r3, #5
 8003276:	d10c      	bne.n	8003292 <HAL_RCC_OscConfig+0x4aa>
 8003278:	4b10      	ldr	r3, [pc, #64]	; (80032bc <HAL_RCC_OscConfig+0x4d4>)
 800327a:	6b5b      	ldr	r3, [r3, #52]	; 0x34
 800327c:	4a0f      	ldr	r2, [pc, #60]	; (80032bc <HAL_RCC_OscConfig+0x4d4>)
 800327e:	f443 6380 	orr.w	r3, r3, #1024	; 0x400
 8003282:	6353      	str	r3, [r2, #52]	; 0x34
 8003284:	4b0d      	ldr	r3, [pc, #52]	; (80032bc <HAL_RCC_OscConfig+0x4d4>)
 8003286:	6b5b      	ldr	r3, [r3, #52]	; 0x34
 8003288:	4a0c      	ldr	r2, [pc, #48]	; (80032bc <HAL_RCC_OscConfig+0x4d4>)
 800328a:	f443 7380 	orr.w	r3, r3, #256	; 0x100
 800328e:	6353      	str	r3, [r2, #52]	; 0x34
 8003290:	e00b      	b.n	80032aa <HAL_RCC_OscConfig+0x4c2>
 8003292:	4b0a      	ldr	r3, [pc, #40]	; (80032bc <HAL_RCC_OscConfig+0x4d4>)
 8003294:	6b5b      	ldr	r3, [r3, #52]	; 0x34
 8003296:	4a09      	ldr	r2, [pc, #36]	; (80032bc <HAL_RCC_OscConfig+0x4d4>)
 8003298:	f423 7380 	bic.w	r3, r3, #256	; 0x100
 800329c:	6353      	str	r3, [r2, #52]	; 0x34
 800329e:	4b07      	ldr	r3, [pc, #28]	; (80032bc <HAL_RCC_OscConfig+0x4d4>)
 80032a0:	6b5b      	ldr	r3, [r3, #52]	; 0x34
 80032a2:	4a06      	ldr	r2, [pc, #24]	; (80032bc <HAL_RCC_OscConfig+0x4d4>)
 80032a4:	f423 6380 	bic.w	r3, r3, #1024	; 0x400
 80032a8:	6353      	str	r3, [r2, #52]	; 0x34
 80032aa:	687b      	ldr	r3, [r7, #4]
 80032ac:	689b      	ldr	r3, [r3, #8]
 80032ae:	2b00      	cmp	r3, #0
 80032b0:	d024      	beq.n	80032fc <HAL_RCC_OscConfig+0x514>
 80032b2:	f7fe fc1b 	bl	8001aec <HAL_GetTick>
 80032b6:	6138      	str	r0, [r7, #16]
 80032b8:	e019      	b.n	80032ee <HAL_RCC_OscConfig+0x506>
 80032ba:	bf00      	nop
 80032bc:	40023800 	.word	0x40023800
 80032c0:	08008eb8 	.word	0x08008eb8
 80032c4:	20000004 	.word	0x20000004
 80032c8:	20000008 	.word	0x20000008
 80032cc:	42470020 	.word	0x42470020
 80032d0:	42470680 	.word	0x42470680
 80032d4:	40007000 	.word	0x40007000
 80032d8:	f7fe fc08 	bl	8001aec <HAL_GetTick>
 80032dc:	4602      	mov	r2, r0
 80032de:	693b      	ldr	r3, [r7, #16]
 80032e0:	1ad3      	subs	r3, r2, r3
 80032e2:	f241 3288 	movw	r2, #5000	; 0x1388
 80032e6:	4293      	cmp	r3, r2
 80032e8:	d901      	bls.n	80032ee <HAL_RCC_OscConfig+0x506>
 80032ea:	2303      	movs	r3, #3
 80032ec:	e0a3      	b.n	8003436 <HAL_RCC_OscConfig+0x64e>
 80032ee:	4b54      	ldr	r3, [pc, #336]	; (8003440 <HAL_RCC_OscConfig+0x658>)
 80032f0:	6b5b      	ldr	r3, [r3, #52]	; 0x34
 80032f2:	f403 7300 	and.w	r3, r3, #512	; 0x200
 80032f6:	2b00      	cmp	r3, #0
 80032f8:	d0ee      	beq.n	80032d8 <HAL_RCC_OscConfig+0x4f0>
 80032fa:	e014      	b.n	8003326 <HAL_RCC_OscConfig+0x53e>
 80032fc:	f7fe fbf6 	bl	8001aec <HAL_GetTick>
 8003300:	6138      	str	r0, [r7, #16]
 8003302:	e00a      	b.n	800331a <HAL_RCC_OscConfig+0x532>
 8003304:	f7fe fbf2 	bl	8001aec <HAL_GetTick>
 8003308:	4602      	mov	r2, r0
 800330a:	693b      	ldr	r3, [r7, #16]
 800330c:	1ad3      	subs	r3, r2, r3
 800330e:	f241 3288 	movw	r2, #5000	; 0x1388
 8003312:	4293      	cmp	r3, r2
 8003314:	d901      	bls.n	800331a <HAL_RCC_OscConfig+0x532>
 8003316:	2303      	movs	r3, #3
 8003318:	e08d      	b.n	8003436 <HAL_RCC_OscConfig+0x64e>
 800331a:	4b49      	ldr	r3, [pc, #292]	; (8003440 <HAL_RCC_OscConfig+0x658>)
 800331c:	6b5b      	ldr	r3, [r3, #52]	; 0x34
 800331e:	f403 7300 	and.w	r3, r3, #512	; 0x200
 8003322:	2b00      	cmp	r3, #0
 8003324:	d1ee      	bne.n	8003304 <HAL_RCC_OscConfig+0x51c>
 8003326:	7ffb      	ldrb	r3, [r7, #31]
 8003328:	2b01      	cmp	r3, #1
 800332a:	d105      	bne.n	8003338 <HAL_RCC_OscConfig+0x550>
 800332c:	4b44      	ldr	r3, [pc, #272]	; (8003440 <HAL_RCC_OscConfig+0x658>)
 800332e:	6a5b      	ldr	r3, [r3, #36]	; 0x24
 8003330:	4a43      	ldr	r2, [pc, #268]	; (8003440 <HAL_RCC_OscConfig+0x658>)
 8003332:	f023 5380 	bic.w	r3, r3, #268435456	; 0x10000000
 8003336:	6253      	str	r3, [r2, #36]	; 0x24
 8003338:	687b      	ldr	r3, [r7, #4]
 800333a:	6a5b      	ldr	r3, [r3, #36]	; 0x24
 800333c:	2b00      	cmp	r3, #0
 800333e:	d079      	beq.n	8003434 <HAL_RCC_OscConfig+0x64c>
 8003340:	69bb      	ldr	r3, [r7, #24]
 8003342:	2b0c      	cmp	r3, #12
 8003344:	d056      	beq.n	80033f4 <HAL_RCC_OscConfig+0x60c>
 8003346:	687b      	ldr	r3, [r7, #4]
 8003348:	6a5b      	ldr	r3, [r3, #36]	; 0x24
 800334a:	2b02      	cmp	r3, #2
 800334c:	d13b      	bne.n	80033c6 <HAL_RCC_OscConfig+0x5de>
 800334e:	4b3d      	ldr	r3, [pc, #244]	; (8003444 <HAL_RCC_OscConfig+0x65c>)
 8003350:	2200      	movs	r2, #0
 8003352:	601a      	str	r2, [r3, #0]
 8003354:	f7fe fbca 	bl	8001aec <HAL_GetTick>
 8003358:	6138      	str	r0, [r7, #16]
 800335a:	e008      	b.n	800336e <HAL_RCC_OscConfig+0x586>
 800335c:	f7fe fbc6 	bl	8001aec <HAL_GetTick>
 8003360:	4602      	mov	r2, r0
 8003362:	693b      	ldr	r3, [r7, #16]
 8003364:	1ad3      	subs	r3, r2, r3
 8003366:	2b02      	cmp	r3, #2
 8003368:	d901      	bls.n	800336e <HAL_RCC_OscConfig+0x586>
 800336a:	2303      	movs	r3, #3
 800336c:	e063      	b.n	8003436 <HAL_RCC_OscConfig+0x64e>
 800336e:	4b34      	ldr	r3, [pc, #208]	; (8003440 <HAL_RCC_OscConfig+0x658>)
 8003370:	681b      	ldr	r3, [r3, #0]
 8003372:	f003 7300 	and.w	r3, r3, #33554432	; 0x2000000
 8003376:	2b00      	cmp	r3, #0
 8003378:	d1f0      	bne.n	800335c <HAL_RCC_OscConfig+0x574>
 800337a:	4b31      	ldr	r3, [pc, #196]	; (8003440 <HAL_RCC_OscConfig+0x658>)
 800337c:	689b      	ldr	r3, [r3, #8]
 800337e:	f423 027d 	bic.w	r2, r3, #16580608	; 0xfd0000
 8003382:	687b      	ldr	r3, [r7, #4]
 8003384:	6a99      	ldr	r1, [r3, #40]	; 0x28
 8003386:	687b      	ldr	r3, [r7, #4]
 8003388:	6adb      	ldr	r3, [r3, #44]	; 0x2c
 800338a:	4319      	orrs	r1, r3
 800338c:	687b      	ldr	r3, [r7, #4]
 800338e:	6b1b      	ldr	r3, [r3, #48]	; 0x30
 8003390:	430b      	orrs	r3, r1
 8003392:	492b      	ldr	r1, [pc, #172]	; (8003440 <HAL_RCC_OscConfig+0x658>)
 8003394:	4313      	orrs	r3, r2
 8003396:	608b      	str	r3, [r1, #8]
 8003398:	4b2a      	ldr	r3, [pc, #168]	; (8003444 <HAL_RCC_OscConfig+0x65c>)
 800339a:	2201      	movs	r2, #1
 800339c:	601a      	str	r2, [r3, #0]
 800339e:	f7fe fba5 	bl	8001aec <HAL_GetTick>
 80033a2:	6138      	str	r0, [r7, #16]
 80033a4:	e008      	b.n	80033b8 <HAL_RCC_OscConfig+0x5d0>
 80033a6:	f7fe fba1 	bl	8001aec <HAL_GetTick>
 80033aa:	4602      	mov	r2, r0
 80033ac:	693b      	ldr	r3, [r7, #16]
 80033ae:	1ad3      	subs	r3, r2, r3
 80033b0:	2b02      	cmp	r3, #2
 80033b2:	d901      	bls.n	80033b8 <HAL_RCC_OscConfig+0x5d0>
 80033b4:	2303      	movs	r3, #3
 80033b6:	e03e      	b.n	8003436 <HAL_RCC_OscConfig+0x64e>
 80033b8:	4b21      	ldr	r3, [pc, #132]	; (8003440 <HAL_RCC_OscConfig+0x658>)
 80033ba:	681b      	ldr	r3, [r3, #0]
 80033bc:	f003 7300 	and.w	r3, r3, #33554432	; 0x2000000
 80033c0:	2b00      	cmp	r3, #0
 80033c2:	d0f0      	beq.n	80033a6 <HAL_RCC_OscConfig+0x5be>
 80033c4:	e036      	b.n	8003434 <HAL_RCC_OscConfig+0x64c>
 80033c6:	4b1f      	ldr	r3, [pc, #124]	; (8003444 <HAL_RCC_OscConfig+0x65c>)
 80033c8:	2200      	movs	r2, #0
 80033ca:	601a      	str	r2, [r3, #0]
 80033cc:	f7fe fb8e 	bl	8001aec <HAL_GetTick>
 80033d0:	6138      	str	r0, [r7, #16]
 80033d2:	e008      	b.n	80033e6 <HAL_RCC_OscConfig+0x5fe>
 80033d4:	f7fe fb8a 	bl	8001aec <HAL_GetTick>
 80033d8:	4602      	mov	r2, r0
 80033da:	693b      	ldr	r3, [r7, #16]
 80033dc:	1ad3      	subs	r3, r2, r3
 80033de:	2b02      	cmp	r3, #2
 80033e0:	d901      	bls.n	80033e6 <HAL_RCC_OscConfig+0x5fe>
 80033e2:	2303      	movs	r3, #3
 80033e4:	e027      	b.n	8003436 <HAL_RCC_OscConfig+0x64e>
 80033e6:	4b16      	ldr	r3, [pc, #88]	; (8003440 <HAL_RCC_OscConfig+0x658>)
 80033e8:	681b      	ldr	r3, [r3, #0]
 80033ea:	f003 7300 	and.w	r3, r3, #33554432	; 0x2000000
 80033ee:	2b00      	cmp	r3, #0
 80033f0:	d1f0      	bne.n	80033d4 <HAL_RCC_OscConfig+0x5ec>
 80033f2:	e01f      	b.n	8003434 <HAL_RCC_OscConfig+0x64c>
 80033f4:	687b      	ldr	r3, [r7, #4]
 80033f6:	6a5b      	ldr	r3, [r3, #36]	; 0x24
 80033f8:	2b01      	cmp	r3, #1
 80033fa:	d101      	bne.n	8003400 <HAL_RCC_OscConfig+0x618>
 80033fc:	2301      	movs	r3, #1
 80033fe:	e01a      	b.n	8003436 <HAL_RCC_OscConfig+0x64e>
 8003400:	4b0f      	ldr	r3, [pc, #60]	; (8003440 <HAL_RCC_OscConfig+0x658>)
 8003402:	689b      	ldr	r3, [r3, #8]
 8003404:	617b      	str	r3, [r7, #20]
 8003406:	697b      	ldr	r3, [r7, #20]
 8003408:	f403 3280 	and.w	r2, r3, #65536	; 0x10000
 800340c:	687b      	ldr	r3, [r7, #4]
 800340e:	6a9b      	ldr	r3, [r3, #40]	; 0x28
 8003410:	429a      	cmp	r2, r3
 8003412:	d10d      	bne.n	8003430 <HAL_RCC_OscConfig+0x648>
 8003414:	697b      	ldr	r3, [r7, #20]
 8003416:	f403 1270 	and.w	r2, r3, #3932160	; 0x3c0000
 800341a:	687b      	ldr	r3, [r7, #4]
 800341c:	6adb      	ldr	r3, [r3, #44]	; 0x2c
 800341e:	429a      	cmp	r2, r3
 8003420:	d106      	bne.n	8003430 <HAL_RCC_OscConfig+0x648>
 8003422:	697b      	ldr	r3, [r7, #20]
 8003424:	f403 0240 	and.w	r2, r3, #12582912	; 0xc00000
 8003428:	687b      	ldr	r3, [r7, #4]
 800342a:	6b1b      	ldr	r3, [r3, #48]	; 0x30
 800342c:	429a      	cmp	r2, r3
 800342e:	d001      	beq.n	8003434 <HAL_RCC_OscConfig+0x64c>
 8003430:	2301      	movs	r3, #1
 8003432:	e000      	b.n	8003436 <HAL_RCC_OscConfig+0x64e>
 8003434:	2300      	movs	r3, #0
 8003436:	4618      	mov	r0, r3
 8003438:	3720      	adds	r7, #32
 800343a:	46bd      	mov	sp, r7
 800343c:	bd80      	pop	{r7, pc}
 800343e:	bf00      	nop
 8003440:	40023800 	.word	0x40023800
 8003444:	42470060 	.word	0x42470060

08003448 <HAL_RCC_ClockConfig>:
 8003448:	b580      	push	{r7, lr}
 800344a:	b084      	sub	sp, #16
 800344c:	af00      	add	r7, sp, #0
 800344e:	6078      	str	r0, [r7, #4]
 8003450:	6039      	str	r1, [r7, #0]
 8003452:	687b      	ldr	r3, [r7, #4]
 8003454:	2b00      	cmp	r3, #0
 8003456:	d101      	bne.n	800345c <HAL_RCC_ClockConfig+0x14>
 8003458:	2301      	movs	r3, #1
 800345a:	e11a      	b.n	8003692 <HAL_RCC_ClockConfig+0x24a>
 800345c:	4b8f      	ldr	r3, [pc, #572]	; (800369c <HAL_RCC_ClockConfig+0x254>)
 800345e:	681b      	ldr	r3, [r3, #0]
 8003460:	f003 0301 	and.w	r3, r3, #1
 8003464:	683a      	ldr	r2, [r7, #0]
 8003466:	429a      	cmp	r2, r3
 8003468:	d919      	bls.n	800349e <HAL_RCC_ClockConfig+0x56>
 800346a:	683b      	ldr	r3, [r7, #0]
 800346c:	2b01      	cmp	r3, #1
 800346e:	d105      	bne.n	800347c <HAL_RCC_ClockConfig+0x34>
 8003470:	4b8a      	ldr	r3, [pc, #552]	; (800369c <HAL_RCC_ClockConfig+0x254>)
 8003472:	681b      	ldr	r3, [r3, #0]
 8003474:	4a89      	ldr	r2, [pc, #548]	; (800369c <HAL_RCC_ClockConfig+0x254>)
 8003476:	f043 0304 	orr.w	r3, r3, #4
 800347a:	6013      	str	r3, [r2, #0]
 800347c:	4b87      	ldr	r3, [pc, #540]	; (800369c <HAL_RCC_ClockConfig+0x254>)
 800347e:	681b      	ldr	r3, [r3, #0]
 8003480:	f023 0201 	bic.w	r2, r3, #1
 8003484:	4985      	ldr	r1, [pc, #532]	; (800369c <HAL_RCC_ClockConfig+0x254>)
 8003486:	683b      	ldr	r3, [r7, #0]
 8003488:	4313      	orrs	r3, r2
 800348a:	600b      	str	r3, [r1, #0]
 800348c:	4b83      	ldr	r3, [pc, #524]	; (800369c <HAL_RCC_ClockConfig+0x254>)
 800348e:	681b      	ldr	r3, [r3, #0]
 8003490:	f003 0301 	and.w	r3, r3, #1
 8003494:	683a      	ldr	r2, [r7, #0]
 8003496:	429a      	cmp	r2, r3
 8003498:	d001      	beq.n	800349e <HAL_RCC_ClockConfig+0x56>
 800349a:	2301      	movs	r3, #1
 800349c:	e0f9      	b.n	8003692 <HAL_RCC_ClockConfig+0x24a>
 800349e:	687b      	ldr	r3, [r7, #4]
 80034a0:	681b      	ldr	r3, [r3, #0]
 80034a2:	f003 0302 	and.w	r3, r3, #2
 80034a6:	2b00      	cmp	r3, #0
 80034a8:	d008      	beq.n	80034bc <HAL_RCC_ClockConfig+0x74>
 80034aa:	4b7d      	ldr	r3, [pc, #500]	; (80036a0 <HAL_RCC_ClockConfig+0x258>)
 80034ac:	689b      	ldr	r3, [r3, #8]
 80034ae:	f023 02f0 	bic.w	r2, r3, #240	; 0xf0
 80034b2:	687b      	ldr	r3, [r7, #4]
 80034b4:	689b      	ldr	r3, [r3, #8]
 80034b6:	497a      	ldr	r1, [pc, #488]	; (80036a0 <HAL_RCC_ClockConfig+0x258>)
 80034b8:	4313      	orrs	r3, r2
 80034ba:	608b      	str	r3, [r1, #8]
 80034bc:	687b      	ldr	r3, [r7, #4]
 80034be:	681b      	ldr	r3, [r3, #0]
 80034c0:	f003 0301 	and.w	r3, r3, #1
 80034c4:	2b00      	cmp	r3, #0
 80034c6:	f000 808e 	beq.w	80035e6 <HAL_RCC_ClockConfig+0x19e>
 80034ca:	687b      	ldr	r3, [r7, #4]
 80034cc:	685b      	ldr	r3, [r3, #4]
 80034ce:	2b02      	cmp	r3, #2
 80034d0:	d107      	bne.n	80034e2 <HAL_RCC_ClockConfig+0x9a>
 80034d2:	4b73      	ldr	r3, [pc, #460]	; (80036a0 <HAL_RCC_ClockConfig+0x258>)
 80034d4:	681b      	ldr	r3, [r3, #0]
 80034d6:	f403 3300 	and.w	r3, r3, #131072	; 0x20000
 80034da:	2b00      	cmp	r3, #0
 80034dc:	d121      	bne.n	8003522 <HAL_RCC_ClockConfig+0xda>
 80034de:	2301      	movs	r3, #1
 80034e0:	e0d7      	b.n	8003692 <HAL_RCC_ClockConfig+0x24a>
 80034e2:	687b      	ldr	r3, [r7, #4]
 80034e4:	685b      	ldr	r3, [r3, #4]
 80034e6:	2b03      	cmp	r3, #3
 80034e8:	d107      	bne.n	80034fa <HAL_RCC_ClockConfig+0xb2>
 80034ea:	4b6d      	ldr	r3, [pc, #436]	; (80036a0 <HAL_RCC_ClockConfig+0x258>)
 80034ec:	681b      	ldr	r3, [r3, #0]
 80034ee:	f003 7300 	and.w	r3, r3, #33554432	; 0x2000000
 80034f2:	2b00      	cmp	r3, #0
 80034f4:	d115      	bne.n	8003522 <HAL_RCC_ClockConfig+0xda>
 80034f6:	2301      	movs	r3, #1
 80034f8:	e0cb      	b.n	8003692 <HAL_RCC_ClockConfig+0x24a>
 80034fa:	687b      	ldr	r3, [r7, #4]
 80034fc:	685b      	ldr	r3, [r3, #4]
 80034fe:	2b01      	cmp	r3, #1
 8003500:	d107      	bne.n	8003512 <HAL_RCC_ClockConfig+0xca>
 8003502:	4b67      	ldr	r3, [pc, #412]	; (80036a0 <HAL_RCC_ClockConfig+0x258>)
 8003504:	681b      	ldr	r3, [r3, #0]
 8003506:	f003 0302 	and.w	r3, r3, #2
 800350a:	2b00      	cmp	r3, #0
 800350c:	d109      	bne.n	8003522 <HAL_RCC_ClockConfig+0xda>
 800350e:	2301      	movs	r3, #1
 8003510:	e0bf      	b.n	8003692 <HAL_RCC_ClockConfig+0x24a>
 8003512:	4b63      	ldr	r3, [pc, #396]	; (80036a0 <HAL_RCC_ClockConfig+0x258>)
 8003514:	681b      	ldr	r3, [r3, #0]
 8003516:	f403 7300 	and.w	r3, r3, #512	; 0x200
 800351a:	2b00      	cmp	r3, #0
 800351c:	d101      	bne.n	8003522 <HAL_RCC_ClockConfig+0xda>
 800351e:	2301      	movs	r3, #1
 8003520:	e0b7      	b.n	8003692 <HAL_RCC_ClockConfig+0x24a>
 8003522:	4b5f      	ldr	r3, [pc, #380]	; (80036a0 <HAL_RCC_ClockConfig+0x258>)
 8003524:	689b      	ldr	r3, [r3, #8]
 8003526:	f023 0203 	bic.w	r2, r3, #3
 800352a:	687b      	ldr	r3, [r7, #4]
 800352c:	685b      	ldr	r3, [r3, #4]
 800352e:	495c      	ldr	r1, [pc, #368]	; (80036a0 <HAL_RCC_ClockConfig+0x258>)
 8003530:	4313      	orrs	r3, r2
 8003532:	608b      	str	r3, [r1, #8]
 8003534:	f7fe fada 	bl	8001aec <HAL_GetTick>
 8003538:	60f8      	str	r0, [r7, #12]
 800353a:	687b      	ldr	r3, [r7, #4]
 800353c:	685b      	ldr	r3, [r3, #4]
 800353e:	2b02      	cmp	r3, #2
 8003540:	d112      	bne.n	8003568 <HAL_RCC_ClockConfig+0x120>
 8003542:	e00a      	b.n	800355a <HAL_RCC_ClockConfig+0x112>
 8003544:	f7fe fad2 	bl	8001aec <HAL_GetTick>
 8003548:	4602      	mov	r2, r0
 800354a:	68fb      	ldr	r3, [r7, #12]
 800354c:	1ad3      	subs	r3, r2, r3
 800354e:	f241 3288 	movw	r2, #5000	; 0x1388
 8003552:	4293      	cmp	r3, r2
 8003554:	d901      	bls.n	800355a <HAL_RCC_ClockConfig+0x112>
 8003556:	2303      	movs	r3, #3
 8003558:	e09b      	b.n	8003692 <HAL_RCC_ClockConfig+0x24a>
 800355a:	4b51      	ldr	r3, [pc, #324]	; (80036a0 <HAL_RCC_ClockConfig+0x258>)
 800355c:	689b      	ldr	r3, [r3, #8]
 800355e:	f003 030c 	and.w	r3, r3, #12
 8003562:	2b08      	cmp	r3, #8
 8003564:	d1ee      	bne.n	8003544 <HAL_RCC_ClockConfig+0xfc>
 8003566:	e03e      	b.n	80035e6 <HAL_RCC_ClockConfig+0x19e>
 8003568:	687b      	ldr	r3, [r7, #4]
 800356a:	685b      	ldr	r3, [r3, #4]
 800356c:	2b03      	cmp	r3, #3
 800356e:	d112      	bne.n	8003596 <HAL_RCC_ClockConfig+0x14e>
 8003570:	e00a      	b.n	8003588 <HAL_RCC_ClockConfig+0x140>
 8003572:	f7fe fabb 	bl	8001aec <HAL_GetTick>
 8003576:	4602      	mov	r2, r0
 8003578:	68fb      	ldr	r3, [r7, #12]
 800357a:	1ad3      	subs	r3, r2, r3
 800357c:	f241 3288 	movw	r2, #5000	; 0x1388
 8003580:	4293      	cmp	r3, r2
 8003582:	d901      	bls.n	8003588 <HAL_RCC_ClockConfig+0x140>
 8003584:	2303      	movs	r3, #3
 8003586:	e084      	b.n	8003692 <HAL_RCC_ClockConfig+0x24a>
 8003588:	4b45      	ldr	r3, [pc, #276]	; (80036a0 <HAL_RCC_ClockConfig+0x258>)
 800358a:	689b      	ldr	r3, [r3, #8]
 800358c:	f003 030c 	and.w	r3, r3, #12
 8003590:	2b0c      	cmp	r3, #12
 8003592:	d1ee      	bne.n	8003572 <HAL_RCC_ClockConfig+0x12a>
 8003594:	e027      	b.n	80035e6 <HAL_RCC_ClockConfig+0x19e>
 8003596:	687b      	ldr	r3, [r7, #4]
 8003598:	685b      	ldr	r3, [r3, #4]
 800359a:	2b01      	cmp	r3, #1
 800359c:	d11d      	bne.n	80035da <HAL_RCC_ClockConfig+0x192>
 800359e:	e00a      	b.n	80035b6 <HAL_RCC_ClockConfig+0x16e>
 80035a0:	f7fe faa4 	bl	8001aec <HAL_GetTick>
 80035a4:	4602      	mov	r2, r0
 80035a6:	68fb      	ldr	r3, [r7, #12]
 80035a8:	1ad3      	subs	r3, r2, r3
 80035aa:	f241 3288 	movw	r2, #5000	; 0x1388
 80035ae:	4293      	cmp	r3, r2
 80035b0:	d901      	bls.n	80035b6 <HAL_RCC_ClockConfig+0x16e>
 80035b2:	2303      	movs	r3, #3
 80035b4:	e06d      	b.n	8003692 <HAL_RCC_ClockConfig+0x24a>
 80035b6:	4b3a      	ldr	r3, [pc, #232]	; (80036a0 <HAL_RCC_ClockConfig+0x258>)
 80035b8:	689b      	ldr	r3, [r3, #8]
 80035ba:	f003 030c 	and.w	r3, r3, #12
 80035be:	2b04      	cmp	r3, #4
 80035c0:	d1ee      	bne.n	80035a0 <HAL_RCC_ClockConfig+0x158>
 80035c2:	e010      	b.n	80035e6 <HAL_RCC_ClockConfig+0x19e>
 80035c4:	f7fe fa92 	bl	8001aec <HAL_GetTick>
 80035c8:	4602      	mov	r2, r0
 80035ca:	68fb      	ldr	r3, [r7, #12]
 80035cc:	1ad3      	subs	r3, r2, r3
 80035ce:	f241 3288 	movw	r2, #5000	; 0x1388
 80035d2:	4293      	cmp	r3, r2
 80035d4:	d901      	bls.n	80035da <HAL_RCC_ClockConfig+0x192>
 80035d6:	2303      	movs	r3, #3
 80035d8:	e05b      	b.n	8003692 <HAL_RCC_ClockConfig+0x24a>
 80035da:	4b31      	ldr	r3, [pc, #196]	; (80036a0 <HAL_RCC_ClockConfig+0x258>)
 80035dc:	689b      	ldr	r3, [r3, #8]
 80035de:	f003 030c 	and.w	r3, r3, #12
 80035e2:	2b00      	cmp	r3, #0
 80035e4:	d1ee      	bne.n	80035c4 <HAL_RCC_ClockConfig+0x17c>
 80035e6:	4b2d      	ldr	r3, [pc, #180]	; (800369c <HAL_RCC_ClockConfig+0x254>)
 80035e8:	681b      	ldr	r3, [r3, #0]
 80035ea:	f003 0301 	and.w	r3, r3, #1
 80035ee:	683a      	ldr	r2, [r7, #0]
 80035f0:	429a      	cmp	r2, r3
 80035f2:	d219      	bcs.n	8003628 <HAL_RCC_ClockConfig+0x1e0>
 80035f4:	683b      	ldr	r3, [r7, #0]
 80035f6:	2b01      	cmp	r3, #1
 80035f8:	d105      	bne.n	8003606 <HAL_RCC_ClockConfig+0x1be>
 80035fa:	4b28      	ldr	r3, [pc, #160]	; (800369c <HAL_RCC_ClockConfig+0x254>)
 80035fc:	681b      	ldr	r3, [r3, #0]
 80035fe:	4a27      	ldr	r2, [pc, #156]	; (800369c <HAL_RCC_ClockConfig+0x254>)
 8003600:	f043 0304 	orr.w	r3, r3, #4
 8003604:	6013      	str	r3, [r2, #0]
 8003606:	4b25      	ldr	r3, [pc, #148]	; (800369c <HAL_RCC_ClockConfig+0x254>)
 8003608:	681b      	ldr	r3, [r3, #0]
 800360a:	f023 0201 	bic.w	r2, r3, #1
 800360e:	4923      	ldr	r1, [pc, #140]	; (800369c <HAL_RCC_ClockConfig+0x254>)
 8003610:	683b      	ldr	r3, [r7, #0]
 8003612:	4313      	orrs	r3, r2
 8003614:	600b      	str	r3, [r1, #0]
 8003616:	4b21      	ldr	r3, [pc, #132]	; (800369c <HAL_RCC_ClockConfig+0x254>)
 8003618:	681b      	ldr	r3, [r3, #0]
 800361a:	f003 0301 	and.w	r3, r3, #1
 800361e:	683a      	ldr	r2, [r7, #0]
 8003620:	429a      	cmp	r2, r3
 8003622:	d001      	beq.n	8003628 <HAL_RCC_ClockConfig+0x1e0>
 8003624:	2301      	movs	r3, #1
 8003626:	e034      	b.n	8003692 <HAL_RCC_ClockConfig+0x24a>
 8003628:	687b      	ldr	r3, [r7, #4]
 800362a:	681b      	ldr	r3, [r3, #0]
 800362c:	f003 0304 	and.w	r3, r3, #4
 8003630:	2b00      	cmp	r3, #0
 8003632:	d008      	beq.n	8003646 <HAL_RCC_ClockConfig+0x1fe>
 8003634:	4b1a      	ldr	r3, [pc, #104]	; (80036a0 <HAL_RCC_ClockConfig+0x258>)
 8003636:	689b      	ldr	r3, [r3, #8]
 8003638:	f423 62e0 	bic.w	r2, r3, #1792	; 0x700
 800363c:	687b      	ldr	r3, [r7, #4]
 800363e:	68db      	ldr	r3, [r3, #12]
 8003640:	4917      	ldr	r1, [pc, #92]	; (80036a0 <HAL_RCC_ClockConfig+0x258>)
 8003642:	4313      	orrs	r3, r2
 8003644:	608b      	str	r3, [r1, #8]
 8003646:	687b      	ldr	r3, [r7, #4]
 8003648:	681b      	ldr	r3, [r3, #0]
 800364a:	f003 0308 	and.w	r3, r3, #8
 800364e:	2b00      	cmp	r3, #0
 8003650:	d009      	beq.n	8003666 <HAL_RCC_ClockConfig+0x21e>
 8003652:	4b13      	ldr	r3, [pc, #76]	; (80036a0 <HAL_RCC_ClockConfig+0x258>)
 8003654:	689b      	ldr	r3, [r3, #8]
 8003656:	f423 5260 	bic.w	r2, r3, #14336	; 0x3800
 800365a:	687b      	ldr	r3, [r7, #4]
 800365c:	691b      	ldr	r3, [r3, #16]
 800365e:	00db      	lsls	r3, r3, #3
 8003660:	490f      	ldr	r1, [pc, #60]	; (80036a0 <HAL_RCC_ClockConfig+0x258>)
 8003662:	4313      	orrs	r3, r2
 8003664:	608b      	str	r3, [r1, #8]
 8003666:	f000 f823 	bl	80036b0 <HAL_RCC_GetSysClockFreq>
 800366a:	4602      	mov	r2, r0
 800366c:	4b0c      	ldr	r3, [pc, #48]	; (80036a0 <HAL_RCC_ClockConfig+0x258>)
 800366e:	689b      	ldr	r3, [r3, #8]
 8003670:	091b      	lsrs	r3, r3, #4
 8003672:	f003 030f 	and.w	r3, r3, #15
 8003676:	490b      	ldr	r1, [pc, #44]	; (80036a4 <HAL_RCC_ClockConfig+0x25c>)
 8003678:	5ccb      	ldrb	r3, [r1, r3]
 800367a:	fa22 f303 	lsr.w	r3, r2, r3
 800367e:	4a0a      	ldr	r2, [pc, #40]	; (80036a8 <HAL_RCC_ClockConfig+0x260>)
 8003680:	6013      	str	r3, [r2, #0]
 8003682:	4b0a      	ldr	r3, [pc, #40]	; (80036ac <HAL_RCC_ClockConfig+0x264>)
 8003684:	681b      	ldr	r3, [r3, #0]
 8003686:	4618      	mov	r0, r3
 8003688:	f7fe f9e4 	bl	8001a54 <HAL_InitTick>
 800368c:	4603      	mov	r3, r0
 800368e:	72fb      	strb	r3, [r7, #11]
 8003690:	7afb      	ldrb	r3, [r7, #11]
 8003692:	4618      	mov	r0, r3
 8003694:	3710      	adds	r7, #16
 8003696:	46bd      	mov	sp, r7
 8003698:	bd80      	pop	{r7, pc}
 800369a:	bf00      	nop
 800369c:	40023c00 	.word	0x40023c00
 80036a0:	40023800 	.word	0x40023800
 80036a4:	08008eb8 	.word	0x08008eb8
 80036a8:	20000004 	.word	0x20000004
 80036ac:	20000008 	.word	0x20000008

080036b0 <HAL_RCC_GetSysClockFreq>:
 80036b0:	b480      	push	{r7}
 80036b2:	b087      	sub	sp, #28
 80036b4:	af00      	add	r7, sp, #0
 80036b6:	4b28      	ldr	r3, [pc, #160]	; (8003758 <HAL_RCC_GetSysClockFreq+0xa8>)
 80036b8:	689b      	ldr	r3, [r3, #8]
 80036ba:	60fb      	str	r3, [r7, #12]
 80036bc:	68fb      	ldr	r3, [r7, #12]
 80036be:	f003 030c 	and.w	r3, r3, #12
 80036c2:	2b0c      	cmp	r3, #12
 80036c4:	d00c      	beq.n	80036e0 <HAL_RCC_GetSysClockFreq+0x30>
 80036c6:	2b0c      	cmp	r3, #12
 80036c8:	d831      	bhi.n	800372e <HAL_RCC_GetSysClockFreq+0x7e>
 80036ca:	2b04      	cmp	r3, #4
 80036cc:	d002      	beq.n	80036d4 <HAL_RCC_GetSysClockFreq+0x24>
 80036ce:	2b08      	cmp	r3, #8
 80036d0:	d003      	beq.n	80036da <HAL_RCC_GetSysClockFreq+0x2a>
 80036d2:	e02c      	b.n	800372e <HAL_RCC_GetSysClockFreq+0x7e>
 80036d4:	4b21      	ldr	r3, [pc, #132]	; (800375c <HAL_RCC_GetSysClockFreq+0xac>)
 80036d6:	613b      	str	r3, [r7, #16]
 80036d8:	e037      	b.n	800374a <HAL_RCC_GetSysClockFreq+0x9a>
 80036da:	4b21      	ldr	r3, [pc, #132]	; (8003760 <HAL_RCC_GetSysClockFreq+0xb0>)
 80036dc:	613b      	str	r3, [r7, #16]
 80036de:	e034      	b.n	800374a <HAL_RCC_GetSysClockFreq+0x9a>
 80036e0:	68fb      	ldr	r3, [r7, #12]
 80036e2:	0c9b      	lsrs	r3, r3, #18
 80036e4:	f003 030f 	and.w	r3, r3, #15
 80036e8:	4a1e      	ldr	r2, [pc, #120]	; (8003764 <HAL_RCC_GetSysClockFreq+0xb4>)
 80036ea:	5cd3      	ldrb	r3, [r2, r3]
 80036ec:	60bb      	str	r3, [r7, #8]
 80036ee:	68fb      	ldr	r3, [r7, #12]
 80036f0:	0d9b      	lsrs	r3, r3, #22
 80036f2:	f003 0303 	and.w	r3, r3, #3
 80036f6:	3301      	adds	r3, #1
 80036f8:	607b      	str	r3, [r7, #4]
 80036fa:	4b17      	ldr	r3, [pc, #92]	; (8003758 <HAL_RCC_GetSysClockFreq+0xa8>)
 80036fc:	689b      	ldr	r3, [r3, #8]
 80036fe:	f403 3380 	and.w	r3, r3, #65536	; 0x10000
 8003702:	2b00      	cmp	r3, #0
 8003704:	d008      	beq.n	8003718 <HAL_RCC_GetSysClockFreq+0x68>
 8003706:	68bb      	ldr	r3, [r7, #8]
 8003708:	4a15      	ldr	r2, [pc, #84]	; (8003760 <HAL_RCC_GetSysClockFreq+0xb0>)
 800370a:	fb03 f202 	mul.w	r2, r3, r2
 800370e:	687b      	ldr	r3, [r7, #4]
 8003710:	fbb2 f3f3 	udiv	r3, r2, r3
 8003714:	617b      	str	r3, [r7, #20]
 8003716:	e007      	b.n	8003728 <HAL_RCC_GetSysClockFreq+0x78>
 8003718:	68bb      	ldr	r3, [r7, #8]
 800371a:	4a10      	ldr	r2, [pc, #64]	; (800375c <HAL_RCC_GetSysClockFreq+0xac>)
 800371c:	fb03 f202 	mul.w	r2, r3, r2
 8003720:	687b      	ldr	r3, [r7, #4]
 8003722:	fbb2 f3f3 	udiv	r3, r2, r3
 8003726:	617b      	str	r3, [r7, #20]
 8003728:	697b      	ldr	r3, [r7, #20]
 800372a:	613b      	str	r3, [r7, #16]
 800372c:	e00d      	b.n	800374a <HAL_RCC_GetSysClockFreq+0x9a>
 800372e:	4b0a      	ldr	r3, [pc, #40]	; (8003758 <HAL_RCC_GetSysClockFreq+0xa8>)
 8003730:	685b      	ldr	r3, [r3, #4]
 8003732:	0b5b      	lsrs	r3, r3, #13
 8003734:	f003 0307 	and.w	r3, r3, #7
 8003738:	603b      	str	r3, [r7, #0]
 800373a:	683b      	ldr	r3, [r7, #0]
 800373c:	3301      	adds	r3, #1
 800373e:	f44f 4200 	mov.w	r2, #32768	; 0x8000
 8003742:	fa02 f303 	lsl.w	r3, r2, r3
 8003746:	613b      	str	r3, [r7, #16]
 8003748:	bf00      	nop
 800374a:	693b      	ldr	r3, [r7, #16]
 800374c:	4618      	mov	r0, r3
 800374e:	371c      	adds	r7, #28
 8003750:	46bd      	mov	sp, r7
 8003752:	bc80      	pop	{r7}
 8003754:	4770      	bx	lr
 8003756:	bf00      	nop
 8003758:	40023800 	.word	0x40023800
 800375c:	00f42400 	.word	0x00f42400
 8003760:	007a1200 	.word	0x007a1200
 8003764:	08008eac 	.word	0x08008eac

08003768 <RCC_SetFlashLatencyFromMSIRange>:
 8003768:	b480      	push	{r7}
 800376a:	b087      	sub	sp, #28
 800376c:	af00      	add	r7, sp, #0
 800376e:	6078      	str	r0, [r7, #4]
 8003770:	2300      	movs	r3, #0
 8003772:	613b      	str	r3, [r7, #16]
 8003774:	4b29      	ldr	r3, [pc, #164]	; (800381c <RCC_SetFlashLatencyFromMSIRange+0xb4>)
 8003776:	689b      	ldr	r3, [r3, #8]
 8003778:	f003 03f0 	and.w	r3, r3, #240	; 0xf0
 800377c:	2b00      	cmp	r3, #0
 800377e:	d12c      	bne.n	80037da <RCC_SetFlashLatencyFromMSIRange+0x72>
 8003780:	4b26      	ldr	r3, [pc, #152]	; (800381c <RCC_SetFlashLatencyFromMSIRange+0xb4>)
 8003782:	6a5b      	ldr	r3, [r3, #36]	; 0x24
 8003784:	f003 5380 	and.w	r3, r3, #268435456	; 0x10000000
 8003788:	2b00      	cmp	r3, #0
 800378a:	d005      	beq.n	8003798 <RCC_SetFlashLatencyFromMSIRange+0x30>
 800378c:	4b24      	ldr	r3, [pc, #144]	; (8003820 <RCC_SetFlashLatencyFromMSIRange+0xb8>)
 800378e:	681b      	ldr	r3, [r3, #0]
 8003790:	f403 53c0 	and.w	r3, r3, #6144	; 0x1800
 8003794:	617b      	str	r3, [r7, #20]
 8003796:	e016      	b.n	80037c6 <RCC_SetFlashLatencyFromMSIRange+0x5e>
 8003798:	4b20      	ldr	r3, [pc, #128]	; (800381c <RCC_SetFlashLatencyFromMSIRange+0xb4>)
 800379a:	6a5b      	ldr	r3, [r3, #36]	; 0x24
 800379c:	4a1f      	ldr	r2, [pc, #124]	; (800381c <RCC_SetFlashLatencyFromMSIRange+0xb4>)
 800379e:	f043 5380 	orr.w	r3, r3, #268435456	; 0x10000000
 80037a2:	6253      	str	r3, [r2, #36]	; 0x24
 80037a4:	4b1d      	ldr	r3, [pc, #116]	; (800381c <RCC_SetFlashLatencyFromMSIRange+0xb4>)
 80037a6:	6a5b      	ldr	r3, [r3, #36]	; 0x24
 80037a8:	f003 5380 	and.w	r3, r3, #268435456	; 0x10000000
 80037ac:	60fb      	str	r3, [r7, #12]
 80037ae:	68fb      	ldr	r3, [r7, #12]
 80037b0:	4b1b      	ldr	r3, [pc, #108]	; (8003820 <RCC_SetFlashLatencyFromMSIRange+0xb8>)
 80037b2:	681b      	ldr	r3, [r3, #0]
 80037b4:	f403 53c0 	and.w	r3, r3, #6144	; 0x1800
 80037b8:	617b      	str	r3, [r7, #20]
 80037ba:	4b18      	ldr	r3, [pc, #96]	; (800381c <RCC_SetFlashLatencyFromMSIRange+0xb4>)
 80037bc:	6a5b      	ldr	r3, [r3, #36]	; 0x24
 80037be:	4a17      	ldr	r2, [pc, #92]	; (800381c <RCC_SetFlashLatencyFromMSIRange+0xb4>)
 80037c0:	f023 5380 	bic.w	r3, r3, #268435456	; 0x10000000
 80037c4:	6253      	str	r3, [r2, #36]	; 0x24
 80037c6:	697b      	ldr	r3, [r7, #20]
 80037c8:	f5b3 5fc0 	cmp.w	r3, #6144	; 0x1800
 80037cc:	d105      	bne.n	80037da <RCC_SetFlashLatencyFromMSIRange+0x72>
 80037ce:	687b      	ldr	r3, [r7, #4]
 80037d0:	f5b3 4f40 	cmp.w	r3, #49152	; 0xc000
 80037d4:	d101      	bne.n	80037da <RCC_SetFlashLatencyFromMSIRange+0x72>
 80037d6:	2301      	movs	r3, #1
 80037d8:	613b      	str	r3, [r7, #16]
 80037da:	693b      	ldr	r3, [r7, #16]
 80037dc:	2b01      	cmp	r3, #1
 80037de:	d105      	bne.n	80037ec <RCC_SetFlashLatencyFromMSIRange+0x84>
 80037e0:	4b10      	ldr	r3, [pc, #64]	; (8003824 <RCC_SetFlashLatencyFromMSIRange+0xbc>)
 80037e2:	681b      	ldr	r3, [r3, #0]
 80037e4:	4a0f      	ldr	r2, [pc, #60]	; (8003824 <RCC_SetFlashLatencyFromMSIRange+0xbc>)
 80037e6:	f043 0304 	orr.w	r3, r3, #4
 80037ea:	6013      	str	r3, [r2, #0]
 80037ec:	4b0d      	ldr	r3, [pc, #52]	; (8003824 <RCC_SetFlashLatencyFromMSIRange+0xbc>)
 80037ee:	681b      	ldr	r3, [r3, #0]
 80037f0:	f023 0201 	bic.w	r2, r3, #1
 80037f4:	490b      	ldr	r1, [pc, #44]	; (8003824 <RCC_SetFlashLatencyFromMSIRange+0xbc>)
 80037f6:	693b      	ldr	r3, [r7, #16]
 80037f8:	4313      	orrs	r3, r2
 80037fa:	600b      	str	r3, [r1, #0]
 80037fc:	4b09      	ldr	r3, [pc, #36]	; (8003824 <RCC_SetFlashLatencyFromMSIRange+0xbc>)
 80037fe:	681b      	ldr	r3, [r3, #0]
 8003800:	f003 0301 	and.w	r3, r3, #1
 8003804:	693a      	ldr	r2, [r7, #16]
 8003806:	429a      	cmp	r2, r3
 8003808:	d001      	beq.n	800380e <RCC_SetFlashLatencyFromMSIRange+0xa6>
 800380a:	2301      	movs	r3, #1
 800380c:	e000      	b.n	8003810 <RCC_SetFlashLatencyFromMSIRange+0xa8>
 800380e:	2300      	movs	r3, #0
 8003810:	4618      	mov	r0, r3
 8003812:	371c      	adds	r7, #28
 8003814:	46bd      	mov	sp, r7
 8003816:	bc80      	pop	{r7}
 8003818:	4770      	bx	lr
 800381a:	bf00      	nop
 800381c:	40023800 	.word	0x40023800
 8003820:	40007000 	.word	0x40007000
 8003824:	40023c00 	.word	0x40023c00

08003828 <HAL_RCCEx_PeriphCLKConfig>:
 8003828:	b580      	push	{r7, lr}
 800382a:	b086      	sub	sp, #24
 800382c:	af00      	add	r7, sp, #0
 800382e:	6078      	str	r0, [r7, #4]
 8003830:	687b      	ldr	r3, [r7, #4]
 8003832:	681b      	ldr	r3, [r3, #0]
 8003834:	f003 0301 	and.w	r3, r3, #1
 8003838:	2b00      	cmp	r3, #0
 800383a:	f000 80b2 	beq.w	80039a2 <HAL_RCCEx_PeriphCLKConfig+0x17a>
 800383e:	2300      	movs	r3, #0
 8003840:	75fb      	strb	r3, [r7, #23]
 8003842:	4b5a      	ldr	r3, [pc, #360]	; (80039ac <HAL_RCCEx_PeriphCLKConfig+0x184>)
 8003844:	6a5b      	ldr	r3, [r3, #36]	; 0x24
 8003846:	f003 5380 	and.w	r3, r3, #268435456	; 0x10000000
 800384a:	2b00      	cmp	r3, #0
 800384c:	d10d      	bne.n	800386a <HAL_RCCEx_PeriphCLKConfig+0x42>
 800384e:	4b57      	ldr	r3, [pc, #348]	; (80039ac <HAL_RCCEx_PeriphCLKConfig+0x184>)
 8003850:	6a5b      	ldr	r3, [r3, #36]	; 0x24
 8003852:	4a56      	ldr	r2, [pc, #344]	; (80039ac <HAL_RCCEx_PeriphCLKConfig+0x184>)
 8003854:	f043 5380 	orr.w	r3, r3, #268435456	; 0x10000000
 8003858:	6253      	str	r3, [r2, #36]	; 0x24
 800385a:	4b54      	ldr	r3, [pc, #336]	; (80039ac <HAL_RCCEx_PeriphCLKConfig+0x184>)
 800385c:	6a5b      	ldr	r3, [r3, #36]	; 0x24
 800385e:	f003 5380 	and.w	r3, r3, #268435456	; 0x10000000
 8003862:	60bb      	str	r3, [r7, #8]
 8003864:	68bb      	ldr	r3, [r7, #8]
 8003866:	2301      	movs	r3, #1
 8003868:	75fb      	strb	r3, [r7, #23]
 800386a:	4b51      	ldr	r3, [pc, #324]	; (80039b0 <HAL_RCCEx_PeriphCLKConfig+0x188>)
 800386c:	681b      	ldr	r3, [r3, #0]
 800386e:	f403 7380 	and.w	r3, r3, #256	; 0x100
 8003872:	2b00      	cmp	r3, #0
 8003874:	d118      	bne.n	80038a8 <HAL_RCCEx_PeriphCLKConfig+0x80>
 8003876:	4b4e      	ldr	r3, [pc, #312]	; (80039b0 <HAL_RCCEx_PeriphCLKConfig+0x188>)
 8003878:	681b      	ldr	r3, [r3, #0]
 800387a:	4a4d      	ldr	r2, [pc, #308]	; (80039b0 <HAL_RCCEx_PeriphCLKConfig+0x188>)
 800387c:	f443 7380 	orr.w	r3, r3, #256	; 0x100
 8003880:	6013      	str	r3, [r2, #0]
 8003882:	f7fe f933 	bl	8001aec <HAL_GetTick>
 8003886:	6138      	str	r0, [r7, #16]
 8003888:	e008      	b.n	800389c <HAL_RCCEx_PeriphCLKConfig+0x74>
 800388a:	f7fe f92f 	bl	8001aec <HAL_GetTick>
 800388e:	4602      	mov	r2, r0
 8003890:	693b      	ldr	r3, [r7, #16]
 8003892:	1ad3      	subs	r3, r2, r3
 8003894:	2b64      	cmp	r3, #100	; 0x64
 8003896:	d901      	bls.n	800389c <HAL_RCCEx_PeriphCLKConfig+0x74>
 8003898:	2303      	movs	r3, #3
 800389a:	e083      	b.n	80039a4 <HAL_RCCEx_PeriphCLKConfig+0x17c>
 800389c:	4b44      	ldr	r3, [pc, #272]	; (80039b0 <HAL_RCCEx_PeriphCLKConfig+0x188>)
 800389e:	681b      	ldr	r3, [r3, #0]
 80038a0:	f403 7380 	and.w	r3, r3, #256	; 0x100
 80038a4:	2b00      	cmp	r3, #0
 80038a6:	d0f0      	beq.n	800388a <HAL_RCCEx_PeriphCLKConfig+0x62>
 80038a8:	4b40      	ldr	r3, [pc, #256]	; (80039ac <HAL_RCCEx_PeriphCLKConfig+0x184>)
 80038aa:	681b      	ldr	r3, [r3, #0]
 80038ac:	f003 43c0 	and.w	r3, r3, #1610612736	; 0x60000000
 80038b0:	60fb      	str	r3, [r7, #12]
 80038b2:	687b      	ldr	r3, [r7, #4]
 80038b4:	685b      	ldr	r3, [r3, #4]
 80038b6:	f003 43c0 	and.w	r3, r3, #1610612736	; 0x60000000
 80038ba:	68fa      	ldr	r2, [r7, #12]
 80038bc:	429a      	cmp	r2, r3
 80038be:	d00f      	beq.n	80038e0 <HAL_RCCEx_PeriphCLKConfig+0xb8>
 80038c0:	687b      	ldr	r3, [r7, #4]
 80038c2:	685b      	ldr	r3, [r3, #4]
 80038c4:	f403 3340 	and.w	r3, r3, #196608	; 0x30000
 80038c8:	f5b3 3f40 	cmp.w	r3, #196608	; 0x30000
 80038cc:	d108      	bne.n	80038e0 <HAL_RCCEx_PeriphCLKConfig+0xb8>
 80038ce:	4b37      	ldr	r3, [pc, #220]	; (80039ac <HAL_RCCEx_PeriphCLKConfig+0x184>)
 80038d0:	681b      	ldr	r3, [r3, #0]
 80038d2:	f403 3300 	and.w	r3, r3, #131072	; 0x20000
 80038d6:	f5b3 3f00 	cmp.w	r3, #131072	; 0x20000
 80038da:	d101      	bne.n	80038e0 <HAL_RCCEx_PeriphCLKConfig+0xb8>
 80038dc:	2301      	movs	r3, #1
 80038de:	e061      	b.n	80039a4 <HAL_RCCEx_PeriphCLKConfig+0x17c>
 80038e0:	4b32      	ldr	r3, [pc, #200]	; (80039ac <HAL_RCCEx_PeriphCLKConfig+0x184>)
 80038e2:	6b5b      	ldr	r3, [r3, #52]	; 0x34
 80038e4:	f403 3340 	and.w	r3, r3, #196608	; 0x30000
 80038e8:	60fb      	str	r3, [r7, #12]
 80038ea:	68fb      	ldr	r3, [r7, #12]
 80038ec:	2b00      	cmp	r3, #0
 80038ee:	d034      	beq.n	800395a <HAL_RCCEx_PeriphCLKConfig+0x132>
 80038f0:	687b      	ldr	r3, [r7, #4]
 80038f2:	685b      	ldr	r3, [r3, #4]
 80038f4:	f403 3340 	and.w	r3, r3, #196608	; 0x30000
 80038f8:	68fa      	ldr	r2, [r7, #12]
 80038fa:	429a      	cmp	r2, r3
 80038fc:	d02d      	beq.n	800395a <HAL_RCCEx_PeriphCLKConfig+0x132>
 80038fe:	687b      	ldr	r3, [r7, #4]
 8003900:	681b      	ldr	r3, [r3, #0]
 8003902:	f003 0301 	and.w	r3, r3, #1
 8003906:	2b00      	cmp	r3, #0
 8003908:	d027      	beq.n	800395a <HAL_RCCEx_PeriphCLKConfig+0x132>
 800390a:	4b28      	ldr	r3, [pc, #160]	; (80039ac <HAL_RCCEx_PeriphCLKConfig+0x184>)
 800390c:	6b5b      	ldr	r3, [r3, #52]	; 0x34
 800390e:	f423 3340 	bic.w	r3, r3, #196608	; 0x30000
 8003912:	60fb      	str	r3, [r7, #12]
 8003914:	4b27      	ldr	r3, [pc, #156]	; (80039b4 <HAL_RCCEx_PeriphCLKConfig+0x18c>)
 8003916:	2201      	movs	r2, #1
 8003918:	601a      	str	r2, [r3, #0]
 800391a:	4b26      	ldr	r3, [pc, #152]	; (80039b4 <HAL_RCCEx_PeriphCLKConfig+0x18c>)
 800391c:	2200      	movs	r2, #0
 800391e:	601a      	str	r2, [r3, #0]
 8003920:	4a22      	ldr	r2, [pc, #136]	; (80039ac <HAL_RCCEx_PeriphCLKConfig+0x184>)
 8003922:	68fb      	ldr	r3, [r7, #12]
 8003924:	6353      	str	r3, [r2, #52]	; 0x34
 8003926:	68fb      	ldr	r3, [r7, #12]
 8003928:	f403 7380 	and.w	r3, r3, #256	; 0x100
 800392c:	2b00      	cmp	r3, #0
 800392e:	d014      	beq.n	800395a <HAL_RCCEx_PeriphCLKConfig+0x132>
 8003930:	f7fe f8dc 	bl	8001aec <HAL_GetTick>
 8003934:	6138      	str	r0, [r7, #16]
 8003936:	e00a      	b.n	800394e <HAL_RCCEx_PeriphCLKConfig+0x126>
 8003938:	f7fe f8d8 	bl	8001aec <HAL_GetTick>
 800393c:	4602      	mov	r2, r0
 800393e:	693b      	ldr	r3, [r7, #16]
 8003940:	1ad3      	subs	r3, r2, r3
 8003942:	f241 3288 	movw	r2, #5000	; 0x1388
 8003946:	4293      	cmp	r3, r2
 8003948:	d901      	bls.n	800394e <HAL_RCCEx_PeriphCLKConfig+0x126>
 800394a:	2303      	movs	r3, #3
 800394c:	e02a      	b.n	80039a4 <HAL_RCCEx_PeriphCLKConfig+0x17c>
 800394e:	4b17      	ldr	r3, [pc, #92]	; (80039ac <HAL_RCCEx_PeriphCLKConfig+0x184>)
 8003950:	6b5b      	ldr	r3, [r3, #52]	; 0x34
 8003952:	f403 7300 	and.w	r3, r3, #512	; 0x200
 8003956:	2b00      	cmp	r3, #0
 8003958:	d0ee      	beq.n	8003938 <HAL_RCCEx_PeriphCLKConfig+0x110>
 800395a:	687b      	ldr	r3, [r7, #4]
 800395c:	685b      	ldr	r3, [r3, #4]
 800395e:	f403 3340 	and.w	r3, r3, #196608	; 0x30000
 8003962:	f5b3 3f40 	cmp.w	r3, #196608	; 0x30000
 8003966:	d10a      	bne.n	800397e <HAL_RCCEx_PeriphCLKConfig+0x156>
 8003968:	4b10      	ldr	r3, [pc, #64]	; (80039ac <HAL_RCCEx_PeriphCLKConfig+0x184>)
 800396a:	681b      	ldr	r3, [r3, #0]
 800396c:	f023 42c0 	bic.w	r2, r3, #1610612736	; 0x60000000
 8003970:	687b      	ldr	r3, [r7, #4]
 8003972:	685b      	ldr	r3, [r3, #4]
 8003974:	f003 43c0 	and.w	r3, r3, #1610612736	; 0x60000000
 8003978:	490c      	ldr	r1, [pc, #48]	; (80039ac <HAL_RCCEx_PeriphCLKConfig+0x184>)
 800397a:	4313      	orrs	r3, r2
 800397c:	600b      	str	r3, [r1, #0]
 800397e:	4b0b      	ldr	r3, [pc, #44]	; (80039ac <HAL_RCCEx_PeriphCLKConfig+0x184>)
 8003980:	6b5a      	ldr	r2, [r3, #52]	; 0x34
 8003982:	687b      	ldr	r3, [r7, #4]
 8003984:	685b      	ldr	r3, [r3, #4]
 8003986:	f403 3340 	and.w	r3, r3, #196608	; 0x30000
 800398a:	4908      	ldr	r1, [pc, #32]	; (80039ac <HAL_RCCEx_PeriphCLKConfig+0x184>)
 800398c:	4313      	orrs	r3, r2
 800398e:	634b      	str	r3, [r1, #52]	; 0x34
 8003990:	7dfb      	ldrb	r3, [r7, #23]
 8003992:	2b01      	cmp	r3, #1
 8003994:	d105      	bne.n	80039a2 <HAL_RCCEx_PeriphCLKConfig+0x17a>
 8003996:	4b05      	ldr	r3, [pc, #20]	; (80039ac <HAL_RCCEx_PeriphCLKConfig+0x184>)
 8003998:	6a5b      	ldr	r3, [r3, #36]	; 0x24
 800399a:	4a04      	ldr	r2, [pc, #16]	; (80039ac <HAL_RCCEx_PeriphCLKConfig+0x184>)
 800399c:	f023 5380 	bic.w	r3, r3, #268435456	; 0x10000000
 80039a0:	6253      	str	r3, [r2, #36]	; 0x24
 80039a2:	2300      	movs	r3, #0
 80039a4:	4618      	mov	r0, r3
 80039a6:	3718      	adds	r7, #24
 80039a8:	46bd      	mov	sp, r7
 80039aa:	bd80      	pop	{r7, pc}
 80039ac:	40023800 	.word	0x40023800
 80039b0:	40007000 	.word	0x40007000
 80039b4:	424706dc 	.word	0x424706dc

080039b8 <HAL_RTC_Init>:
 80039b8:	b580      	push	{r7, lr}
 80039ba:	b082      	sub	sp, #8
 80039bc:	af00      	add	r7, sp, #0
 80039be:	6078      	str	r0, [r7, #4]
 80039c0:	687b      	ldr	r3, [r7, #4]
 80039c2:	2b00      	cmp	r3, #0
 80039c4:	d101      	bne.n	80039ca <HAL_RTC_Init+0x12>
 80039c6:	2301      	movs	r3, #1
 80039c8:	e06d      	b.n	8003aa6 <HAL_RTC_Init+0xee>
 80039ca:	687b      	ldr	r3, [r7, #4]
 80039cc:	7f5b      	ldrb	r3, [r3, #29]
 80039ce:	b2db      	uxtb	r3, r3
 80039d0:	2b00      	cmp	r3, #0
 80039d2:	d105      	bne.n	80039e0 <HAL_RTC_Init+0x28>
 80039d4:	687b      	ldr	r3, [r7, #4]
 80039d6:	2200      	movs	r2, #0
 80039d8:	771a      	strb	r2, [r3, #28]
 80039da:	6878      	ldr	r0, [r7, #4]
 80039dc:	f7fd fede 	bl	800179c <HAL_RTC_MspInit>
 80039e0:	687b      	ldr	r3, [r7, #4]
 80039e2:	2202      	movs	r2, #2
 80039e4:	775a      	strb	r2, [r3, #29]
 80039e6:	687b      	ldr	r3, [r7, #4]
 80039e8:	681b      	ldr	r3, [r3, #0]
 80039ea:	22ca      	movs	r2, #202	; 0xca
 80039ec:	625a      	str	r2, [r3, #36]	; 0x24
 80039ee:	687b      	ldr	r3, [r7, #4]
 80039f0:	681b      	ldr	r3, [r3, #0]
 80039f2:	2253      	movs	r2, #83	; 0x53
 80039f4:	625a      	str	r2, [r3, #36]	; 0x24
 80039f6:	6878      	ldr	r0, [r7, #4]
 80039f8:	f000 faec 	bl	8003fd4 <RTC_EnterInitMode>
 80039fc:	4603      	mov	r3, r0
 80039fe:	2b00      	cmp	r3, #0
 8003a00:	d008      	beq.n	8003a14 <HAL_RTC_Init+0x5c>
 8003a02:	687b      	ldr	r3, [r7, #4]
 8003a04:	681b      	ldr	r3, [r3, #0]
 8003a06:	22ff      	movs	r2, #255	; 0xff
 8003a08:	625a      	str	r2, [r3, #36]	; 0x24
 8003a0a:	687b      	ldr	r3, [r7, #4]
 8003a0c:	2204      	movs	r2, #4
 8003a0e:	775a      	strb	r2, [r3, #29]
 8003a10:	2301      	movs	r3, #1
 8003a12:	e048      	b.n	8003aa6 <HAL_RTC_Init+0xee>
 8003a14:	687b      	ldr	r3, [r7, #4]
 8003a16:	681b      	ldr	r3, [r3, #0]
 8003a18:	689b      	ldr	r3, [r3, #8]
 8003a1a:	687a      	ldr	r2, [r7, #4]
 8003a1c:	6812      	ldr	r2, [r2, #0]
 8003a1e:	f423 03e0 	bic.w	r3, r3, #7340032	; 0x700000
 8003a22:	f023 0340 	bic.w	r3, r3, #64	; 0x40
 8003a26:	6093      	str	r3, [r2, #8]
 8003a28:	687b      	ldr	r3, [r7, #4]
 8003a2a:	681b      	ldr	r3, [r3, #0]
 8003a2c:	6899      	ldr	r1, [r3, #8]
 8003a2e:	687b      	ldr	r3, [r7, #4]
 8003a30:	685a      	ldr	r2, [r3, #4]
 8003a32:	687b      	ldr	r3, [r7, #4]
 8003a34:	691b      	ldr	r3, [r3, #16]
 8003a36:	431a      	orrs	r2, r3
 8003a38:	687b      	ldr	r3, [r7, #4]
 8003a3a:	695b      	ldr	r3, [r3, #20]
 8003a3c:	431a      	orrs	r2, r3
 8003a3e:	687b      	ldr	r3, [r7, #4]
 8003a40:	681b      	ldr	r3, [r3, #0]
 8003a42:	430a      	orrs	r2, r1
 8003a44:	609a      	str	r2, [r3, #8]
 8003a46:	687b      	ldr	r3, [r7, #4]
 8003a48:	681b      	ldr	r3, [r3, #0]
 8003a4a:	687a      	ldr	r2, [r7, #4]
 8003a4c:	68d2      	ldr	r2, [r2, #12]
 8003a4e:	611a      	str	r2, [r3, #16]
 8003a50:	687b      	ldr	r3, [r7, #4]
 8003a52:	681b      	ldr	r3, [r3, #0]
 8003a54:	6919      	ldr	r1, [r3, #16]
 8003a56:	687b      	ldr	r3, [r7, #4]
 8003a58:	689b      	ldr	r3, [r3, #8]
 8003a5a:	041a      	lsls	r2, r3, #16
 8003a5c:	687b      	ldr	r3, [r7, #4]
 8003a5e:	681b      	ldr	r3, [r3, #0]
 8003a60:	430a      	orrs	r2, r1
 8003a62:	611a      	str	r2, [r3, #16]
 8003a64:	687b      	ldr	r3, [r7, #4]
 8003a66:	681b      	ldr	r3, [r3, #0]
 8003a68:	68da      	ldr	r2, [r3, #12]
 8003a6a:	687b      	ldr	r3, [r7, #4]
 8003a6c:	681b      	ldr	r3, [r3, #0]
 8003a6e:	f022 0280 	bic.w	r2, r2, #128	; 0x80
 8003a72:	60da      	str	r2, [r3, #12]
 8003a74:	687b      	ldr	r3, [r7, #4]
 8003a76:	681b      	ldr	r3, [r3, #0]
 8003a78:	6c1a      	ldr	r2, [r3, #64]	; 0x40
 8003a7a:	687b      	ldr	r3, [r7, #4]
 8003a7c:	681b      	ldr	r3, [r3, #0]
 8003a7e:	f422 2280 	bic.w	r2, r2, #262144	; 0x40000
 8003a82:	641a      	str	r2, [r3, #64]	; 0x40
 8003a84:	687b      	ldr	r3, [r7, #4]
 8003a86:	681b      	ldr	r3, [r3, #0]
 8003a88:	6c19      	ldr	r1, [r3, #64]	; 0x40
 8003a8a:	687b      	ldr	r3, [r7, #4]
 8003a8c:	699a      	ldr	r2, [r3, #24]
 8003a8e:	687b      	ldr	r3, [r7, #4]
 8003a90:	681b      	ldr	r3, [r3, #0]
 8003a92:	430a      	orrs	r2, r1
 8003a94:	641a      	str	r2, [r3, #64]	; 0x40
 8003a96:	687b      	ldr	r3, [r7, #4]
 8003a98:	681b      	ldr	r3, [r3, #0]
 8003a9a:	22ff      	movs	r2, #255	; 0xff
 8003a9c:	625a      	str	r2, [r3, #36]	; 0x24
 8003a9e:	687b      	ldr	r3, [r7, #4]
 8003aa0:	2201      	movs	r2, #1
 8003aa2:	775a      	strb	r2, [r3, #29]
 8003aa4:	2300      	movs	r3, #0
 8003aa6:	4618      	mov	r0, r3
 8003aa8:	3708      	adds	r7, #8
 8003aaa:	46bd      	mov	sp, r7
 8003aac:	bd80      	pop	{r7, pc}

08003aae <HAL_RTC_SetTime>:
 8003aae:	b590      	push	{r4, r7, lr}
 8003ab0:	b087      	sub	sp, #28
 8003ab2:	af00      	add	r7, sp, #0
 8003ab4:	60f8      	str	r0, [r7, #12]
 8003ab6:	60b9      	str	r1, [r7, #8]
 8003ab8:	607a      	str	r2, [r7, #4]
 8003aba:	68fb      	ldr	r3, [r7, #12]
 8003abc:	7f1b      	ldrb	r3, [r3, #28]
 8003abe:	2b01      	cmp	r3, #1
 8003ac0:	d101      	bne.n	8003ac6 <HAL_RTC_SetTime+0x18>
 8003ac2:	2302      	movs	r3, #2
 8003ac4:	e0a3      	b.n	8003c0e <HAL_RTC_SetTime+0x160>
 8003ac6:	68fb      	ldr	r3, [r7, #12]
 8003ac8:	2201      	movs	r2, #1
 8003aca:	771a      	strb	r2, [r3, #28]
 8003acc:	68fb      	ldr	r3, [r7, #12]
 8003ace:	2202      	movs	r2, #2
 8003ad0:	775a      	strb	r2, [r3, #29]
 8003ad2:	687b      	ldr	r3, [r7, #4]
 8003ad4:	2b00      	cmp	r3, #0
 8003ad6:	d126      	bne.n	8003b26 <HAL_RTC_SetTime+0x78>
 8003ad8:	68fb      	ldr	r3, [r7, #12]
 8003ada:	681b      	ldr	r3, [r3, #0]
 8003adc:	689b      	ldr	r3, [r3, #8]
 8003ade:	f003 0340 	and.w	r3, r3, #64	; 0x40
 8003ae2:	2b00      	cmp	r3, #0
 8003ae4:	d102      	bne.n	8003aec <HAL_RTC_SetTime+0x3e>
 8003ae6:	68bb      	ldr	r3, [r7, #8]
 8003ae8:	2200      	movs	r2, #0
 8003aea:	70da      	strb	r2, [r3, #3]
 8003aec:	68bb      	ldr	r3, [r7, #8]
 8003aee:	781b      	ldrb	r3, [r3, #0]
 8003af0:	4618      	mov	r0, r3
 8003af2:	f000 fa99 	bl	8004028 <RTC_ByteToBcd2>
 8003af6:	4603      	mov	r3, r0
 8003af8:	041c      	lsls	r4, r3, #16
 8003afa:	68bb      	ldr	r3, [r7, #8]
 8003afc:	785b      	ldrb	r3, [r3, #1]
 8003afe:	4618      	mov	r0, r3
 8003b00:	f000 fa92 	bl	8004028 <RTC_ByteToBcd2>
 8003b04:	4603      	mov	r3, r0
 8003b06:	021b      	lsls	r3, r3, #8
 8003b08:	431c      	orrs	r4, r3
 8003b0a:	68bb      	ldr	r3, [r7, #8]
 8003b0c:	789b      	ldrb	r3, [r3, #2]
 8003b0e:	4618      	mov	r0, r3
 8003b10:	f000 fa8a 	bl	8004028 <RTC_ByteToBcd2>
 8003b14:	4603      	mov	r3, r0
 8003b16:	ea44 0203 	orr.w	r2, r4, r3
 8003b1a:	68bb      	ldr	r3, [r7, #8]
 8003b1c:	78db      	ldrb	r3, [r3, #3]
 8003b1e:	041b      	lsls	r3, r3, #16
 8003b20:	4313      	orrs	r3, r2
 8003b22:	617b      	str	r3, [r7, #20]
 8003b24:	e018      	b.n	8003b58 <HAL_RTC_SetTime+0xaa>
 8003b26:	68fb      	ldr	r3, [r7, #12]
 8003b28:	681b      	ldr	r3, [r3, #0]
 8003b2a:	689b      	ldr	r3, [r3, #8]
 8003b2c:	f003 0340 	and.w	r3, r3, #64	; 0x40
 8003b30:	2b00      	cmp	r3, #0
 8003b32:	d102      	bne.n	8003b3a <HAL_RTC_SetTime+0x8c>
 8003b34:	68bb      	ldr	r3, [r7, #8]
 8003b36:	2200      	movs	r2, #0
 8003b38:	70da      	strb	r2, [r3, #3]
 8003b3a:	68bb      	ldr	r3, [r7, #8]
 8003b3c:	781b      	ldrb	r3, [r3, #0]
 8003b3e:	041a      	lsls	r2, r3, #16
 8003b40:	68bb      	ldr	r3, [r7, #8]
 8003b42:	785b      	ldrb	r3, [r3, #1]
 8003b44:	021b      	lsls	r3, r3, #8
 8003b46:	4313      	orrs	r3, r2
 8003b48:	68ba      	ldr	r2, [r7, #8]
 8003b4a:	7892      	ldrb	r2, [r2, #2]
 8003b4c:	431a      	orrs	r2, r3
 8003b4e:	68bb      	ldr	r3, [r7, #8]
 8003b50:	78db      	ldrb	r3, [r3, #3]
 8003b52:	041b      	lsls	r3, r3, #16
 8003b54:	4313      	orrs	r3, r2
 8003b56:	617b      	str	r3, [r7, #20]
 8003b58:	68fb      	ldr	r3, [r7, #12]
 8003b5a:	681b      	ldr	r3, [r3, #0]
 8003b5c:	22ca      	movs	r2, #202	; 0xca
 8003b5e:	625a      	str	r2, [r3, #36]	; 0x24
 8003b60:	68fb      	ldr	r3, [r7, #12]
 8003b62:	681b      	ldr	r3, [r3, #0]
 8003b64:	2253      	movs	r2, #83	; 0x53
 8003b66:	625a      	str	r2, [r3, #36]	; 0x24
 8003b68:	68f8      	ldr	r0, [r7, #12]
 8003b6a:	f000 fa33 	bl	8003fd4 <RTC_EnterInitMode>
 8003b6e:	4603      	mov	r3, r0
 8003b70:	2b00      	cmp	r3, #0
 8003b72:	d00b      	beq.n	8003b8c <HAL_RTC_SetTime+0xde>
 8003b74:	68fb      	ldr	r3, [r7, #12]
 8003b76:	681b      	ldr	r3, [r3, #0]
 8003b78:	22ff      	movs	r2, #255	; 0xff
 8003b7a:	625a      	str	r2, [r3, #36]	; 0x24
 8003b7c:	68fb      	ldr	r3, [r7, #12]
 8003b7e:	2204      	movs	r2, #4
 8003b80:	775a      	strb	r2, [r3, #29]
 8003b82:	68fb      	ldr	r3, [r7, #12]
 8003b84:	2200      	movs	r2, #0
 8003b86:	771a      	strb	r2, [r3, #28]
 8003b88:	2301      	movs	r3, #1
 8003b8a:	e040      	b.n	8003c0e <HAL_RTC_SetTime+0x160>
 8003b8c:	68fb      	ldr	r3, [r7, #12]
 8003b8e:	681a      	ldr	r2, [r3, #0]
 8003b90:	697b      	ldr	r3, [r7, #20]
 8003b92:	f003 337f 	and.w	r3, r3, #2139062143	; 0x7f7f7f7f
 8003b96:	f023 43fe 	bic.w	r3, r3, #2130706432	; 0x7f000000
 8003b9a:	6013      	str	r3, [r2, #0]
 8003b9c:	68fb      	ldr	r3, [r7, #12]
 8003b9e:	681b      	ldr	r3, [r3, #0]
 8003ba0:	689a      	ldr	r2, [r3, #8]
 8003ba2:	68fb      	ldr	r3, [r7, #12]
 8003ba4:	681b      	ldr	r3, [r3, #0]
 8003ba6:	f422 2280 	bic.w	r2, r2, #262144	; 0x40000
 8003baa:	609a      	str	r2, [r3, #8]
 8003bac:	68fb      	ldr	r3, [r7, #12]
 8003bae:	681b      	ldr	r3, [r3, #0]
 8003bb0:	6899      	ldr	r1, [r3, #8]
 8003bb2:	68bb      	ldr	r3, [r7, #8]
 8003bb4:	68da      	ldr	r2, [r3, #12]
 8003bb6:	68bb      	ldr	r3, [r7, #8]
 8003bb8:	691b      	ldr	r3, [r3, #16]
 8003bba:	431a      	orrs	r2, r3
 8003bbc:	68fb      	ldr	r3, [r7, #12]
 8003bbe:	681b      	ldr	r3, [r3, #0]
 8003bc0:	430a      	orrs	r2, r1
 8003bc2:	609a      	str	r2, [r3, #8]
 8003bc4:	68fb      	ldr	r3, [r7, #12]
 8003bc6:	681b      	ldr	r3, [r3, #0]
 8003bc8:	68da      	ldr	r2, [r3, #12]
 8003bca:	68fb      	ldr	r3, [r7, #12]
 8003bcc:	681b      	ldr	r3, [r3, #0]
 8003bce:	f022 0280 	bic.w	r2, r2, #128	; 0x80
 8003bd2:	60da      	str	r2, [r3, #12]
 8003bd4:	68f8      	ldr	r0, [r7, #12]
 8003bd6:	f000 f9d0 	bl	8003f7a <HAL_RTC_WaitForSynchro>
 8003bda:	4603      	mov	r3, r0
 8003bdc:	2b00      	cmp	r3, #0
 8003bde:	d00b      	beq.n	8003bf8 <HAL_RTC_SetTime+0x14a>
 8003be0:	68fb      	ldr	r3, [r7, #12]
 8003be2:	681b      	ldr	r3, [r3, #0]
 8003be4:	22ff      	movs	r2, #255	; 0xff
 8003be6:	625a      	str	r2, [r3, #36]	; 0x24
 8003be8:	68fb      	ldr	r3, [r7, #12]
 8003bea:	2204      	movs	r2, #4
 8003bec:	775a      	strb	r2, [r3, #29]
 8003bee:	68fb      	ldr	r3, [r7, #12]
 8003bf0:	2200      	movs	r2, #0
 8003bf2:	771a      	strb	r2, [r3, #28]
 8003bf4:	2301      	movs	r3, #1
 8003bf6:	e00a      	b.n	8003c0e <HAL_RTC_SetTime+0x160>
 8003bf8:	68fb      	ldr	r3, [r7, #12]
 8003bfa:	681b      	ldr	r3, [r3, #0]
 8003bfc:	22ff      	movs	r2, #255	; 0xff
 8003bfe:	625a      	str	r2, [r3, #36]	; 0x24
 8003c00:	68fb      	ldr	r3, [r7, #12]
 8003c02:	2201      	movs	r2, #1
 8003c04:	775a      	strb	r2, [r3, #29]
 8003c06:	68fb      	ldr	r3, [r7, #12]
 8003c08:	2200      	movs	r2, #0
 8003c0a:	771a      	strb	r2, [r3, #28]
 8003c0c:	2300      	movs	r3, #0
 8003c0e:	4618      	mov	r0, r3
 8003c10:	371c      	adds	r7, #28
 8003c12:	46bd      	mov	sp, r7
 8003c14:	bd90      	pop	{r4, r7, pc}

08003c16 <HAL_RTC_SetDate>:
 8003c16:	b590      	push	{r4, r7, lr}
 8003c18:	b087      	sub	sp, #28
 8003c1a:	af00      	add	r7, sp, #0
 8003c1c:	60f8      	str	r0, [r7, #12]
 8003c1e:	60b9      	str	r1, [r7, #8]
 8003c20:	607a      	str	r2, [r7, #4]
 8003c22:	68fb      	ldr	r3, [r7, #12]
 8003c24:	7f1b      	ldrb	r3, [r3, #28]
 8003c26:	2b01      	cmp	r3, #1
 8003c28:	d101      	bne.n	8003c2e <HAL_RTC_SetDate+0x18>
 8003c2a:	2302      	movs	r3, #2
 8003c2c:	e08d      	b.n	8003d4a <HAL_RTC_SetDate+0x134>
 8003c2e:	68fb      	ldr	r3, [r7, #12]
 8003c30:	2201      	movs	r2, #1
 8003c32:	771a      	strb	r2, [r3, #28]
 8003c34:	68fb      	ldr	r3, [r7, #12]
 8003c36:	2202      	movs	r2, #2
 8003c38:	775a      	strb	r2, [r3, #29]
 8003c3a:	687b      	ldr	r3, [r7, #4]
 8003c3c:	2b00      	cmp	r3, #0
 8003c3e:	d10e      	bne.n	8003c5e <HAL_RTC_SetDate+0x48>
 8003c40:	68bb      	ldr	r3, [r7, #8]
 8003c42:	785b      	ldrb	r3, [r3, #1]
 8003c44:	f003 0310 	and.w	r3, r3, #16
 8003c48:	2b00      	cmp	r3, #0
 8003c4a:	d008      	beq.n	8003c5e <HAL_RTC_SetDate+0x48>
 8003c4c:	68bb      	ldr	r3, [r7, #8]
 8003c4e:	785b      	ldrb	r3, [r3, #1]
 8003c50:	f023 0310 	bic.w	r3, r3, #16
 8003c54:	b2db      	uxtb	r3, r3
 8003c56:	330a      	adds	r3, #10
 8003c58:	b2da      	uxtb	r2, r3
 8003c5a:	68bb      	ldr	r3, [r7, #8]
 8003c5c:	705a      	strb	r2, [r3, #1]
 8003c5e:	687b      	ldr	r3, [r7, #4]
 8003c60:	2b00      	cmp	r3, #0
 8003c62:	d11c      	bne.n	8003c9e <HAL_RTC_SetDate+0x88>
 8003c64:	68bb      	ldr	r3, [r7, #8]
 8003c66:	78db      	ldrb	r3, [r3, #3]
 8003c68:	4618      	mov	r0, r3
 8003c6a:	f000 f9dd 	bl	8004028 <RTC_ByteToBcd2>
 8003c6e:	4603      	mov	r3, r0
 8003c70:	041c      	lsls	r4, r3, #16
 8003c72:	68bb      	ldr	r3, [r7, #8]
 8003c74:	785b      	ldrb	r3, [r3, #1]
 8003c76:	4618      	mov	r0, r3
 8003c78:	f000 f9d6 	bl	8004028 <RTC_ByteToBcd2>
 8003c7c:	4603      	mov	r3, r0
 8003c7e:	021b      	lsls	r3, r3, #8
 8003c80:	431c      	orrs	r4, r3
 8003c82:	68bb      	ldr	r3, [r7, #8]
 8003c84:	789b      	ldrb	r3, [r3, #2]
 8003c86:	4618      	mov	r0, r3
 8003c88:	f000 f9ce 	bl	8004028 <RTC_ByteToBcd2>
 8003c8c:	4603      	mov	r3, r0
 8003c8e:	ea44 0203 	orr.w	r2, r4, r3
 8003c92:	68bb      	ldr	r3, [r7, #8]
 8003c94:	781b      	ldrb	r3, [r3, #0]
 8003c96:	035b      	lsls	r3, r3, #13
 8003c98:	4313      	orrs	r3, r2
 8003c9a:	617b      	str	r3, [r7, #20]
 8003c9c:	e00e      	b.n	8003cbc <HAL_RTC_SetDate+0xa6>
 8003c9e:	68bb      	ldr	r3, [r7, #8]
 8003ca0:	78db      	ldrb	r3, [r3, #3]
 8003ca2:	041a      	lsls	r2, r3, #16
 8003ca4:	68bb      	ldr	r3, [r7, #8]
 8003ca6:	785b      	ldrb	r3, [r3, #1]
 8003ca8:	021b      	lsls	r3, r3, #8
 8003caa:	4313      	orrs	r3, r2
 8003cac:	68ba      	ldr	r2, [r7, #8]
 8003cae:	7892      	ldrb	r2, [r2, #2]
 8003cb0:	431a      	orrs	r2, r3
 8003cb2:	68bb      	ldr	r3, [r7, #8]
 8003cb4:	781b      	ldrb	r3, [r3, #0]
 8003cb6:	035b      	lsls	r3, r3, #13
 8003cb8:	4313      	orrs	r3, r2
 8003cba:	617b      	str	r3, [r7, #20]
 8003cbc:	68fb      	ldr	r3, [r7, #12]
 8003cbe:	681b      	ldr	r3, [r3, #0]
 8003cc0:	22ca      	movs	r2, #202	; 0xca
 8003cc2:	625a      	str	r2, [r3, #36]	; 0x24
 8003cc4:	68fb      	ldr	r3, [r7, #12]
 8003cc6:	681b      	ldr	r3, [r3, #0]
 8003cc8:	2253      	movs	r2, #83	; 0x53
 8003cca:	625a      	str	r2, [r3, #36]	; 0x24
 8003ccc:	68f8      	ldr	r0, [r7, #12]
 8003cce:	f000 f981 	bl	8003fd4 <RTC_EnterInitMode>
 8003cd2:	4603      	mov	r3, r0
 8003cd4:	2b00      	cmp	r3, #0
 8003cd6:	d00b      	beq.n	8003cf0 <HAL_RTC_SetDate+0xda>
 8003cd8:	68fb      	ldr	r3, [r7, #12]
 8003cda:	681b      	ldr	r3, [r3, #0]
 8003cdc:	22ff      	movs	r2, #255	; 0xff
 8003cde:	625a      	str	r2, [r3, #36]	; 0x24
 8003ce0:	68fb      	ldr	r3, [r7, #12]
 8003ce2:	2204      	movs	r2, #4
 8003ce4:	775a      	strb	r2, [r3, #29]
 8003ce6:	68fb      	ldr	r3, [r7, #12]
 8003ce8:	2200      	movs	r2, #0
 8003cea:	771a      	strb	r2, [r3, #28]
 8003cec:	2301      	movs	r3, #1
 8003cee:	e02c      	b.n	8003d4a <HAL_RTC_SetDate+0x134>
 8003cf0:	68fb      	ldr	r3, [r7, #12]
 8003cf2:	681a      	ldr	r2, [r3, #0]
 8003cf4:	697b      	ldr	r3, [r7, #20]
 8003cf6:	f023 437f 	bic.w	r3, r3, #4278190080	; 0xff000000
 8003cfa:	f023 03c0 	bic.w	r3, r3, #192	; 0xc0
 8003cfe:	6053      	str	r3, [r2, #4]
 8003d00:	68fb      	ldr	r3, [r7, #12]
 8003d02:	681b      	ldr	r3, [r3, #0]
 8003d04:	68da      	ldr	r2, [r3, #12]
 8003d06:	68fb      	ldr	r3, [r7, #12]
 8003d08:	681b      	ldr	r3, [r3, #0]
 8003d0a:	f022 0280 	bic.w	r2, r2, #128	; 0x80
 8003d0e:	60da      	str	r2, [r3, #12]
 8003d10:	68f8      	ldr	r0, [r7, #12]
 8003d12:	f000 f932 	bl	8003f7a <HAL_RTC_WaitForSynchro>
 8003d16:	4603      	mov	r3, r0
 8003d18:	2b00      	cmp	r3, #0
 8003d1a:	d00b      	beq.n	8003d34 <HAL_RTC_SetDate+0x11e>
 8003d1c:	68fb      	ldr	r3, [r7, #12]
 8003d1e:	681b      	ldr	r3, [r3, #0]
 8003d20:	22ff      	movs	r2, #255	; 0xff
 8003d22:	625a      	str	r2, [r3, #36]	; 0x24
 8003d24:	68fb      	ldr	r3, [r7, #12]
 8003d26:	2204      	movs	r2, #4
 8003d28:	775a      	strb	r2, [r3, #29]
 8003d2a:	68fb      	ldr	r3, [r7, #12]
 8003d2c:	2200      	movs	r2, #0
 8003d2e:	771a      	strb	r2, [r3, #28]
 8003d30:	2301      	movs	r3, #1
 8003d32:	e00a      	b.n	8003d4a <HAL_RTC_SetDate+0x134>
 8003d34:	68fb      	ldr	r3, [r7, #12]
 8003d36:	681b      	ldr	r3, [r3, #0]
 8003d38:	22ff      	movs	r2, #255	; 0xff
 8003d3a:	625a      	str	r2, [r3, #36]	; 0x24
 8003d3c:	68fb      	ldr	r3, [r7, #12]
 8003d3e:	2201      	movs	r2, #1
 8003d40:	775a      	strb	r2, [r3, #29]
 8003d42:	68fb      	ldr	r3, [r7, #12]
 8003d44:	2200      	movs	r2, #0
 8003d46:	771a      	strb	r2, [r3, #28]
 8003d48:	2300      	movs	r3, #0
 8003d4a:	4618      	mov	r0, r3
 8003d4c:	371c      	adds	r7, #28
 8003d4e:	46bd      	mov	sp, r7
 8003d50:	bd90      	pop	{r4, r7, pc}

08003d52 <HAL_RTC_SetAlarm>:
 8003d52:	b590      	push	{r4, r7, lr}
 8003d54:	b089      	sub	sp, #36	; 0x24
 8003d56:	af00      	add	r7, sp, #0
 8003d58:	60f8      	str	r0, [r7, #12]
 8003d5a:	60b9      	str	r1, [r7, #8]
 8003d5c:	607a      	str	r2, [r7, #4]
 8003d5e:	2300      	movs	r3, #0
 8003d60:	61bb      	str	r3, [r7, #24]
 8003d62:	68fb      	ldr	r3, [r7, #12]
 8003d64:	7f1b      	ldrb	r3, [r3, #28]
 8003d66:	2b01      	cmp	r3, #1
 8003d68:	d101      	bne.n	8003d6e <HAL_RTC_SetAlarm+0x1c>
 8003d6a:	2302      	movs	r3, #2
 8003d6c:	e101      	b.n	8003f72 <HAL_RTC_SetAlarm+0x220>
 8003d6e:	68fb      	ldr	r3, [r7, #12]
 8003d70:	2201      	movs	r2, #1
 8003d72:	771a      	strb	r2, [r3, #28]
 8003d74:	68fb      	ldr	r3, [r7, #12]
 8003d76:	2202      	movs	r2, #2
 8003d78:	775a      	strb	r2, [r3, #29]
 8003d7a:	687b      	ldr	r3, [r7, #4]
 8003d7c:	2b00      	cmp	r3, #0
 8003d7e:	d137      	bne.n	8003df0 <HAL_RTC_SetAlarm+0x9e>
 8003d80:	68fb      	ldr	r3, [r7, #12]
 8003d82:	681b      	ldr	r3, [r3, #0]
 8003d84:	689b      	ldr	r3, [r3, #8]
 8003d86:	f003 0340 	and.w	r3, r3, #64	; 0x40
 8003d8a:	2b00      	cmp	r3, #0
 8003d8c:	d102      	bne.n	8003d94 <HAL_RTC_SetAlarm+0x42>
 8003d8e:	68bb      	ldr	r3, [r7, #8]
 8003d90:	2200      	movs	r2, #0
 8003d92:	70da      	strb	r2, [r3, #3]
 8003d94:	68bb      	ldr	r3, [r7, #8]
 8003d96:	781b      	ldrb	r3, [r3, #0]
 8003d98:	4618      	mov	r0, r3
 8003d9a:	f000 f945 	bl	8004028 <RTC_ByteToBcd2>
 8003d9e:	4603      	mov	r3, r0
 8003da0:	041c      	lsls	r4, r3, #16
 8003da2:	68bb      	ldr	r3, [r7, #8]
 8003da4:	785b      	ldrb	r3, [r3, #1]
 8003da6:	4618      	mov	r0, r3
 8003da8:	f000 f93e 	bl	8004028 <RTC_ByteToBcd2>
 8003dac:	4603      	mov	r3, r0
 8003dae:	021b      	lsls	r3, r3, #8
 8003db0:	431c      	orrs	r4, r3
 8003db2:	68bb      	ldr	r3, [r7, #8]
 8003db4:	789b      	ldrb	r3, [r3, #2]
 8003db6:	4618      	mov	r0, r3
 8003db8:	f000 f936 	bl	8004028 <RTC_ByteToBcd2>
 8003dbc:	4603      	mov	r3, r0
 8003dbe:	ea44 0203 	orr.w	r2, r4, r3
 8003dc2:	68bb      	ldr	r3, [r7, #8]
 8003dc4:	78db      	ldrb	r3, [r3, #3]
 8003dc6:	041b      	lsls	r3, r3, #16
 8003dc8:	ea42 0403 	orr.w	r4, r2, r3
 8003dcc:	68bb      	ldr	r3, [r7, #8]
 8003dce:	f893 3020 	ldrb.w	r3, [r3, #32]
 8003dd2:	4618      	mov	r0, r3
 8003dd4:	f000 f928 	bl	8004028 <RTC_ByteToBcd2>
 8003dd8:	4603      	mov	r3, r0
 8003dda:	061b      	lsls	r3, r3, #24
 8003ddc:	ea44 0203 	orr.w	r2, r4, r3
 8003de0:	68bb      	ldr	r3, [r7, #8]
 8003de2:	69db      	ldr	r3, [r3, #28]
 8003de4:	431a      	orrs	r2, r3
 8003de6:	68bb      	ldr	r3, [r7, #8]
 8003de8:	695b      	ldr	r3, [r3, #20]
 8003dea:	4313      	orrs	r3, r2
 8003dec:	61fb      	str	r3, [r7, #28]
 8003dee:	e023      	b.n	8003e38 <HAL_RTC_SetAlarm+0xe6>
 8003df0:	68fb      	ldr	r3, [r7, #12]
 8003df2:	681b      	ldr	r3, [r3, #0]
 8003df4:	689b      	ldr	r3, [r3, #8]
 8003df6:	f003 0340 	and.w	r3, r3, #64	; 0x40
 8003dfa:	2b00      	cmp	r3, #0
 8003dfc:	d102      	bne.n	8003e04 <HAL_RTC_SetAlarm+0xb2>
 8003dfe:	68bb      	ldr	r3, [r7, #8]
 8003e00:	2200      	movs	r2, #0
 8003e02:	70da      	strb	r2, [r3, #3]
 8003e04:	68bb      	ldr	r3, [r7, #8]
 8003e06:	781b      	ldrb	r3, [r3, #0]
 8003e08:	041a      	lsls	r2, r3, #16
 8003e0a:	68bb      	ldr	r3, [r7, #8]
 8003e0c:	785b      	ldrb	r3, [r3, #1]
 8003e0e:	021b      	lsls	r3, r3, #8
 8003e10:	4313      	orrs	r3, r2
 8003e12:	68ba      	ldr	r2, [r7, #8]
 8003e14:	7892      	ldrb	r2, [r2, #2]
 8003e16:	431a      	orrs	r2, r3
 8003e18:	68bb      	ldr	r3, [r7, #8]
 8003e1a:	78db      	ldrb	r3, [r3, #3]
 8003e1c:	041b      	lsls	r3, r3, #16
 8003e1e:	431a      	orrs	r2, r3
 8003e20:	68bb      	ldr	r3, [r7, #8]
 8003e22:	f893 3020 	ldrb.w	r3, [r3, #32]
 8003e26:	061b      	lsls	r3, r3, #24
 8003e28:	431a      	orrs	r2, r3
 8003e2a:	68bb      	ldr	r3, [r7, #8]
 8003e2c:	69db      	ldr	r3, [r3, #28]
 8003e2e:	431a      	orrs	r2, r3
 8003e30:	68bb      	ldr	r3, [r7, #8]
 8003e32:	695b      	ldr	r3, [r3, #20]
 8003e34:	4313      	orrs	r3, r2
 8003e36:	61fb      	str	r3, [r7, #28]
 8003e38:	68bb      	ldr	r3, [r7, #8]
 8003e3a:	685a      	ldr	r2, [r3, #4]
 8003e3c:	68bb      	ldr	r3, [r7, #8]
 8003e3e:	699b      	ldr	r3, [r3, #24]
 8003e40:	4313      	orrs	r3, r2
 8003e42:	61bb      	str	r3, [r7, #24]
 8003e44:	68fb      	ldr	r3, [r7, #12]
 8003e46:	681b      	ldr	r3, [r3, #0]
 8003e48:	22ca      	movs	r2, #202	; 0xca
 8003e4a:	625a      	str	r2, [r3, #36]	; 0x24
 8003e4c:	68fb      	ldr	r3, [r7, #12]
 8003e4e:	681b      	ldr	r3, [r3, #0]
 8003e50:	2253      	movs	r2, #83	; 0x53
 8003e52:	625a      	str	r2, [r3, #36]	; 0x24
 8003e54:	68bb      	ldr	r3, [r7, #8]
 8003e56:	6a5b      	ldr	r3, [r3, #36]	; 0x24
 8003e58:	f5b3 7f80 	cmp.w	r3, #256	; 0x100
 8003e5c:	d13f      	bne.n	8003ede <HAL_RTC_SetAlarm+0x18c>
 8003e5e:	68fb      	ldr	r3, [r7, #12]
 8003e60:	681b      	ldr	r3, [r3, #0]
 8003e62:	689a      	ldr	r2, [r3, #8]
 8003e64:	68fb      	ldr	r3, [r7, #12]
 8003e66:	681b      	ldr	r3, [r3, #0]
 8003e68:	f422 7280 	bic.w	r2, r2, #256	; 0x100
 8003e6c:	609a      	str	r2, [r3, #8]
 8003e6e:	68fb      	ldr	r3, [r7, #12]
 8003e70:	681b      	ldr	r3, [r3, #0]
 8003e72:	689a      	ldr	r2, [r3, #8]
 8003e74:	68fb      	ldr	r3, [r7, #12]
 8003e76:	681b      	ldr	r3, [r3, #0]
 8003e78:	f422 5280 	bic.w	r2, r2, #4096	; 0x1000
 8003e7c:	609a      	str	r2, [r3, #8]
 8003e7e:	f7fd fe35 	bl	8001aec <HAL_GetTick>
 8003e82:	6178      	str	r0, [r7, #20]
 8003e84:	e013      	b.n	8003eae <HAL_RTC_SetAlarm+0x15c>
 8003e86:	f7fd fe31 	bl	8001aec <HAL_GetTick>
 8003e8a:	4602      	mov	r2, r0
 8003e8c:	697b      	ldr	r3, [r7, #20]
 8003e8e:	1ad3      	subs	r3, r2, r3
 8003e90:	f5b3 7f7a 	cmp.w	r3, #1000	; 0x3e8
 8003e94:	d90b      	bls.n	8003eae <HAL_RTC_SetAlarm+0x15c>
 8003e96:	68fb      	ldr	r3, [r7, #12]
 8003e98:	681b      	ldr	r3, [r3, #0]
 8003e9a:	22ff      	movs	r2, #255	; 0xff
 8003e9c:	625a      	str	r2, [r3, #36]	; 0x24
 8003e9e:	68fb      	ldr	r3, [r7, #12]
 8003ea0:	2203      	movs	r2, #3
 8003ea2:	775a      	strb	r2, [r3, #29]
 8003ea4:	68fb      	ldr	r3, [r7, #12]
 8003ea6:	2200      	movs	r2, #0
 8003ea8:	771a      	strb	r2, [r3, #28]
 8003eaa:	2303      	movs	r3, #3
 8003eac:	e061      	b.n	8003f72 <HAL_RTC_SetAlarm+0x220>
 8003eae:	68fb      	ldr	r3, [r7, #12]
 8003eb0:	681b      	ldr	r3, [r3, #0]
 8003eb2:	68db      	ldr	r3, [r3, #12]
 8003eb4:	f003 0301 	and.w	r3, r3, #1
 8003eb8:	2b00      	cmp	r3, #0
 8003eba:	d0e4      	beq.n	8003e86 <HAL_RTC_SetAlarm+0x134>
 8003ebc:	68fb      	ldr	r3, [r7, #12]
 8003ebe:	681b      	ldr	r3, [r3, #0]
 8003ec0:	69fa      	ldr	r2, [r7, #28]
 8003ec2:	61da      	str	r2, [r3, #28]
 8003ec4:	68fb      	ldr	r3, [r7, #12]
 8003ec6:	681b      	ldr	r3, [r3, #0]
 8003ec8:	69ba      	ldr	r2, [r7, #24]
 8003eca:	645a      	str	r2, [r3, #68]	; 0x44
 8003ecc:	68fb      	ldr	r3, [r7, #12]
 8003ece:	681b      	ldr	r3, [r3, #0]
 8003ed0:	689a      	ldr	r2, [r3, #8]
 8003ed2:	68fb      	ldr	r3, [r7, #12]
 8003ed4:	681b      	ldr	r3, [r3, #0]
 8003ed6:	f442 7280 	orr.w	r2, r2, #256	; 0x100
 8003eda:	609a      	str	r2, [r3, #8]
 8003edc:	e03e      	b.n	8003f5c <HAL_RTC_SetAlarm+0x20a>
 8003ede:	68fb      	ldr	r3, [r7, #12]
 8003ee0:	681b      	ldr	r3, [r3, #0]
 8003ee2:	689a      	ldr	r2, [r3, #8]
 8003ee4:	68fb      	ldr	r3, [r7, #12]
 8003ee6:	681b      	ldr	r3, [r3, #0]
 8003ee8:	f422 7200 	bic.w	r2, r2, #512	; 0x200
 8003eec:	609a      	str	r2, [r3, #8]
 8003eee:	68fb      	ldr	r3, [r7, #12]
 8003ef0:	681b      	ldr	r3, [r3, #0]
 8003ef2:	689a      	ldr	r2, [r3, #8]
 8003ef4:	68fb      	ldr	r3, [r7, #12]
 8003ef6:	681b      	ldr	r3, [r3, #0]
 8003ef8:	f422 5200 	bic.w	r2, r2, #8192	; 0x2000
 8003efc:	609a      	str	r2, [r3, #8]
 8003efe:	f7fd fdf5 	bl	8001aec <HAL_GetTick>
 8003f02:	6178      	str	r0, [r7, #20]
 8003f04:	e013      	b.n	8003f2e <HAL_RTC_SetAlarm+0x1dc>
 8003f06:	f7fd fdf1 	bl	8001aec <HAL_GetTick>
 8003f0a:	4602      	mov	r2, r0
 8003f0c:	697b      	ldr	r3, [r7, #20]
 8003f0e:	1ad3      	subs	r3, r2, r3
 8003f10:	f5b3 7f7a 	cmp.w	r3, #1000	; 0x3e8
 8003f14:	d90b      	bls.n	8003f2e <HAL_RTC_SetAlarm+0x1dc>
 8003f16:	68fb      	ldr	r3, [r7, #12]
 8003f18:	681b      	ldr	r3, [r3, #0]
 8003f1a:	22ff      	movs	r2, #255	; 0xff
 8003f1c:	625a      	str	r2, [r3, #36]	; 0x24
 8003f1e:	68fb      	ldr	r3, [r7, #12]
 8003f20:	2203      	movs	r2, #3
 8003f22:	775a      	strb	r2, [r3, #29]
 8003f24:	68fb      	ldr	r3, [r7, #12]
 8003f26:	2200      	movs	r2, #0
 8003f28:	771a      	strb	r2, [r3, #28]
 8003f2a:	2303      	movs	r3, #3
 8003f2c:	e021      	b.n	8003f72 <HAL_RTC_SetAlarm+0x220>
 8003f2e:	68fb      	ldr	r3, [r7, #12]
 8003f30:	681b      	ldr	r3, [r3, #0]
 8003f32:	68db      	ldr	r3, [r3, #12]
 8003f34:	f003 0302 	and.w	r3, r3, #2
 8003f38:	2b00      	cmp	r3, #0
 8003f3a:	d0e4      	beq.n	8003f06 <HAL_RTC_SetAlarm+0x1b4>
 8003f3c:	68fb      	ldr	r3, [r7, #12]
 8003f3e:	681b      	ldr	r3, [r3, #0]
 8003f40:	69fa      	ldr	r2, [r7, #28]
 8003f42:	621a      	str	r2, [r3, #32]
 8003f44:	68fb      	ldr	r3, [r7, #12]
 8003f46:	681b      	ldr	r3, [r3, #0]
 8003f48:	69ba      	ldr	r2, [r7, #24]
 8003f4a:	649a      	str	r2, [r3, #72]	; 0x48
 8003f4c:	68fb      	ldr	r3, [r7, #12]
 8003f4e:	681b      	ldr	r3, [r3, #0]
 8003f50:	689a      	ldr	r2, [r3, #8]
 8003f52:	68fb      	ldr	r3, [r7, #12]
 8003f54:	681b      	ldr	r3, [r3, #0]
 8003f56:	f442 7200 	orr.w	r2, r2, #512	; 0x200
 8003f5a:	609a      	str	r2, [r3, #8]
 8003f5c:	68fb      	ldr	r3, [r7, #12]
 8003f5e:	681b      	ldr	r3, [r3, #0]
 8003f60:	22ff      	movs	r2, #255	; 0xff
 8003f62:	625a      	str	r2, [r3, #36]	; 0x24
 8003f64:	68fb      	ldr	r3, [r7, #12]
 8003f66:	2201      	movs	r2, #1
 8003f68:	775a      	strb	r2, [r3, #29]
 8003f6a:	68fb      	ldr	r3, [r7, #12]
 8003f6c:	2200      	movs	r2, #0
 8003f6e:	771a      	strb	r2, [r3, #28]
 8003f70:	2300      	movs	r3, #0
 8003f72:	4618      	mov	r0, r3
 8003f74:	3724      	adds	r7, #36	; 0x24
 8003f76:	46bd      	mov	sp, r7
 8003f78:	bd90      	pop	{r4, r7, pc}

08003f7a <HAL_RTC_WaitForSynchro>:
 8003f7a:	b580      	push	{r7, lr}
 8003f7c:	b084      	sub	sp, #16
 8003f7e:	af00      	add	r7, sp, #0
 8003f80:	6078      	str	r0, [r7, #4]
 8003f82:	687b      	ldr	r3, [r7, #4]
 8003f84:	681b      	ldr	r3, [r3, #0]
 8003f86:	689b      	ldr	r3, [r3, #8]
 8003f88:	f003 0320 	and.w	r3, r3, #32
 8003f8c:	2b00      	cmp	r3, #0
 8003f8e:	d11c      	bne.n	8003fca <HAL_RTC_WaitForSynchro+0x50>
 8003f90:	687b      	ldr	r3, [r7, #4]
 8003f92:	681b      	ldr	r3, [r3, #0]
 8003f94:	68da      	ldr	r2, [r3, #12]
 8003f96:	687b      	ldr	r3, [r7, #4]
 8003f98:	681b      	ldr	r3, [r3, #0]
 8003f9a:	f022 02a0 	bic.w	r2, r2, #160	; 0xa0
 8003f9e:	60da      	str	r2, [r3, #12]
 8003fa0:	f7fd fda4 	bl	8001aec <HAL_GetTick>
 8003fa4:	60f8      	str	r0, [r7, #12]
 8003fa6:	e009      	b.n	8003fbc <HAL_RTC_WaitForSynchro+0x42>
 8003fa8:	f7fd fda0 	bl	8001aec <HAL_GetTick>
 8003fac:	4602      	mov	r2, r0
 8003fae:	68fb      	ldr	r3, [r7, #12]
 8003fb0:	1ad3      	subs	r3, r2, r3
 8003fb2:	f5b3 7f7a 	cmp.w	r3, #1000	; 0x3e8
 8003fb6:	d901      	bls.n	8003fbc <HAL_RTC_WaitForSynchro+0x42>
 8003fb8:	2303      	movs	r3, #3
 8003fba:	e007      	b.n	8003fcc <HAL_RTC_WaitForSynchro+0x52>
 8003fbc:	687b      	ldr	r3, [r7, #4]
 8003fbe:	681b      	ldr	r3, [r3, #0]
 8003fc0:	68db      	ldr	r3, [r3, #12]
 8003fc2:	f003 0320 	and.w	r3, r3, #32
 8003fc6:	2b00      	cmp	r3, #0
 8003fc8:	d0ee      	beq.n	8003fa8 <HAL_RTC_WaitForSynchro+0x2e>
 8003fca:	2300      	movs	r3, #0
 8003fcc:	4618      	mov	r0, r3
 8003fce:	3710      	adds	r7, #16
 8003fd0:	46bd      	mov	sp, r7
 8003fd2:	bd80      	pop	{r7, pc}

08003fd4 <RTC_EnterInitMode>:
 8003fd4:	b580      	push	{r7, lr}
 8003fd6:	b084      	sub	sp, #16
 8003fd8:	af00      	add	r7, sp, #0
 8003fda:	6078      	str	r0, [r7, #4]
 8003fdc:	687b      	ldr	r3, [r7, #4]
 8003fde:	681b      	ldr	r3, [r3, #0]
 8003fe0:	68db      	ldr	r3, [r3, #12]
 8003fe2:	f003 0340 	and.w	r3, r3, #64	; 0x40
 8003fe6:	2b00      	cmp	r3, #0
 8003fe8:	d119      	bne.n	800401e <RTC_EnterInitMode+0x4a>
 8003fea:	687b      	ldr	r3, [r7, #4]
 8003fec:	681b      	ldr	r3, [r3, #0]
 8003fee:	f04f 32ff 	mov.w	r2, #4294967295
 8003ff2:	60da      	str	r2, [r3, #12]
 8003ff4:	f7fd fd7a 	bl	8001aec <HAL_GetTick>
 8003ff8:	60f8      	str	r0, [r7, #12]
 8003ffa:	e009      	b.n	8004010 <RTC_EnterInitMode+0x3c>
 8003ffc:	f7fd fd76 	bl	8001aec <HAL_GetTick>
 8004000:	4602      	mov	r2, r0
 8004002:	68fb      	ldr	r3, [r7, #12]
 8004004:	1ad3      	subs	r3, r2, r3
 8004006:	f5b3 7f7a 	cmp.w	r3, #1000	; 0x3e8
 800400a:	d901      	bls.n	8004010 <RTC_EnterInitMode+0x3c>
 800400c:	2303      	movs	r3, #3
 800400e:	e007      	b.n	8004020 <RTC_EnterInitMode+0x4c>
 8004010:	687b      	ldr	r3, [r7, #4]
 8004012:	681b      	ldr	r3, [r3, #0]
 8004014:	68db      	ldr	r3, [r3, #12]
 8004016:	f003 0340 	and.w	r3, r3, #64	; 0x40
 800401a:	2b00      	cmp	r3, #0
 800401c:	d0ee      	beq.n	8003ffc <RTC_EnterInitMode+0x28>
 800401e:	2300      	movs	r3, #0
 8004020:	4618      	mov	r0, r3
 8004022:	3710      	adds	r7, #16
 8004024:	46bd      	mov	sp, r7
 8004026:	bd80      	pop	{r7, pc}

08004028 <RTC_ByteToBcd2>:
 8004028:	b480      	push	{r7}
 800402a:	b085      	sub	sp, #20
 800402c:	af00      	add	r7, sp, #0
 800402e:	4603      	mov	r3, r0
 8004030:	71fb      	strb	r3, [r7, #7]
 8004032:	2300      	movs	r3, #0
 8004034:	60fb      	str	r3, [r7, #12]
 8004036:	79fb      	ldrb	r3, [r7, #7]
 8004038:	72fb      	strb	r3, [r7, #11]
 800403a:	e005      	b.n	8004048 <RTC_ByteToBcd2+0x20>
 800403c:	68fb      	ldr	r3, [r7, #12]
 800403e:	3301      	adds	r3, #1
 8004040:	60fb      	str	r3, [r7, #12]
 8004042:	7afb      	ldrb	r3, [r7, #11]
 8004044:	3b0a      	subs	r3, #10
 8004046:	72fb      	strb	r3, [r7, #11]
 8004048:	7afb      	ldrb	r3, [r7, #11]
 800404a:	2b09      	cmp	r3, #9
 800404c:	d8f6      	bhi.n	800403c <RTC_ByteToBcd2+0x14>
 800404e:	68fb      	ldr	r3, [r7, #12]
 8004050:	b2db      	uxtb	r3, r3
 8004052:	011b      	lsls	r3, r3, #4
 8004054:	b2da      	uxtb	r2, r3
 8004056:	7afb      	ldrb	r3, [r7, #11]
 8004058:	4313      	orrs	r3, r2
 800405a:	b2db      	uxtb	r3, r3
 800405c:	4618      	mov	r0, r3
 800405e:	3714      	adds	r7, #20
 8004060:	46bd      	mov	sp, r7
 8004062:	bc80      	pop	{r7}
 8004064:	4770      	bx	lr

08004066 <HAL_RTCEx_SetWakeUpTimer>:
 8004066:	b580      	push	{r7, lr}
 8004068:	b086      	sub	sp, #24
 800406a:	af00      	add	r7, sp, #0
 800406c:	60f8      	str	r0, [r7, #12]
 800406e:	60b9      	str	r1, [r7, #8]
 8004070:	607a      	str	r2, [r7, #4]
 8004072:	68fb      	ldr	r3, [r7, #12]
 8004074:	7f1b      	ldrb	r3, [r3, #28]
 8004076:	2b01      	cmp	r3, #1
 8004078:	d101      	bne.n	800407e <HAL_RTCEx_SetWakeUpTimer+0x18>
 800407a:	2302      	movs	r3, #2
 800407c:	e081      	b.n	8004182 <HAL_RTCEx_SetWakeUpTimer+0x11c>
 800407e:	68fb      	ldr	r3, [r7, #12]
 8004080:	2201      	movs	r2, #1
 8004082:	771a      	strb	r2, [r3, #28]
 8004084:	68fb      	ldr	r3, [r7, #12]
 8004086:	2202      	movs	r2, #2
 8004088:	775a      	strb	r2, [r3, #29]
 800408a:	68fb      	ldr	r3, [r7, #12]
 800408c:	681b      	ldr	r3, [r3, #0]
 800408e:	22ca      	movs	r2, #202	; 0xca
 8004090:	625a      	str	r2, [r3, #36]	; 0x24
 8004092:	68fb      	ldr	r3, [r7, #12]
 8004094:	681b      	ldr	r3, [r3, #0]
 8004096:	2253      	movs	r2, #83	; 0x53
 8004098:	625a      	str	r2, [r3, #36]	; 0x24
 800409a:	68fb      	ldr	r3, [r7, #12]
 800409c:	681b      	ldr	r3, [r3, #0]
 800409e:	689b      	ldr	r3, [r3, #8]
 80040a0:	f403 6380 	and.w	r3, r3, #1024	; 0x400
 80040a4:	2b00      	cmp	r3, #0
 80040a6:	d01e      	beq.n	80040e6 <HAL_RTCEx_SetWakeUpTimer+0x80>
 80040a8:	f7fd fd20 	bl	8001aec <HAL_GetTick>
 80040ac:	6178      	str	r0, [r7, #20]
 80040ae:	e013      	b.n	80040d8 <HAL_RTCEx_SetWakeUpTimer+0x72>
 80040b0:	f7fd fd1c 	bl	8001aec <HAL_GetTick>
 80040b4:	4602      	mov	r2, r0
 80040b6:	697b      	ldr	r3, [r7, #20]
 80040b8:	1ad3      	subs	r3, r2, r3
 80040ba:	f5b3 7f7a 	cmp.w	r3, #1000	; 0x3e8
 80040be:	d90b      	bls.n	80040d8 <HAL_RTCEx_SetWakeUpTimer+0x72>
 80040c0:	68fb      	ldr	r3, [r7, #12]
 80040c2:	681b      	ldr	r3, [r3, #0]
 80040c4:	22ff      	movs	r2, #255	; 0xff
 80040c6:	625a      	str	r2, [r3, #36]	; 0x24
 80040c8:	68fb      	ldr	r3, [r7, #12]
 80040ca:	2203      	movs	r2, #3
 80040cc:	775a      	strb	r2, [r3, #29]
 80040ce:	68fb      	ldr	r3, [r7, #12]
 80040d0:	2200      	movs	r2, #0
 80040d2:	771a      	strb	r2, [r3, #28]
 80040d4:	2303      	movs	r3, #3
 80040d6:	e054      	b.n	8004182 <HAL_RTCEx_SetWakeUpTimer+0x11c>
 80040d8:	68fb      	ldr	r3, [r7, #12]
 80040da:	681b      	ldr	r3, [r3, #0]
 80040dc:	68db      	ldr	r3, [r3, #12]
 80040de:	f003 0304 	and.w	r3, r3, #4
 80040e2:	2b00      	cmp	r3, #0
 80040e4:	d1e4      	bne.n	80040b0 <HAL_RTCEx_SetWakeUpTimer+0x4a>
 80040e6:	68fb      	ldr	r3, [r7, #12]
 80040e8:	681b      	ldr	r3, [r3, #0]
 80040ea:	689a      	ldr	r2, [r3, #8]
 80040ec:	68fb      	ldr	r3, [r7, #12]
 80040ee:	681b      	ldr	r3, [r3, #0]
 80040f0:	f422 6280 	bic.w	r2, r2, #1024	; 0x400
 80040f4:	609a      	str	r2, [r3, #8]
 80040f6:	f7fd fcf9 	bl	8001aec <HAL_GetTick>
 80040fa:	6178      	str	r0, [r7, #20]
 80040fc:	e013      	b.n	8004126 <HAL_RTCEx_SetWakeUpTimer+0xc0>
 80040fe:	f7fd fcf5 	bl	8001aec <HAL_GetTick>
 8004102:	4602      	mov	r2, r0
 8004104:	697b      	ldr	r3, [r7, #20]
 8004106:	1ad3      	subs	r3, r2, r3
 8004108:	f5b3 7f7a 	cmp.w	r3, #1000	; 0x3e8
 800410c:	d90b      	bls.n	8004126 <HAL_RTCEx_SetWakeUpTimer+0xc0>
 800410e:	68fb      	ldr	r3, [r7, #12]
 8004110:	681b      	ldr	r3, [r3, #0]
 8004112:	22ff      	movs	r2, #255	; 0xff
 8004114:	625a      	str	r2, [r3, #36]	; 0x24
 8004116:	68fb      	ldr	r3, [r7, #12]
 8004118:	2203      	movs	r2, #3
 800411a:	775a      	strb	r2, [r3, #29]
 800411c:	68fb      	ldr	r3, [r7, #12]
 800411e:	2200      	movs	r2, #0
 8004120:	771a      	strb	r2, [r3, #28]
 8004122:	2303      	movs	r3, #3
 8004124:	e02d      	b.n	8004182 <HAL_RTCEx_SetWakeUpTimer+0x11c>
 8004126:	68fb      	ldr	r3, [r7, #12]
 8004128:	681b      	ldr	r3, [r3, #0]
 800412a:	68db      	ldr	r3, [r3, #12]
 800412c:	f003 0304 	and.w	r3, r3, #4
 8004130:	2b00      	cmp	r3, #0
 8004132:	d0e4      	beq.n	80040fe <HAL_RTCEx_SetWakeUpTimer+0x98>
 8004134:	68fb      	ldr	r3, [r7, #12]
 8004136:	681b      	ldr	r3, [r3, #0]
 8004138:	689a      	ldr	r2, [r3, #8]
 800413a:	68fb      	ldr	r3, [r7, #12]
 800413c:	681b      	ldr	r3, [r3, #0]
 800413e:	f022 0207 	bic.w	r2, r2, #7
 8004142:	609a      	str	r2, [r3, #8]
 8004144:	68fb      	ldr	r3, [r7, #12]
 8004146:	681b      	ldr	r3, [r3, #0]
 8004148:	6899      	ldr	r1, [r3, #8]
 800414a:	68fb      	ldr	r3, [r7, #12]
 800414c:	681b      	ldr	r3, [r3, #0]
 800414e:	687a      	ldr	r2, [r7, #4]
 8004150:	430a      	orrs	r2, r1
 8004152:	609a      	str	r2, [r3, #8]
 8004154:	68fb      	ldr	r3, [r7, #12]
 8004156:	681b      	ldr	r3, [r3, #0]
 8004158:	68ba      	ldr	r2, [r7, #8]
 800415a:	615a      	str	r2, [r3, #20]
 800415c:	68fb      	ldr	r3, [r7, #12]
 800415e:	681b      	ldr	r3, [r3, #0]
 8004160:	689a      	ldr	r2, [r3, #8]
 8004162:	68fb      	ldr	r3, [r7, #12]
 8004164:	681b      	ldr	r3, [r3, #0]
 8004166:	f442 6280 	orr.w	r2, r2, #1024	; 0x400
 800416a:	609a      	str	r2, [r3, #8]
 800416c:	68fb      	ldr	r3, [r7, #12]
 800416e:	681b      	ldr	r3, [r3, #0]
 8004170:	22ff      	movs	r2, #255	; 0xff
 8004172:	625a      	str	r2, [r3, #36]	; 0x24
 8004174:	68fb      	ldr	r3, [r7, #12]
 8004176:	2201      	movs	r2, #1
 8004178:	775a      	strb	r2, [r3, #29]
 800417a:	68fb      	ldr	r3, [r7, #12]
 800417c:	2200      	movs	r2, #0
 800417e:	771a      	strb	r2, [r3, #28]
 8004180:	2300      	movs	r3, #0
 8004182:	4618      	mov	r0, r3
 8004184:	3718      	adds	r7, #24
 8004186:	46bd      	mov	sp, r7
 8004188:	bd80      	pop	{r7, pc}

0800418a <HAL_SPI_Init>:
 800418a:	b580      	push	{r7, lr}
 800418c:	b082      	sub	sp, #8
 800418e:	af00      	add	r7, sp, #0
 8004190:	6078      	str	r0, [r7, #4]
 8004192:	687b      	ldr	r3, [r7, #4]
 8004194:	2b00      	cmp	r3, #0
 8004196:	d101      	bne.n	800419c <HAL_SPI_Init+0x12>
 8004198:	2301      	movs	r3, #1
 800419a:	e056      	b.n	800424a <HAL_SPI_Init+0xc0>
 800419c:	687b      	ldr	r3, [r7, #4]
 800419e:	2200      	movs	r2, #0
 80041a0:	629a      	str	r2, [r3, #40]	; 0x28
 80041a2:	687b      	ldr	r3, [r7, #4]
 80041a4:	f893 3051 	ldrb.w	r3, [r3, #81]	; 0x51
 80041a8:	b2db      	uxtb	r3, r3
 80041aa:	2b00      	cmp	r3, #0
 80041ac:	d106      	bne.n	80041bc <HAL_SPI_Init+0x32>
 80041ae:	687b      	ldr	r3, [r7, #4]
 80041b0:	2200      	movs	r2, #0
 80041b2:	f883 2050 	strb.w	r2, [r3, #80]	; 0x50
 80041b6:	6878      	ldr	r0, [r7, #4]
 80041b8:	f7fd fb06 	bl	80017c8 <HAL_SPI_MspInit>
 80041bc:	687b      	ldr	r3, [r7, #4]
 80041be:	2202      	movs	r2, #2
 80041c0:	f883 2051 	strb.w	r2, [r3, #81]	; 0x51
 80041c4:	687b      	ldr	r3, [r7, #4]
 80041c6:	681b      	ldr	r3, [r3, #0]
 80041c8:	681a      	ldr	r2, [r3, #0]
 80041ca:	687b      	ldr	r3, [r7, #4]
 80041cc:	681b      	ldr	r3, [r3, #0]
 80041ce:	f022 0240 	bic.w	r2, r2, #64	; 0x40
 80041d2:	601a      	str	r2, [r3, #0]
 80041d4:	687b      	ldr	r3, [r7, #4]
 80041d6:	685a      	ldr	r2, [r3, #4]
 80041d8:	687b      	ldr	r3, [r7, #4]
 80041da:	689b      	ldr	r3, [r3, #8]
 80041dc:	431a      	orrs	r2, r3
 80041de:	687b      	ldr	r3, [r7, #4]
 80041e0:	68db      	ldr	r3, [r3, #12]
 80041e2:	431a      	orrs	r2, r3
 80041e4:	687b      	ldr	r3, [r7, #4]
 80041e6:	691b      	ldr	r3, [r3, #16]
 80041e8:	431a      	orrs	r2, r3
 80041ea:	687b      	ldr	r3, [r7, #4]
 80041ec:	695b      	ldr	r3, [r3, #20]
 80041ee:	431a      	orrs	r2, r3
 80041f0:	687b      	ldr	r3, [r7, #4]
 80041f2:	699b      	ldr	r3, [r3, #24]
 80041f4:	f403 7300 	and.w	r3, r3, #512	; 0x200
 80041f8:	431a      	orrs	r2, r3
 80041fa:	687b      	ldr	r3, [r7, #4]
 80041fc:	69db      	ldr	r3, [r3, #28]
 80041fe:	431a      	orrs	r2, r3
 8004200:	687b      	ldr	r3, [r7, #4]
 8004202:	6a1b      	ldr	r3, [r3, #32]
 8004204:	ea42 0103 	orr.w	r1, r2, r3
 8004208:	687b      	ldr	r3, [r7, #4]
 800420a:	6a9a      	ldr	r2, [r3, #40]	; 0x28
 800420c:	687b      	ldr	r3, [r7, #4]
 800420e:	681b      	ldr	r3, [r3, #0]
 8004210:	430a      	orrs	r2, r1
 8004212:	601a      	str	r2, [r3, #0]
 8004214:	687b      	ldr	r3, [r7, #4]
 8004216:	699b      	ldr	r3, [r3, #24]
 8004218:	0c1b      	lsrs	r3, r3, #16
 800421a:	f003 0104 	and.w	r1, r3, #4
 800421e:	687b      	ldr	r3, [r7, #4]
 8004220:	6a5a      	ldr	r2, [r3, #36]	; 0x24
 8004222:	687b      	ldr	r3, [r7, #4]
 8004224:	681b      	ldr	r3, [r3, #0]
 8004226:	430a      	orrs	r2, r1
 8004228:	605a      	str	r2, [r3, #4]
 800422a:	687b      	ldr	r3, [r7, #4]
 800422c:	681b      	ldr	r3, [r3, #0]
 800422e:	69da      	ldr	r2, [r3, #28]
 8004230:	687b      	ldr	r3, [r7, #4]
 8004232:	681b      	ldr	r3, [r3, #0]
 8004234:	f422 6200 	bic.w	r2, r2, #2048	; 0x800
 8004238:	61da      	str	r2, [r3, #28]
 800423a:	687b      	ldr	r3, [r7, #4]
 800423c:	2200      	movs	r2, #0
 800423e:	655a      	str	r2, [r3, #84]	; 0x54
 8004240:	687b      	ldr	r3, [r7, #4]
 8004242:	2201      	movs	r2, #1
 8004244:	f883 2051 	strb.w	r2, [r3, #81]	; 0x51
 8004248:	2300      	movs	r3, #0
 800424a:	4618      	mov	r0, r3
 800424c:	3708      	adds	r7, #8
 800424e:	46bd      	mov	sp, r7
 8004250:	bd80      	pop	{r7, pc}

08004252 <HAL_SPI_Transmit>:
 8004252:	b580      	push	{r7, lr}
 8004254:	b088      	sub	sp, #32
 8004256:	af00      	add	r7, sp, #0
 8004258:	60f8      	str	r0, [r7, #12]
 800425a:	60b9      	str	r1, [r7, #8]
 800425c:	603b      	str	r3, [r7, #0]
 800425e:	4613      	mov	r3, r2
 8004260:	80fb      	strh	r3, [r7, #6]
 8004262:	2300      	movs	r3, #0
 8004264:	77fb      	strb	r3, [r7, #31]
 8004266:	68fb      	ldr	r3, [r7, #12]
 8004268:	f893 3050 	ldrb.w	r3, [r3, #80]	; 0x50
 800426c:	2b01      	cmp	r3, #1
 800426e:	d101      	bne.n	8004274 <HAL_SPI_Transmit+0x22>
 8004270:	2302      	movs	r3, #2
 8004272:	e11e      	b.n	80044b2 <HAL_SPI_Transmit+0x260>
 8004274:	68fb      	ldr	r3, [r7, #12]
 8004276:	2201      	movs	r2, #1
 8004278:	f883 2050 	strb.w	r2, [r3, #80]	; 0x50
 800427c:	f7fd fc36 	bl	8001aec <HAL_GetTick>
 8004280:	61b8      	str	r0, [r7, #24]
 8004282:	88fb      	ldrh	r3, [r7, #6]
 8004284:	82fb      	strh	r3, [r7, #22]
 8004286:	68fb      	ldr	r3, [r7, #12]
 8004288:	f893 3051 	ldrb.w	r3, [r3, #81]	; 0x51
 800428c:	b2db      	uxtb	r3, r3
 800428e:	2b01      	cmp	r3, #1
 8004290:	d002      	beq.n	8004298 <HAL_SPI_Transmit+0x46>
 8004292:	2302      	movs	r3, #2
 8004294:	77fb      	strb	r3, [r7, #31]
 8004296:	e103      	b.n	80044a0 <HAL_SPI_Transmit+0x24e>
 8004298:	68bb      	ldr	r3, [r7, #8]
 800429a:	2b00      	cmp	r3, #0
 800429c:	d002      	beq.n	80042a4 <HAL_SPI_Transmit+0x52>
 800429e:	88fb      	ldrh	r3, [r7, #6]
 80042a0:	2b00      	cmp	r3, #0
 80042a2:	d102      	bne.n	80042aa <HAL_SPI_Transmit+0x58>
 80042a4:	2301      	movs	r3, #1
 80042a6:	77fb      	strb	r3, [r7, #31]
 80042a8:	e0fa      	b.n	80044a0 <HAL_SPI_Transmit+0x24e>
 80042aa:	68fb      	ldr	r3, [r7, #12]
 80042ac:	2203      	movs	r2, #3
 80042ae:	f883 2051 	strb.w	r2, [r3, #81]	; 0x51
 80042b2:	68fb      	ldr	r3, [r7, #12]
 80042b4:	2200      	movs	r2, #0
 80042b6:	655a      	str	r2, [r3, #84]	; 0x54
 80042b8:	68fb      	ldr	r3, [r7, #12]
 80042ba:	68ba      	ldr	r2, [r7, #8]
 80042bc:	631a      	str	r2, [r3, #48]	; 0x30
 80042be:	68fb      	ldr	r3, [r7, #12]
 80042c0:	88fa      	ldrh	r2, [r7, #6]
 80042c2:	869a      	strh	r2, [r3, #52]	; 0x34
 80042c4:	68fb      	ldr	r3, [r7, #12]
 80042c6:	88fa      	ldrh	r2, [r7, #6]
 80042c8:	86da      	strh	r2, [r3, #54]	; 0x36
 80042ca:	68fb      	ldr	r3, [r7, #12]
 80042cc:	2200      	movs	r2, #0
 80042ce:	639a      	str	r2, [r3, #56]	; 0x38
 80042d0:	68fb      	ldr	r3, [r7, #12]
 80042d2:	2200      	movs	r2, #0
 80042d4:	879a      	strh	r2, [r3, #60]	; 0x3c
 80042d6:	68fb      	ldr	r3, [r7, #12]
 80042d8:	2200      	movs	r2, #0
 80042da:	87da      	strh	r2, [r3, #62]	; 0x3e
 80042dc:	68fb      	ldr	r3, [r7, #12]
 80042de:	2200      	movs	r2, #0
 80042e0:	645a      	str	r2, [r3, #68]	; 0x44
 80042e2:	68fb      	ldr	r3, [r7, #12]
 80042e4:	2200      	movs	r2, #0
 80042e6:	641a      	str	r2, [r3, #64]	; 0x40
 80042e8:	68fb      	ldr	r3, [r7, #12]
 80042ea:	689b      	ldr	r3, [r3, #8]
 80042ec:	f5b3 4f00 	cmp.w	r3, #32768	; 0x8000
 80042f0:	d107      	bne.n	8004302 <HAL_SPI_Transmit+0xb0>
 80042f2:	68fb      	ldr	r3, [r7, #12]
 80042f4:	681b      	ldr	r3, [r3, #0]
 80042f6:	681a      	ldr	r2, [r3, #0]
 80042f8:	68fb      	ldr	r3, [r7, #12]
 80042fa:	681b      	ldr	r3, [r3, #0]
 80042fc:	f442 4280 	orr.w	r2, r2, #16384	; 0x4000
 8004300:	601a      	str	r2, [r3, #0]
 8004302:	68fb      	ldr	r3, [r7, #12]
 8004304:	681b      	ldr	r3, [r3, #0]
 8004306:	681b      	ldr	r3, [r3, #0]
 8004308:	f003 0340 	and.w	r3, r3, #64	; 0x40
 800430c:	2b40      	cmp	r3, #64	; 0x40
 800430e:	d007      	beq.n	8004320 <HAL_SPI_Transmit+0xce>
 8004310:	68fb      	ldr	r3, [r7, #12]
 8004312:	681b      	ldr	r3, [r3, #0]
 8004314:	681a      	ldr	r2, [r3, #0]
 8004316:	68fb      	ldr	r3, [r7, #12]
 8004318:	681b      	ldr	r3, [r3, #0]
 800431a:	f042 0240 	orr.w	r2, r2, #64	; 0x40
 800431e:	601a      	str	r2, [r3, #0]
 8004320:	68fb      	ldr	r3, [r7, #12]
 8004322:	68db      	ldr	r3, [r3, #12]
 8004324:	f5b3 6f00 	cmp.w	r3, #2048	; 0x800
 8004328:	d14b      	bne.n	80043c2 <HAL_SPI_Transmit+0x170>
 800432a:	68fb      	ldr	r3, [r7, #12]
 800432c:	685b      	ldr	r3, [r3, #4]
 800432e:	2b00      	cmp	r3, #0
 8004330:	d002      	beq.n	8004338 <HAL_SPI_Transmit+0xe6>
 8004332:	8afb      	ldrh	r3, [r7, #22]
 8004334:	2b01      	cmp	r3, #1
 8004336:	d13e      	bne.n	80043b6 <HAL_SPI_Transmit+0x164>
 8004338:	68fb      	ldr	r3, [r7, #12]
 800433a:	6b1b      	ldr	r3, [r3, #48]	; 0x30
 800433c:	881a      	ldrh	r2, [r3, #0]
 800433e:	68fb      	ldr	r3, [r7, #12]
 8004340:	681b      	ldr	r3, [r3, #0]
 8004342:	60da      	str	r2, [r3, #12]
 8004344:	68fb      	ldr	r3, [r7, #12]
 8004346:	6b1b      	ldr	r3, [r3, #48]	; 0x30
 8004348:	1c9a      	adds	r2, r3, #2
 800434a:	68fb      	ldr	r3, [r7, #12]
 800434c:	631a      	str	r2, [r3, #48]	; 0x30
 800434e:	68fb      	ldr	r3, [r7, #12]
 8004350:	8edb      	ldrh	r3, [r3, #54]	; 0x36
 8004352:	b29b      	uxth	r3, r3
 8004354:	3b01      	subs	r3, #1
 8004356:	b29a      	uxth	r2, r3
 8004358:	68fb      	ldr	r3, [r7, #12]
 800435a:	86da      	strh	r2, [r3, #54]	; 0x36
 800435c:	e02b      	b.n	80043b6 <HAL_SPI_Transmit+0x164>
 800435e:	68fb      	ldr	r3, [r7, #12]
 8004360:	681b      	ldr	r3, [r3, #0]
 8004362:	689b      	ldr	r3, [r3, #8]
 8004364:	f003 0302 	and.w	r3, r3, #2
 8004368:	2b02      	cmp	r3, #2
 800436a:	d112      	bne.n	8004392 <HAL_SPI_Transmit+0x140>
 800436c:	68fb      	ldr	r3, [r7, #12]
 800436e:	6b1b      	ldr	r3, [r3, #48]	; 0x30
 8004370:	881a      	ldrh	r2, [r3, #0]
 8004372:	68fb      	ldr	r3, [r7, #12]
 8004374:	681b      	ldr	r3, [r3, #0]
 8004376:	60da      	str	r2, [r3, #12]
 8004378:	68fb      	ldr	r3, [r7, #12]
 800437a:	6b1b      	ldr	r3, [r3, #48]	; 0x30
 800437c:	1c9a      	adds	r2, r3, #2
 800437e:	68fb      	ldr	r3, [r7, #12]
 8004380:	631a      	str	r2, [r3, #48]	; 0x30
 8004382:	68fb      	ldr	r3, [r7, #12]
 8004384:	8edb      	ldrh	r3, [r3, #54]	; 0x36
 8004386:	b29b      	uxth	r3, r3
 8004388:	3b01      	subs	r3, #1
 800438a:	b29a      	uxth	r2, r3
 800438c:	68fb      	ldr	r3, [r7, #12]
 800438e:	86da      	strh	r2, [r3, #54]	; 0x36
 8004390:	e011      	b.n	80043b6 <HAL_SPI_Transmit+0x164>
 8004392:	f7fd fbab 	bl	8001aec <HAL_GetTick>
 8004396:	4602      	mov	r2, r0
 8004398:	69bb      	ldr	r3, [r7, #24]
 800439a:	1ad3      	subs	r3, r2, r3
 800439c:	683a      	ldr	r2, [r7, #0]
 800439e:	429a      	cmp	r2, r3
 80043a0:	d803      	bhi.n	80043aa <HAL_SPI_Transmit+0x158>
 80043a2:	683b      	ldr	r3, [r7, #0]
 80043a4:	f1b3 3fff 	cmp.w	r3, #4294967295
 80043a8:	d102      	bne.n	80043b0 <HAL_SPI_Transmit+0x15e>
 80043aa:	683b      	ldr	r3, [r7, #0]
 80043ac:	2b00      	cmp	r3, #0
 80043ae:	d102      	bne.n	80043b6 <HAL_SPI_Transmit+0x164>
 80043b0:	2303      	movs	r3, #3
 80043b2:	77fb      	strb	r3, [r7, #31]
 80043b4:	e074      	b.n	80044a0 <HAL_SPI_Transmit+0x24e>
 80043b6:	68fb      	ldr	r3, [r7, #12]
 80043b8:	8edb      	ldrh	r3, [r3, #54]	; 0x36
 80043ba:	b29b      	uxth	r3, r3
 80043bc:	2b00      	cmp	r3, #0
 80043be:	d1ce      	bne.n	800435e <HAL_SPI_Transmit+0x10c>
 80043c0:	e04c      	b.n	800445c <HAL_SPI_Transmit+0x20a>
 80043c2:	68fb      	ldr	r3, [r7, #12]
 80043c4:	685b      	ldr	r3, [r3, #4]
 80043c6:	2b00      	cmp	r3, #0
 80043c8:	d002      	beq.n	80043d0 <HAL_SPI_Transmit+0x17e>
 80043ca:	8afb      	ldrh	r3, [r7, #22]
 80043cc:	2b01      	cmp	r3, #1
 80043ce:	d140      	bne.n	8004452 <HAL_SPI_Transmit+0x200>
 80043d0:	68fb      	ldr	r3, [r7, #12]
 80043d2:	6b1a      	ldr	r2, [r3, #48]	; 0x30
 80043d4:	68fb      	ldr	r3, [r7, #12]
 80043d6:	681b      	ldr	r3, [r3, #0]
 80043d8:	330c      	adds	r3, #12
 80043da:	7812      	ldrb	r2, [r2, #0]
 80043dc:	701a      	strb	r2, [r3, #0]
 80043de:	68fb      	ldr	r3, [r7, #12]
 80043e0:	6b1b      	ldr	r3, [r3, #48]	; 0x30
 80043e2:	1c5a      	adds	r2, r3, #1
 80043e4:	68fb      	ldr	r3, [r7, #12]
 80043e6:	631a      	str	r2, [r3, #48]	; 0x30
 80043e8:	68fb      	ldr	r3, [r7, #12]
 80043ea:	8edb      	ldrh	r3, [r3, #54]	; 0x36
 80043ec:	b29b      	uxth	r3, r3
 80043ee:	3b01      	subs	r3, #1
 80043f0:	b29a      	uxth	r2, r3
 80043f2:	68fb      	ldr	r3, [r7, #12]
 80043f4:	86da      	strh	r2, [r3, #54]	; 0x36
 80043f6:	e02c      	b.n	8004452 <HAL_SPI_Transmit+0x200>
 80043f8:	68fb      	ldr	r3, [r7, #12]
 80043fa:	681b      	ldr	r3, [r3, #0]
 80043fc:	689b      	ldr	r3, [r3, #8]
 80043fe:	f003 0302 	and.w	r3, r3, #2
 8004402:	2b02      	cmp	r3, #2
 8004404:	d113      	bne.n	800442e <HAL_SPI_Transmit+0x1dc>
 8004406:	68fb      	ldr	r3, [r7, #12]
 8004408:	6b1a      	ldr	r2, [r3, #48]	; 0x30
 800440a:	68fb      	ldr	r3, [r7, #12]
 800440c:	681b      	ldr	r3, [r3, #0]
 800440e:	330c      	adds	r3, #12
 8004410:	7812      	ldrb	r2, [r2, #0]
 8004412:	701a      	strb	r2, [r3, #0]
 8004414:	68fb      	ldr	r3, [r7, #12]
 8004416:	6b1b      	ldr	r3, [r3, #48]	; 0x30
 8004418:	1c5a      	adds	r2, r3, #1
 800441a:	68fb      	ldr	r3, [r7, #12]
 800441c:	631a      	str	r2, [r3, #48]	; 0x30
 800441e:	68fb      	ldr	r3, [r7, #12]
 8004420:	8edb      	ldrh	r3, [r3, #54]	; 0x36
 8004422:	b29b      	uxth	r3, r3
 8004424:	3b01      	subs	r3, #1
 8004426:	b29a      	uxth	r2, r3
 8004428:	68fb      	ldr	r3, [r7, #12]
 800442a:	86da      	strh	r2, [r3, #54]	; 0x36
 800442c:	e011      	b.n	8004452 <HAL_SPI_Transmit+0x200>
 800442e:	f7fd fb5d 	bl	8001aec <HAL_GetTick>
 8004432:	4602      	mov	r2, r0
 8004434:	69bb      	ldr	r3, [r7, #24]
 8004436:	1ad3      	subs	r3, r2, r3
 8004438:	683a      	ldr	r2, [r7, #0]
 800443a:	429a      	cmp	r2, r3
 800443c:	d803      	bhi.n	8004446 <HAL_SPI_Transmit+0x1f4>
 800443e:	683b      	ldr	r3, [r7, #0]
 8004440:	f1b3 3fff 	cmp.w	r3, #4294967295
 8004444:	d102      	bne.n	800444c <HAL_SPI_Transmit+0x1fa>
 8004446:	683b      	ldr	r3, [r7, #0]
 8004448:	2b00      	cmp	r3, #0
 800444a:	d102      	bne.n	8004452 <HAL_SPI_Transmit+0x200>
 800444c:	2303      	movs	r3, #3
 800444e:	77fb      	strb	r3, [r7, #31]
 8004450:	e026      	b.n	80044a0 <HAL_SPI_Transmit+0x24e>
 8004452:	68fb      	ldr	r3, [r7, #12]
 8004454:	8edb      	ldrh	r3, [r3, #54]	; 0x36
 8004456:	b29b      	uxth	r3, r3
 8004458:	2b00      	cmp	r3, #0
 800445a:	d1cd      	bne.n	80043f8 <HAL_SPI_Transmit+0x1a6>
 800445c:	69ba      	ldr	r2, [r7, #24]
 800445e:	6839      	ldr	r1, [r7, #0]
 8004460:	68f8      	ldr	r0, [r7, #12]
 8004462:	f000 fba4 	bl	8004bae <SPI_EndRxTxTransaction>
 8004466:	4603      	mov	r3, r0
 8004468:	2b00      	cmp	r3, #0
 800446a:	d002      	beq.n	8004472 <HAL_SPI_Transmit+0x220>
 800446c:	68fb      	ldr	r3, [r7, #12]
 800446e:	2220      	movs	r2, #32
 8004470:	655a      	str	r2, [r3, #84]	; 0x54
 8004472:	68fb      	ldr	r3, [r7, #12]
 8004474:	689b      	ldr	r3, [r3, #8]
 8004476:	2b00      	cmp	r3, #0
 8004478:	d10a      	bne.n	8004490 <HAL_SPI_Transmit+0x23e>
 800447a:	2300      	movs	r3, #0
 800447c:	613b      	str	r3, [r7, #16]
 800447e:	68fb      	ldr	r3, [r7, #12]
 8004480:	681b      	ldr	r3, [r3, #0]
 8004482:	68db      	ldr	r3, [r3, #12]
 8004484:	613b      	str	r3, [r7, #16]
 8004486:	68fb      	ldr	r3, [r7, #12]
 8004488:	681b      	ldr	r3, [r3, #0]
 800448a:	689b      	ldr	r3, [r3, #8]
 800448c:	613b      	str	r3, [r7, #16]
 800448e:	693b      	ldr	r3, [r7, #16]
 8004490:	68fb      	ldr	r3, [r7, #12]
 8004492:	6d5b      	ldr	r3, [r3, #84]	; 0x54
 8004494:	2b00      	cmp	r3, #0
 8004496:	d002      	beq.n	800449e <HAL_SPI_Transmit+0x24c>
 8004498:	2301      	movs	r3, #1
 800449a:	77fb      	strb	r3, [r7, #31]
 800449c:	e000      	b.n	80044a0 <HAL_SPI_Transmit+0x24e>
 800449e:	bf00      	nop
 80044a0:	68fb      	ldr	r3, [r7, #12]
 80044a2:	2201      	movs	r2, #1
 80044a4:	f883 2051 	strb.w	r2, [r3, #81]	; 0x51
 80044a8:	68fb      	ldr	r3, [r7, #12]
 80044aa:	2200      	movs	r2, #0
 80044ac:	f883 2050 	strb.w	r2, [r3, #80]	; 0x50
 80044b0:	7ffb      	ldrb	r3, [r7, #31]
 80044b2:	4618      	mov	r0, r3
 80044b4:	3720      	adds	r7, #32
 80044b6:	46bd      	mov	sp, r7
 80044b8:	bd80      	pop	{r7, pc}

080044ba <HAL_SPI_Receive>:
 80044ba:	b580      	push	{r7, lr}
 80044bc:	b088      	sub	sp, #32
 80044be:	af02      	add	r7, sp, #8
 80044c0:	60f8      	str	r0, [r7, #12]
 80044c2:	60b9      	str	r1, [r7, #8]
 80044c4:	603b      	str	r3, [r7, #0]
 80044c6:	4613      	mov	r3, r2
 80044c8:	80fb      	strh	r3, [r7, #6]
 80044ca:	2300      	movs	r3, #0
 80044cc:	75fb      	strb	r3, [r7, #23]
 80044ce:	68fb      	ldr	r3, [r7, #12]
 80044d0:	685b      	ldr	r3, [r3, #4]
 80044d2:	f5b3 7f82 	cmp.w	r3, #260	; 0x104
 80044d6:	d112      	bne.n	80044fe <HAL_SPI_Receive+0x44>
 80044d8:	68fb      	ldr	r3, [r7, #12]
 80044da:	689b      	ldr	r3, [r3, #8]
 80044dc:	2b00      	cmp	r3, #0
 80044de:	d10e      	bne.n	80044fe <HAL_SPI_Receive+0x44>
 80044e0:	68fb      	ldr	r3, [r7, #12]
 80044e2:	2204      	movs	r2, #4
 80044e4:	f883 2051 	strb.w	r2, [r3, #81]	; 0x51
 80044e8:	88fa      	ldrh	r2, [r7, #6]
 80044ea:	683b      	ldr	r3, [r7, #0]
 80044ec:	9300      	str	r3, [sp, #0]
 80044ee:	4613      	mov	r3, r2
 80044f0:	68ba      	ldr	r2, [r7, #8]
 80044f2:	68b9      	ldr	r1, [r7, #8]
 80044f4:	68f8      	ldr	r0, [r7, #12]
 80044f6:	f000 f8e9 	bl	80046cc <HAL_SPI_TransmitReceive>
 80044fa:	4603      	mov	r3, r0
 80044fc:	e0e2      	b.n	80046c4 <HAL_SPI_Receive+0x20a>
 80044fe:	68fb      	ldr	r3, [r7, #12]
 8004500:	f893 3050 	ldrb.w	r3, [r3, #80]	; 0x50
 8004504:	2b01      	cmp	r3, #1
 8004506:	d101      	bne.n	800450c <HAL_SPI_Receive+0x52>
 8004508:	2302      	movs	r3, #2
 800450a:	e0db      	b.n	80046c4 <HAL_SPI_Receive+0x20a>
 800450c:	68fb      	ldr	r3, [r7, #12]
 800450e:	2201      	movs	r2, #1
 8004510:	f883 2050 	strb.w	r2, [r3, #80]	; 0x50
 8004514:	f7fd faea 	bl	8001aec <HAL_GetTick>
 8004518:	6138      	str	r0, [r7, #16]
 800451a:	68fb      	ldr	r3, [r7, #12]
 800451c:	f893 3051 	ldrb.w	r3, [r3, #81]	; 0x51
 8004520:	b2db      	uxtb	r3, r3
 8004522:	2b01      	cmp	r3, #1
 8004524:	d002      	beq.n	800452c <HAL_SPI_Receive+0x72>
 8004526:	2302      	movs	r3, #2
 8004528:	75fb      	strb	r3, [r7, #23]
 800452a:	e0c2      	b.n	80046b2 <HAL_SPI_Receive+0x1f8>
 800452c:	68bb      	ldr	r3, [r7, #8]
 800452e:	2b00      	cmp	r3, #0
 8004530:	d002      	beq.n	8004538 <HAL_SPI_Receive+0x7e>
 8004532:	88fb      	ldrh	r3, [r7, #6]
 8004534:	2b00      	cmp	r3, #0
 8004536:	d102      	bne.n	800453e <HAL_SPI_Receive+0x84>
 8004538:	2301      	movs	r3, #1
 800453a:	75fb      	strb	r3, [r7, #23]
 800453c:	e0b9      	b.n	80046b2 <HAL_SPI_Receive+0x1f8>
 800453e:	68fb      	ldr	r3, [r7, #12]
 8004540:	2204      	movs	r2, #4
 8004542:	f883 2051 	strb.w	r2, [r3, #81]	; 0x51
 8004546:	68fb      	ldr	r3, [r7, #12]
 8004548:	2200      	movs	r2, #0
 800454a:	655a      	str	r2, [r3, #84]	; 0x54
 800454c:	68fb      	ldr	r3, [r7, #12]
 800454e:	68ba      	ldr	r2, [r7, #8]
 8004550:	639a      	str	r2, [r3, #56]	; 0x38
 8004552:	68fb      	ldr	r3, [r7, #12]
 8004554:	88fa      	ldrh	r2, [r7, #6]
 8004556:	879a      	strh	r2, [r3, #60]	; 0x3c
 8004558:	68fb      	ldr	r3, [r7, #12]
 800455a:	88fa      	ldrh	r2, [r7, #6]
 800455c:	87da      	strh	r2, [r3, #62]	; 0x3e
 800455e:	68fb      	ldr	r3, [r7, #12]
 8004560:	2200      	movs	r2, #0
 8004562:	631a      	str	r2, [r3, #48]	; 0x30
 8004564:	68fb      	ldr	r3, [r7, #12]
 8004566:	2200      	movs	r2, #0
 8004568:	869a      	strh	r2, [r3, #52]	; 0x34
 800456a:	68fb      	ldr	r3, [r7, #12]
 800456c:	2200      	movs	r2, #0
 800456e:	86da      	strh	r2, [r3, #54]	; 0x36
 8004570:	68fb      	ldr	r3, [r7, #12]
 8004572:	2200      	movs	r2, #0
 8004574:	641a      	str	r2, [r3, #64]	; 0x40
 8004576:	68fb      	ldr	r3, [r7, #12]
 8004578:	2200      	movs	r2, #0
 800457a:	645a      	str	r2, [r3, #68]	; 0x44
 800457c:	68fb      	ldr	r3, [r7, #12]
 800457e:	689b      	ldr	r3, [r3, #8]
 8004580:	f5b3 4f00 	cmp.w	r3, #32768	; 0x8000
 8004584:	d107      	bne.n	8004596 <HAL_SPI_Receive+0xdc>
 8004586:	68fb      	ldr	r3, [r7, #12]
 8004588:	681b      	ldr	r3, [r3, #0]
 800458a:	681a      	ldr	r2, [r3, #0]
 800458c:	68fb      	ldr	r3, [r7, #12]
 800458e:	681b      	ldr	r3, [r3, #0]
 8004590:	f422 4280 	bic.w	r2, r2, #16384	; 0x4000
 8004594:	601a      	str	r2, [r3, #0]
 8004596:	68fb      	ldr	r3, [r7, #12]
 8004598:	681b      	ldr	r3, [r3, #0]
 800459a:	681b      	ldr	r3, [r3, #0]
 800459c:	f003 0340 	and.w	r3, r3, #64	; 0x40
 80045a0:	2b40      	cmp	r3, #64	; 0x40
 80045a2:	d007      	beq.n	80045b4 <HAL_SPI_Receive+0xfa>
 80045a4:	68fb      	ldr	r3, [r7, #12]
 80045a6:	681b      	ldr	r3, [r3, #0]
 80045a8:	681a      	ldr	r2, [r3, #0]
 80045aa:	68fb      	ldr	r3, [r7, #12]
 80045ac:	681b      	ldr	r3, [r3, #0]
 80045ae:	f042 0240 	orr.w	r2, r2, #64	; 0x40
 80045b2:	601a      	str	r2, [r3, #0]
 80045b4:	68fb      	ldr	r3, [r7, #12]
 80045b6:	68db      	ldr	r3, [r3, #12]
 80045b8:	2b00      	cmp	r3, #0
 80045ba:	d162      	bne.n	8004682 <HAL_SPI_Receive+0x1c8>
 80045bc:	e02e      	b.n	800461c <HAL_SPI_Receive+0x162>
 80045be:	68fb      	ldr	r3, [r7, #12]
 80045c0:	681b      	ldr	r3, [r3, #0]
 80045c2:	689b      	ldr	r3, [r3, #8]
 80045c4:	f003 0301 	and.w	r3, r3, #1
 80045c8:	2b01      	cmp	r3, #1
 80045ca:	d115      	bne.n	80045f8 <HAL_SPI_Receive+0x13e>
 80045cc:	68fb      	ldr	r3, [r7, #12]
 80045ce:	681b      	ldr	r3, [r3, #0]
 80045d0:	f103 020c 	add.w	r2, r3, #12
 80045d4:	68fb      	ldr	r3, [r7, #12]
 80045d6:	6b9b      	ldr	r3, [r3, #56]	; 0x38
 80045d8:	7812      	ldrb	r2, [r2, #0]
 80045da:	b2d2      	uxtb	r2, r2
 80045dc:	701a      	strb	r2, [r3, #0]
 80045de:	68fb      	ldr	r3, [r7, #12]
 80045e0:	6b9b      	ldr	r3, [r3, #56]	; 0x38
 80045e2:	1c5a      	adds	r2, r3, #1
 80045e4:	68fb      	ldr	r3, [r7, #12]
 80045e6:	639a      	str	r2, [r3, #56]	; 0x38
 80045e8:	68fb      	ldr	r3, [r7, #12]
 80045ea:	8fdb      	ldrh	r3, [r3, #62]	; 0x3e
 80045ec:	b29b      	uxth	r3, r3
 80045ee:	3b01      	subs	r3, #1
 80045f0:	b29a      	uxth	r2, r3
 80045f2:	68fb      	ldr	r3, [r7, #12]
 80045f4:	87da      	strh	r2, [r3, #62]	; 0x3e
 80045f6:	e011      	b.n	800461c <HAL_SPI_Receive+0x162>
 80045f8:	f7fd fa78 	bl	8001aec <HAL_GetTick>
 80045fc:	4602      	mov	r2, r0
 80045fe:	693b      	ldr	r3, [r7, #16]
 8004600:	1ad3      	subs	r3, r2, r3
 8004602:	683a      	ldr	r2, [r7, #0]
 8004604:	429a      	cmp	r2, r3
 8004606:	d803      	bhi.n	8004610 <HAL_SPI_Receive+0x156>
 8004608:	683b      	ldr	r3, [r7, #0]
 800460a:	f1b3 3fff 	cmp.w	r3, #4294967295
 800460e:	d102      	bne.n	8004616 <HAL_SPI_Receive+0x15c>
 8004610:	683b      	ldr	r3, [r7, #0]
 8004612:	2b00      	cmp	r3, #0
 8004614:	d102      	bne.n	800461c <HAL_SPI_Receive+0x162>
 8004616:	2303      	movs	r3, #3
 8004618:	75fb      	strb	r3, [r7, #23]
 800461a:	e04a      	b.n	80046b2 <HAL_SPI_Receive+0x1f8>
 800461c:	68fb      	ldr	r3, [r7, #12]
 800461e:	8fdb      	ldrh	r3, [r3, #62]	; 0x3e
 8004620:	b29b      	uxth	r3, r3
 8004622:	2b00      	cmp	r3, #0
 8004624:	d1cb      	bne.n	80045be <HAL_SPI_Receive+0x104>
 8004626:	e031      	b.n	800468c <HAL_SPI_Receive+0x1d2>
 8004628:	68fb      	ldr	r3, [r7, #12]
 800462a:	681b      	ldr	r3, [r3, #0]
 800462c:	689b      	ldr	r3, [r3, #8]
 800462e:	f003 0301 	and.w	r3, r3, #1
 8004632:	2b01      	cmp	r3, #1
 8004634:	d113      	bne.n	800465e <HAL_SPI_Receive+0x1a4>
 8004636:	68fb      	ldr	r3, [r7, #12]
 8004638:	681b      	ldr	r3, [r3, #0]
 800463a:	68da      	ldr	r2, [r3, #12]
 800463c:	68fb      	ldr	r3, [r7, #12]
 800463e:	6b9b      	ldr	r3, [r3, #56]	; 0x38
 8004640:	b292      	uxth	r2, r2
 8004642:	801a      	strh	r2, [r3, #0]
 8004644:	68fb      	ldr	r3, [r7, #12]
 8004646:	6b9b      	ldr	r3, [r3, #56]	; 0x38
 8004648:	1c9a      	adds	r2, r3, #2
 800464a:	68fb      	ldr	r3, [r7, #12]
 800464c:	639a      	str	r2, [r3, #56]	; 0x38
 800464e:	68fb      	ldr	r3, [r7, #12]
 8004650:	8fdb      	ldrh	r3, [r3, #62]	; 0x3e
 8004652:	b29b      	uxth	r3, r3
 8004654:	3b01      	subs	r3, #1
 8004656:	b29a      	uxth	r2, r3
 8004658:	68fb      	ldr	r3, [r7, #12]
 800465a:	87da      	strh	r2, [r3, #62]	; 0x3e
 800465c:	e011      	b.n	8004682 <HAL_SPI_Receive+0x1c8>
 800465e:	f7fd fa45 	bl	8001aec <HAL_GetTick>
 8004662:	4602      	mov	r2, r0
 8004664:	693b      	ldr	r3, [r7, #16]
 8004666:	1ad3      	subs	r3, r2, r3
 8004668:	683a      	ldr	r2, [r7, #0]
 800466a:	429a      	cmp	r2, r3
 800466c:	d803      	bhi.n	8004676 <HAL_SPI_Receive+0x1bc>
 800466e:	683b      	ldr	r3, [r7, #0]
 8004670:	f1b3 3fff 	cmp.w	r3, #4294967295
 8004674:	d102      	bne.n	800467c <HAL_SPI_Receive+0x1c2>
 8004676:	683b      	ldr	r3, [r7, #0]
 8004678:	2b00      	cmp	r3, #0
 800467a:	d102      	bne.n	8004682 <HAL_SPI_Receive+0x1c8>
 800467c:	2303      	movs	r3, #3
 800467e:	75fb      	strb	r3, [r7, #23]
 8004680:	e017      	b.n	80046b2 <HAL_SPI_Receive+0x1f8>
 8004682:	68fb      	ldr	r3, [r7, #12]
 8004684:	8fdb      	ldrh	r3, [r3, #62]	; 0x3e
 8004686:	b29b      	uxth	r3, r3
 8004688:	2b00      	cmp	r3, #0
 800468a:	d1cd      	bne.n	8004628 <HAL_SPI_Receive+0x16e>
 800468c:	693a      	ldr	r2, [r7, #16]
 800468e:	6839      	ldr	r1, [r7, #0]
 8004690:	68f8      	ldr	r0, [r7, #12]
 8004692:	f000 fa27 	bl	8004ae4 <SPI_EndRxTransaction>
 8004696:	4603      	mov	r3, r0
 8004698:	2b00      	cmp	r3, #0
 800469a:	d002      	beq.n	80046a2 <HAL_SPI_Receive+0x1e8>
 800469c:	68fb      	ldr	r3, [r7, #12]
 800469e:	2220      	movs	r2, #32
 80046a0:	655a      	str	r2, [r3, #84]	; 0x54
 80046a2:	68fb      	ldr	r3, [r7, #12]
 80046a4:	6d5b      	ldr	r3, [r3, #84]	; 0x54
 80046a6:	2b00      	cmp	r3, #0
 80046a8:	d002      	beq.n	80046b0 <HAL_SPI_Receive+0x1f6>
 80046aa:	2301      	movs	r3, #1
 80046ac:	75fb      	strb	r3, [r7, #23]
 80046ae:	e000      	b.n	80046b2 <HAL_SPI_Receive+0x1f8>
 80046b0:	bf00      	nop
 80046b2:	68fb      	ldr	r3, [r7, #12]
 80046b4:	2201      	movs	r2, #1
 80046b6:	f883 2051 	strb.w	r2, [r3, #81]	; 0x51
 80046ba:	68fb      	ldr	r3, [r7, #12]
 80046bc:	2200      	movs	r2, #0
 80046be:	f883 2050 	strb.w	r2, [r3, #80]	; 0x50
 80046c2:	7dfb      	ldrb	r3, [r7, #23]
 80046c4:	4618      	mov	r0, r3
 80046c6:	3718      	adds	r7, #24
 80046c8:	46bd      	mov	sp, r7
 80046ca:	bd80      	pop	{r7, pc}

080046cc <HAL_SPI_TransmitReceive>:
 80046cc:	b580      	push	{r7, lr}
 80046ce:	b08c      	sub	sp, #48	; 0x30
 80046d0:	af00      	add	r7, sp, #0
 80046d2:	60f8      	str	r0, [r7, #12]
 80046d4:	60b9      	str	r1, [r7, #8]
 80046d6:	607a      	str	r2, [r7, #4]
 80046d8:	807b      	strh	r3, [r7, #2]
 80046da:	2301      	movs	r3, #1
 80046dc:	62fb      	str	r3, [r7, #44]	; 0x2c
 80046de:	2300      	movs	r3, #0
 80046e0:	f887 302b 	strb.w	r3, [r7, #43]	; 0x2b
 80046e4:	68fb      	ldr	r3, [r7, #12]
 80046e6:	f893 3050 	ldrb.w	r3, [r3, #80]	; 0x50
 80046ea:	2b01      	cmp	r3, #1
 80046ec:	d101      	bne.n	80046f2 <HAL_SPI_TransmitReceive+0x26>
 80046ee:	2302      	movs	r3, #2
 80046f0:	e18a      	b.n	8004a08 <HAL_SPI_TransmitReceive+0x33c>
 80046f2:	68fb      	ldr	r3, [r7, #12]
 80046f4:	2201      	movs	r2, #1
 80046f6:	f883 2050 	strb.w	r2, [r3, #80]	; 0x50
 80046fa:	f7fd f9f7 	bl	8001aec <HAL_GetTick>
 80046fe:	6278      	str	r0, [r7, #36]	; 0x24
 8004700:	68fb      	ldr	r3, [r7, #12]
 8004702:	f893 3051 	ldrb.w	r3, [r3, #81]	; 0x51
 8004706:	f887 3023 	strb.w	r3, [r7, #35]	; 0x23
 800470a:	68fb      	ldr	r3, [r7, #12]
 800470c:	685b      	ldr	r3, [r3, #4]
 800470e:	61fb      	str	r3, [r7, #28]
 8004710:	887b      	ldrh	r3, [r7, #2]
 8004712:	837b      	strh	r3, [r7, #26]
 8004714:	f897 3023 	ldrb.w	r3, [r7, #35]	; 0x23
 8004718:	2b01      	cmp	r3, #1
 800471a:	d00f      	beq.n	800473c <HAL_SPI_TransmitReceive+0x70>
 800471c:	69fb      	ldr	r3, [r7, #28]
 800471e:	f5b3 7f82 	cmp.w	r3, #260	; 0x104
 8004722:	d107      	bne.n	8004734 <HAL_SPI_TransmitReceive+0x68>
 8004724:	68fb      	ldr	r3, [r7, #12]
 8004726:	689b      	ldr	r3, [r3, #8]
 8004728:	2b00      	cmp	r3, #0
 800472a:	d103      	bne.n	8004734 <HAL_SPI_TransmitReceive+0x68>
 800472c:	f897 3023 	ldrb.w	r3, [r7, #35]	; 0x23
 8004730:	2b04      	cmp	r3, #4
 8004732:	d003      	beq.n	800473c <HAL_SPI_TransmitReceive+0x70>
 8004734:	2302      	movs	r3, #2
 8004736:	f887 302b 	strb.w	r3, [r7, #43]	; 0x2b
 800473a:	e15b      	b.n	80049f4 <HAL_SPI_TransmitReceive+0x328>
 800473c:	68bb      	ldr	r3, [r7, #8]
 800473e:	2b00      	cmp	r3, #0
 8004740:	d005      	beq.n	800474e <HAL_SPI_TransmitReceive+0x82>
 8004742:	687b      	ldr	r3, [r7, #4]
 8004744:	2b00      	cmp	r3, #0
 8004746:	d002      	beq.n	800474e <HAL_SPI_TransmitReceive+0x82>
 8004748:	887b      	ldrh	r3, [r7, #2]
 800474a:	2b00      	cmp	r3, #0
 800474c:	d103      	bne.n	8004756 <HAL_SPI_TransmitReceive+0x8a>
 800474e:	2301      	movs	r3, #1
 8004750:	f887 302b 	strb.w	r3, [r7, #43]	; 0x2b
 8004754:	e14e      	b.n	80049f4 <HAL_SPI_TransmitReceive+0x328>
 8004756:	68fb      	ldr	r3, [r7, #12]
 8004758:	f893 3051 	ldrb.w	r3, [r3, #81]	; 0x51
 800475c:	b2db      	uxtb	r3, r3
 800475e:	2b04      	cmp	r3, #4
 8004760:	d003      	beq.n	800476a <HAL_SPI_TransmitReceive+0x9e>
 8004762:	68fb      	ldr	r3, [r7, #12]
 8004764:	2205      	movs	r2, #5
 8004766:	f883 2051 	strb.w	r2, [r3, #81]	; 0x51
 800476a:	68fb      	ldr	r3, [r7, #12]
 800476c:	2200      	movs	r2, #0
 800476e:	655a      	str	r2, [r3, #84]	; 0x54
 8004770:	68fb      	ldr	r3, [r7, #12]
 8004772:	687a      	ldr	r2, [r7, #4]
 8004774:	639a      	str	r2, [r3, #56]	; 0x38
 8004776:	68fb      	ldr	r3, [r7, #12]
 8004778:	887a      	ldrh	r2, [r7, #2]
 800477a:	87da      	strh	r2, [r3, #62]	; 0x3e
 800477c:	68fb      	ldr	r3, [r7, #12]
 800477e:	887a      	ldrh	r2, [r7, #2]
 8004780:	879a      	strh	r2, [r3, #60]	; 0x3c
 8004782:	68fb      	ldr	r3, [r7, #12]
 8004784:	68ba      	ldr	r2, [r7, #8]
 8004786:	631a      	str	r2, [r3, #48]	; 0x30
 8004788:	68fb      	ldr	r3, [r7, #12]
 800478a:	887a      	ldrh	r2, [r7, #2]
 800478c:	86da      	strh	r2, [r3, #54]	; 0x36
 800478e:	68fb      	ldr	r3, [r7, #12]
 8004790:	887a      	ldrh	r2, [r7, #2]
 8004792:	869a      	strh	r2, [r3, #52]	; 0x34
 8004794:	68fb      	ldr	r3, [r7, #12]
 8004796:	2200      	movs	r2, #0
 8004798:	641a      	str	r2, [r3, #64]	; 0x40
 800479a:	68fb      	ldr	r3, [r7, #12]
 800479c:	2200      	movs	r2, #0
 800479e:	645a      	str	r2, [r3, #68]	; 0x44
 80047a0:	68fb      	ldr	r3, [r7, #12]
 80047a2:	681b      	ldr	r3, [r3, #0]
 80047a4:	681b      	ldr	r3, [r3, #0]
 80047a6:	f003 0340 	and.w	r3, r3, #64	; 0x40
 80047aa:	2b40      	cmp	r3, #64	; 0x40
 80047ac:	d007      	beq.n	80047be <HAL_SPI_TransmitReceive+0xf2>
 80047ae:	68fb      	ldr	r3, [r7, #12]
 80047b0:	681b      	ldr	r3, [r3, #0]
 80047b2:	681a      	ldr	r2, [r3, #0]
 80047b4:	68fb      	ldr	r3, [r7, #12]
 80047b6:	681b      	ldr	r3, [r3, #0]
 80047b8:	f042 0240 	orr.w	r2, r2, #64	; 0x40
 80047bc:	601a      	str	r2, [r3, #0]
 80047be:	68fb      	ldr	r3, [r7, #12]
 80047c0:	68db      	ldr	r3, [r3, #12]
 80047c2:	f5b3 6f00 	cmp.w	r3, #2048	; 0x800
 80047c6:	d178      	bne.n	80048ba <HAL_SPI_TransmitReceive+0x1ee>
 80047c8:	68fb      	ldr	r3, [r7, #12]
 80047ca:	685b      	ldr	r3, [r3, #4]
 80047cc:	2b00      	cmp	r3, #0
 80047ce:	d002      	beq.n	80047d6 <HAL_SPI_TransmitReceive+0x10a>
 80047d0:	8b7b      	ldrh	r3, [r7, #26]
 80047d2:	2b01      	cmp	r3, #1
 80047d4:	d166      	bne.n	80048a4 <HAL_SPI_TransmitReceive+0x1d8>
 80047d6:	68fb      	ldr	r3, [r7, #12]
 80047d8:	6b1b      	ldr	r3, [r3, #48]	; 0x30
 80047da:	881a      	ldrh	r2, [r3, #0]
 80047dc:	68fb      	ldr	r3, [r7, #12]
 80047de:	681b      	ldr	r3, [r3, #0]
 80047e0:	60da      	str	r2, [r3, #12]
 80047e2:	68fb      	ldr	r3, [r7, #12]
 80047e4:	6b1b      	ldr	r3, [r3, #48]	; 0x30
 80047e6:	1c9a      	adds	r2, r3, #2
 80047e8:	68fb      	ldr	r3, [r7, #12]
 80047ea:	631a      	str	r2, [r3, #48]	; 0x30
 80047ec:	68fb      	ldr	r3, [r7, #12]
 80047ee:	8edb      	ldrh	r3, [r3, #54]	; 0x36
 80047f0:	b29b      	uxth	r3, r3
 80047f2:	3b01      	subs	r3, #1
 80047f4:	b29a      	uxth	r2, r3
 80047f6:	68fb      	ldr	r3, [r7, #12]
 80047f8:	86da      	strh	r2, [r3, #54]	; 0x36
 80047fa:	e053      	b.n	80048a4 <HAL_SPI_TransmitReceive+0x1d8>
 80047fc:	68fb      	ldr	r3, [r7, #12]
 80047fe:	681b      	ldr	r3, [r3, #0]
 8004800:	689b      	ldr	r3, [r3, #8]
 8004802:	f003 0302 	and.w	r3, r3, #2
 8004806:	2b02      	cmp	r3, #2
 8004808:	d11b      	bne.n	8004842 <HAL_SPI_TransmitReceive+0x176>
 800480a:	68fb      	ldr	r3, [r7, #12]
 800480c:	8edb      	ldrh	r3, [r3, #54]	; 0x36
 800480e:	b29b      	uxth	r3, r3
 8004810:	2b00      	cmp	r3, #0
 8004812:	d016      	beq.n	8004842 <HAL_SPI_TransmitReceive+0x176>
 8004814:	6afb      	ldr	r3, [r7, #44]	; 0x2c
 8004816:	2b01      	cmp	r3, #1
 8004818:	d113      	bne.n	8004842 <HAL_SPI_TransmitReceive+0x176>
 800481a:	68fb      	ldr	r3, [r7, #12]
 800481c:	6b1b      	ldr	r3, [r3, #48]	; 0x30
 800481e:	881a      	ldrh	r2, [r3, #0]
 8004820:	68fb      	ldr	r3, [r7, #12]
 8004822:	681b      	ldr	r3, [r3, #0]
 8004824:	60da      	str	r2, [r3, #12]
 8004826:	68fb      	ldr	r3, [r7, #12]
 8004828:	6b1b      	ldr	r3, [r3, #48]	; 0x30
 800482a:	1c9a      	adds	r2, r3, #2
 800482c:	68fb      	ldr	r3, [r7, #12]
 800482e:	631a      	str	r2, [r3, #48]	; 0x30
 8004830:	68fb      	ldr	r3, [r7, #12]
 8004832:	8edb      	ldrh	r3, [r3, #54]	; 0x36
 8004834:	b29b      	uxth	r3, r3
 8004836:	3b01      	subs	r3, #1
 8004838:	b29a      	uxth	r2, r3
 800483a:	68fb      	ldr	r3, [r7, #12]
 800483c:	86da      	strh	r2, [r3, #54]	; 0x36
 800483e:	2300      	movs	r3, #0
 8004840:	62fb      	str	r3, [r7, #44]	; 0x2c
 8004842:	68fb      	ldr	r3, [r7, #12]
 8004844:	681b      	ldr	r3, [r3, #0]
 8004846:	689b      	ldr	r3, [r3, #8]
 8004848:	f003 0301 	and.w	r3, r3, #1
 800484c:	2b01      	cmp	r3, #1
 800484e:	d119      	bne.n	8004884 <HAL_SPI_TransmitReceive+0x1b8>
 8004850:	68fb      	ldr	r3, [r7, #12]
 8004852:	8fdb      	ldrh	r3, [r3, #62]	; 0x3e
 8004854:	b29b      	uxth	r3, r3
 8004856:	2b00      	cmp	r3, #0
 8004858:	d014      	beq.n	8004884 <HAL_SPI_TransmitReceive+0x1b8>
 800485a:	68fb      	ldr	r3, [r7, #12]
 800485c:	681b      	ldr	r3, [r3, #0]
 800485e:	68da      	ldr	r2, [r3, #12]
 8004860:	68fb      	ldr	r3, [r7, #12]
 8004862:	6b9b      	ldr	r3, [r3, #56]	; 0x38
 8004864:	b292      	uxth	r2, r2
 8004866:	801a      	strh	r2, [r3, #0]
 8004868:	68fb      	ldr	r3, [r7, #12]
 800486a:	6b9b      	ldr	r3, [r3, #56]	; 0x38
 800486c:	1c9a      	adds	r2, r3, #2
 800486e:	68fb      	ldr	r3, [r7, #12]
 8004870:	639a      	str	r2, [r3, #56]	; 0x38
 8004872:	68fb      	ldr	r3, [r7, #12]
 8004874:	8fdb      	ldrh	r3, [r3, #62]	; 0x3e
 8004876:	b29b      	uxth	r3, r3
 8004878:	3b01      	subs	r3, #1
 800487a:	b29a      	uxth	r2, r3
 800487c:	68fb      	ldr	r3, [r7, #12]
 800487e:	87da      	strh	r2, [r3, #62]	; 0x3e
 8004880:	2301      	movs	r3, #1
 8004882:	62fb      	str	r3, [r7, #44]	; 0x2c
 8004884:	f7fd f932 	bl	8001aec <HAL_GetTick>
 8004888:	4602      	mov	r2, r0
 800488a:	6a7b      	ldr	r3, [r7, #36]	; 0x24
 800488c:	1ad3      	subs	r3, r2, r3
 800488e:	6bba      	ldr	r2, [r7, #56]	; 0x38
 8004890:	429a      	cmp	r2, r3
 8004892:	d807      	bhi.n	80048a4 <HAL_SPI_TransmitReceive+0x1d8>
 8004894:	6bbb      	ldr	r3, [r7, #56]	; 0x38
 8004896:	f1b3 3fff 	cmp.w	r3, #4294967295
 800489a:	d003      	beq.n	80048a4 <HAL_SPI_TransmitReceive+0x1d8>
 800489c:	2303      	movs	r3, #3
 800489e:	f887 302b 	strb.w	r3, [r7, #43]	; 0x2b
 80048a2:	e0a7      	b.n	80049f4 <HAL_SPI_TransmitReceive+0x328>
 80048a4:	68fb      	ldr	r3, [r7, #12]
 80048a6:	8edb      	ldrh	r3, [r3, #54]	; 0x36
 80048a8:	b29b      	uxth	r3, r3
 80048aa:	2b00      	cmp	r3, #0
 80048ac:	d1a6      	bne.n	80047fc <HAL_SPI_TransmitReceive+0x130>
 80048ae:	68fb      	ldr	r3, [r7, #12]
 80048b0:	8fdb      	ldrh	r3, [r3, #62]	; 0x3e
 80048b2:	b29b      	uxth	r3, r3
 80048b4:	2b00      	cmp	r3, #0
 80048b6:	d1a1      	bne.n	80047fc <HAL_SPI_TransmitReceive+0x130>
 80048b8:	e07c      	b.n	80049b4 <HAL_SPI_TransmitReceive+0x2e8>
 80048ba:	68fb      	ldr	r3, [r7, #12]
 80048bc:	685b      	ldr	r3, [r3, #4]
 80048be:	2b00      	cmp	r3, #0
 80048c0:	d002      	beq.n	80048c8 <HAL_SPI_TransmitReceive+0x1fc>
 80048c2:	8b7b      	ldrh	r3, [r7, #26]
 80048c4:	2b01      	cmp	r3, #1
 80048c6:	d16b      	bne.n	80049a0 <HAL_SPI_TransmitReceive+0x2d4>
 80048c8:	68fb      	ldr	r3, [r7, #12]
 80048ca:	6b1a      	ldr	r2, [r3, #48]	; 0x30
 80048cc:	68fb      	ldr	r3, [r7, #12]
 80048ce:	681b      	ldr	r3, [r3, #0]
 80048d0:	330c      	adds	r3, #12
 80048d2:	7812      	ldrb	r2, [r2, #0]
 80048d4:	701a      	strb	r2, [r3, #0]
 80048d6:	68fb      	ldr	r3, [r7, #12]
 80048d8:	6b1b      	ldr	r3, [r3, #48]	; 0x30
 80048da:	1c5a      	adds	r2, r3, #1
 80048dc:	68fb      	ldr	r3, [r7, #12]
 80048de:	631a      	str	r2, [r3, #48]	; 0x30
 80048e0:	68fb      	ldr	r3, [r7, #12]
 80048e2:	8edb      	ldrh	r3, [r3, #54]	; 0x36
 80048e4:	b29b      	uxth	r3, r3
 80048e6:	3b01      	subs	r3, #1
 80048e8:	b29a      	uxth	r2, r3
 80048ea:	68fb      	ldr	r3, [r7, #12]
 80048ec:	86da      	strh	r2, [r3, #54]	; 0x36
 80048ee:	e057      	b.n	80049a0 <HAL_SPI_TransmitReceive+0x2d4>
 80048f0:	68fb      	ldr	r3, [r7, #12]
 80048f2:	681b      	ldr	r3, [r3, #0]
 80048f4:	689b      	ldr	r3, [r3, #8]
 80048f6:	f003 0302 	and.w	r3, r3, #2
 80048fa:	2b02      	cmp	r3, #2
 80048fc:	d11c      	bne.n	8004938 <HAL_SPI_TransmitReceive+0x26c>
 80048fe:	68fb      	ldr	r3, [r7, #12]
 8004900:	8edb      	ldrh	r3, [r3, #54]	; 0x36
 8004902:	b29b      	uxth	r3, r3
 8004904:	2b00      	cmp	r3, #0
 8004906:	d017      	beq.n	8004938 <HAL_SPI_TransmitReceive+0x26c>
 8004908:	6afb      	ldr	r3, [r7, #44]	; 0x2c
 800490a:	2b01      	cmp	r3, #1
 800490c:	d114      	bne.n	8004938 <HAL_SPI_TransmitReceive+0x26c>
 800490e:	68fb      	ldr	r3, [r7, #12]
 8004910:	6b1a      	ldr	r2, [r3, #48]	; 0x30
 8004912:	68fb      	ldr	r3, [r7, #12]
 8004914:	681b      	ldr	r3, [r3, #0]
 8004916:	330c      	adds	r3, #12
 8004918:	7812      	ldrb	r2, [r2, #0]
 800491a:	701a      	strb	r2, [r3, #0]
 800491c:	68fb      	ldr	r3, [r7, #12]
 800491e:	6b1b      	ldr	r3, [r3, #48]	; 0x30
 8004920:	1c5a      	adds	r2, r3, #1
 8004922:	68fb      	ldr	r3, [r7, #12]
 8004924:	631a      	str	r2, [r3, #48]	; 0x30
 8004926:	68fb      	ldr	r3, [r7, #12]
 8004928:	8edb      	ldrh	r3, [r3, #54]	; 0x36
 800492a:	b29b      	uxth	r3, r3
 800492c:	3b01      	subs	r3, #1
 800492e:	b29a      	uxth	r2, r3
 8004930:	68fb      	ldr	r3, [r7, #12]
 8004932:	86da      	strh	r2, [r3, #54]	; 0x36
 8004934:	2300      	movs	r3, #0
 8004936:	62fb      	str	r3, [r7, #44]	; 0x2c
 8004938:	68fb      	ldr	r3, [r7, #12]
 800493a:	681b      	ldr	r3, [r3, #0]
 800493c:	689b      	ldr	r3, [r3, #8]
 800493e:	f003 0301 	and.w	r3, r3, #1
 8004942:	2b01      	cmp	r3, #1
 8004944:	d119      	bne.n	800497a <HAL_SPI_TransmitReceive+0x2ae>
 8004946:	68fb      	ldr	r3, [r7, #12]
 8004948:	8fdb      	ldrh	r3, [r3, #62]	; 0x3e
 800494a:	b29b      	uxth	r3, r3
 800494c:	2b00      	cmp	r3, #0
 800494e:	d014      	beq.n	800497a <HAL_SPI_TransmitReceive+0x2ae>
 8004950:	68fb      	ldr	r3, [r7, #12]
 8004952:	681b      	ldr	r3, [r3, #0]
 8004954:	68da      	ldr	r2, [r3, #12]
 8004956:	68fb      	ldr	r3, [r7, #12]
 8004958:	6b9b      	ldr	r3, [r3, #56]	; 0x38
 800495a:	b2d2      	uxtb	r2, r2
 800495c:	701a      	strb	r2, [r3, #0]
 800495e:	68fb      	ldr	r3, [r7, #12]
 8004960:	6b9b      	ldr	r3, [r3, #56]	; 0x38
 8004962:	1c5a      	adds	r2, r3, #1
 8004964:	68fb      	ldr	r3, [r7, #12]
 8004966:	639a      	str	r2, [r3, #56]	; 0x38
 8004968:	68fb      	ldr	r3, [r7, #12]
 800496a:	8fdb      	ldrh	r3, [r3, #62]	; 0x3e
 800496c:	b29b      	uxth	r3, r3
 800496e:	3b01      	subs	r3, #1
 8004970:	b29a      	uxth	r2, r3
 8004972:	68fb      	ldr	r3, [r7, #12]
 8004974:	87da      	strh	r2, [r3, #62]	; 0x3e
 8004976:	2301      	movs	r3, #1
 8004978:	62fb      	str	r3, [r7, #44]	; 0x2c
 800497a:	f7fd f8b7 	bl	8001aec <HAL_GetTick>
 800497e:	4602      	mov	r2, r0
 8004980:	6a7b      	ldr	r3, [r7, #36]	; 0x24
 8004982:	1ad3      	subs	r3, r2, r3
 8004984:	6bba      	ldr	r2, [r7, #56]	; 0x38
 8004986:	429a      	cmp	r2, r3
 8004988:	d803      	bhi.n	8004992 <HAL_SPI_TransmitReceive+0x2c6>
 800498a:	6bbb      	ldr	r3, [r7, #56]	; 0x38
 800498c:	f1b3 3fff 	cmp.w	r3, #4294967295
 8004990:	d102      	bne.n	8004998 <HAL_SPI_TransmitReceive+0x2cc>
 8004992:	6bbb      	ldr	r3, [r7, #56]	; 0x38
 8004994:	2b00      	cmp	r3, #0
 8004996:	d103      	bne.n	80049a0 <HAL_SPI_TransmitReceive+0x2d4>
 8004998:	2303      	movs	r3, #3
 800499a:	f887 302b 	strb.w	r3, [r7, #43]	; 0x2b
 800499e:	e029      	b.n	80049f4 <HAL_SPI_TransmitReceive+0x328>
 80049a0:	68fb      	ldr	r3, [r7, #12]
 80049a2:	8edb      	ldrh	r3, [r3, #54]	; 0x36
 80049a4:	b29b      	uxth	r3, r3
 80049a6:	2b00      	cmp	r3, #0
 80049a8:	d1a2      	bne.n	80048f0 <HAL_SPI_TransmitReceive+0x224>
 80049aa:	68fb      	ldr	r3, [r7, #12]
 80049ac:	8fdb      	ldrh	r3, [r3, #62]	; 0x3e
 80049ae:	b29b      	uxth	r3, r3
 80049b0:	2b00      	cmp	r3, #0
 80049b2:	d19d      	bne.n	80048f0 <HAL_SPI_TransmitReceive+0x224>
 80049b4:	6a7a      	ldr	r2, [r7, #36]	; 0x24
 80049b6:	6bb9      	ldr	r1, [r7, #56]	; 0x38
 80049b8:	68f8      	ldr	r0, [r7, #12]
 80049ba:	f000 f8f8 	bl	8004bae <SPI_EndRxTxTransaction>
 80049be:	4603      	mov	r3, r0
 80049c0:	2b00      	cmp	r3, #0
 80049c2:	d006      	beq.n	80049d2 <HAL_SPI_TransmitReceive+0x306>
 80049c4:	2301      	movs	r3, #1
 80049c6:	f887 302b 	strb.w	r3, [r7, #43]	; 0x2b
 80049ca:	68fb      	ldr	r3, [r7, #12]
 80049cc:	2220      	movs	r2, #32
 80049ce:	655a      	str	r2, [r3, #84]	; 0x54
 80049d0:	e010      	b.n	80049f4 <HAL_SPI_TransmitReceive+0x328>
 80049d2:	68fb      	ldr	r3, [r7, #12]
 80049d4:	689b      	ldr	r3, [r3, #8]
 80049d6:	2b00      	cmp	r3, #0
 80049d8:	d10b      	bne.n	80049f2 <HAL_SPI_TransmitReceive+0x326>
 80049da:	2300      	movs	r3, #0
 80049dc:	617b      	str	r3, [r7, #20]
 80049de:	68fb      	ldr	r3, [r7, #12]
 80049e0:	681b      	ldr	r3, [r3, #0]
 80049e2:	68db      	ldr	r3, [r3, #12]
 80049e4:	617b      	str	r3, [r7, #20]
 80049e6:	68fb      	ldr	r3, [r7, #12]
 80049e8:	681b      	ldr	r3, [r3, #0]
 80049ea:	689b      	ldr	r3, [r3, #8]
 80049ec:	617b      	str	r3, [r7, #20]
 80049ee:	697b      	ldr	r3, [r7, #20]
 80049f0:	e000      	b.n	80049f4 <HAL_SPI_TransmitReceive+0x328>
 80049f2:	bf00      	nop
 80049f4:	68fb      	ldr	r3, [r7, #12]
 80049f6:	2201      	movs	r2, #1
 80049f8:	f883 2051 	strb.w	r2, [r3, #81]	; 0x51
 80049fc:	68fb      	ldr	r3, [r7, #12]
 80049fe:	2200      	movs	r2, #0
 8004a00:	f883 2050 	strb.w	r2, [r3, #80]	; 0x50
 8004a04:	f897 302b 	ldrb.w	r3, [r7, #43]	; 0x2b
 8004a08:	4618      	mov	r0, r3
 8004a0a:	3730      	adds	r7, #48	; 0x30
 8004a0c:	46bd      	mov	sp, r7
 8004a0e:	bd80      	pop	{r7, pc}

08004a10 <SPI_WaitFlagStateUntilTimeout>:
 8004a10:	b580      	push	{r7, lr}
 8004a12:	b084      	sub	sp, #16
 8004a14:	af00      	add	r7, sp, #0
 8004a16:	60f8      	str	r0, [r7, #12]
 8004a18:	60b9      	str	r1, [r7, #8]
 8004a1a:	603b      	str	r3, [r7, #0]
 8004a1c:	4613      	mov	r3, r2
 8004a1e:	71fb      	strb	r3, [r7, #7]
 8004a20:	e04c      	b.n	8004abc <SPI_WaitFlagStateUntilTimeout+0xac>
 8004a22:	683b      	ldr	r3, [r7, #0]
 8004a24:	f1b3 3fff 	cmp.w	r3, #4294967295
 8004a28:	d048      	beq.n	8004abc <SPI_WaitFlagStateUntilTimeout+0xac>
 8004a2a:	f7fd f85f 	bl	8001aec <HAL_GetTick>
 8004a2e:	4602      	mov	r2, r0
 8004a30:	69bb      	ldr	r3, [r7, #24]
 8004a32:	1ad3      	subs	r3, r2, r3
 8004a34:	683a      	ldr	r2, [r7, #0]
 8004a36:	429a      	cmp	r2, r3
 8004a38:	d902      	bls.n	8004a40 <SPI_WaitFlagStateUntilTimeout+0x30>
 8004a3a:	683b      	ldr	r3, [r7, #0]
 8004a3c:	2b00      	cmp	r3, #0
 8004a3e:	d13d      	bne.n	8004abc <SPI_WaitFlagStateUntilTimeout+0xac>
 8004a40:	68fb      	ldr	r3, [r7, #12]
 8004a42:	681b      	ldr	r3, [r3, #0]
 8004a44:	685a      	ldr	r2, [r3, #4]
 8004a46:	68fb      	ldr	r3, [r7, #12]
 8004a48:	681b      	ldr	r3, [r3, #0]
 8004a4a:	f022 02e0 	bic.w	r2, r2, #224	; 0xe0
 8004a4e:	605a      	str	r2, [r3, #4]
 8004a50:	68fb      	ldr	r3, [r7, #12]
 8004a52:	685b      	ldr	r3, [r3, #4]
 8004a54:	f5b3 7f82 	cmp.w	r3, #260	; 0x104
 8004a58:	d111      	bne.n	8004a7e <SPI_WaitFlagStateUntilTimeout+0x6e>
 8004a5a:	68fb      	ldr	r3, [r7, #12]
 8004a5c:	689b      	ldr	r3, [r3, #8]
 8004a5e:	f5b3 4f00 	cmp.w	r3, #32768	; 0x8000
 8004a62:	d004      	beq.n	8004a6e <SPI_WaitFlagStateUntilTimeout+0x5e>
 8004a64:	68fb      	ldr	r3, [r7, #12]
 8004a66:	689b      	ldr	r3, [r3, #8]
 8004a68:	f5b3 6f80 	cmp.w	r3, #1024	; 0x400
 8004a6c:	d107      	bne.n	8004a7e <SPI_WaitFlagStateUntilTimeout+0x6e>
 8004a6e:	68fb      	ldr	r3, [r7, #12]
 8004a70:	681b      	ldr	r3, [r3, #0]
 8004a72:	681a      	ldr	r2, [r3, #0]
 8004a74:	68fb      	ldr	r3, [r7, #12]
 8004a76:	681b      	ldr	r3, [r3, #0]
 8004a78:	f022 0240 	bic.w	r2, r2, #64	; 0x40
 8004a7c:	601a      	str	r2, [r3, #0]
 8004a7e:	68fb      	ldr	r3, [r7, #12]
 8004a80:	6a9b      	ldr	r3, [r3, #40]	; 0x28
 8004a82:	f5b3 5f00 	cmp.w	r3, #8192	; 0x2000
 8004a86:	d10f      	bne.n	8004aa8 <SPI_WaitFlagStateUntilTimeout+0x98>
 8004a88:	68fb      	ldr	r3, [r7, #12]
 8004a8a:	681b      	ldr	r3, [r3, #0]
 8004a8c:	681a      	ldr	r2, [r3, #0]
 8004a8e:	68fb      	ldr	r3, [r7, #12]
 8004a90:	681b      	ldr	r3, [r3, #0]
 8004a92:	f422 5200 	bic.w	r2, r2, #8192	; 0x2000
 8004a96:	601a      	str	r2, [r3, #0]
 8004a98:	68fb      	ldr	r3, [r7, #12]
 8004a9a:	681b      	ldr	r3, [r3, #0]
 8004a9c:	681a      	ldr	r2, [r3, #0]
 8004a9e:	68fb      	ldr	r3, [r7, #12]
 8004aa0:	681b      	ldr	r3, [r3, #0]
 8004aa2:	f442 5200 	orr.w	r2, r2, #8192	; 0x2000
 8004aa6:	601a      	str	r2, [r3, #0]
 8004aa8:	68fb      	ldr	r3, [r7, #12]
 8004aaa:	2201      	movs	r2, #1
 8004aac:	f883 2051 	strb.w	r2, [r3, #81]	; 0x51
 8004ab0:	68fb      	ldr	r3, [r7, #12]
 8004ab2:	2200      	movs	r2, #0
 8004ab4:	f883 2050 	strb.w	r2, [r3, #80]	; 0x50
 8004ab8:	2303      	movs	r3, #3
 8004aba:	e00f      	b.n	8004adc <SPI_WaitFlagStateUntilTimeout+0xcc>
 8004abc:	68fb      	ldr	r3, [r7, #12]
 8004abe:	681b      	ldr	r3, [r3, #0]
 8004ac0:	689a      	ldr	r2, [r3, #8]
 8004ac2:	68bb      	ldr	r3, [r7, #8]
 8004ac4:	4013      	ands	r3, r2
 8004ac6:	68ba      	ldr	r2, [r7, #8]
 8004ac8:	429a      	cmp	r2, r3
 8004aca:	bf0c      	ite	eq
 8004acc:	2301      	moveq	r3, #1
 8004ace:	2300      	movne	r3, #0
 8004ad0:	b2db      	uxtb	r3, r3
 8004ad2:	461a      	mov	r2, r3
 8004ad4:	79fb      	ldrb	r3, [r7, #7]
 8004ad6:	429a      	cmp	r2, r3
 8004ad8:	d1a3      	bne.n	8004a22 <SPI_WaitFlagStateUntilTimeout+0x12>
 8004ada:	2300      	movs	r3, #0
 8004adc:	4618      	mov	r0, r3
 8004ade:	3710      	adds	r7, #16
 8004ae0:	46bd      	mov	sp, r7
 8004ae2:	bd80      	pop	{r7, pc}

08004ae4 <SPI_EndRxTransaction>:
 8004ae4:	b580      	push	{r7, lr}
 8004ae6:	b086      	sub	sp, #24
 8004ae8:	af02      	add	r7, sp, #8
 8004aea:	60f8      	str	r0, [r7, #12]
 8004aec:	60b9      	str	r1, [r7, #8]
 8004aee:	607a      	str	r2, [r7, #4]
 8004af0:	68fb      	ldr	r3, [r7, #12]
 8004af2:	685b      	ldr	r3, [r3, #4]
 8004af4:	f5b3 7f82 	cmp.w	r3, #260	; 0x104
 8004af8:	d111      	bne.n	8004b1e <SPI_EndRxTransaction+0x3a>
 8004afa:	68fb      	ldr	r3, [r7, #12]
 8004afc:	689b      	ldr	r3, [r3, #8]
 8004afe:	f5b3 4f00 	cmp.w	r3, #32768	; 0x8000
 8004b02:	d004      	beq.n	8004b0e <SPI_EndRxTransaction+0x2a>
 8004b04:	68fb      	ldr	r3, [r7, #12]
 8004b06:	689b      	ldr	r3, [r3, #8]
 8004b08:	f5b3 6f80 	cmp.w	r3, #1024	; 0x400
 8004b0c:	d107      	bne.n	8004b1e <SPI_EndRxTransaction+0x3a>
 8004b0e:	68fb      	ldr	r3, [r7, #12]
 8004b10:	681b      	ldr	r3, [r3, #0]
 8004b12:	681a      	ldr	r2, [r3, #0]
 8004b14:	68fb      	ldr	r3, [r7, #12]
 8004b16:	681b      	ldr	r3, [r3, #0]
 8004b18:	f022 0240 	bic.w	r2, r2, #64	; 0x40
 8004b1c:	601a      	str	r2, [r3, #0]
 8004b1e:	68fb      	ldr	r3, [r7, #12]
 8004b20:	685b      	ldr	r3, [r3, #4]
 8004b22:	f5b3 7f82 	cmp.w	r3, #260	; 0x104
 8004b26:	d12a      	bne.n	8004b7e <SPI_EndRxTransaction+0x9a>
 8004b28:	68fb      	ldr	r3, [r7, #12]
 8004b2a:	689b      	ldr	r3, [r3, #8]
 8004b2c:	f5b3 6f80 	cmp.w	r3, #1024	; 0x400
 8004b30:	d012      	beq.n	8004b58 <SPI_EndRxTransaction+0x74>
 8004b32:	687b      	ldr	r3, [r7, #4]
 8004b34:	9300      	str	r3, [sp, #0]
 8004b36:	68bb      	ldr	r3, [r7, #8]
 8004b38:	2200      	movs	r2, #0
 8004b3a:	2180      	movs	r1, #128	; 0x80
 8004b3c:	68f8      	ldr	r0, [r7, #12]
 8004b3e:	f7ff ff67 	bl	8004a10 <SPI_WaitFlagStateUntilTimeout>
 8004b42:	4603      	mov	r3, r0
 8004b44:	2b00      	cmp	r3, #0
 8004b46:	d02d      	beq.n	8004ba4 <SPI_EndRxTransaction+0xc0>
 8004b48:	68fb      	ldr	r3, [r7, #12]
 8004b4a:	6d5b      	ldr	r3, [r3, #84]	; 0x54
 8004b4c:	f043 0220 	orr.w	r2, r3, #32
 8004b50:	68fb      	ldr	r3, [r7, #12]
 8004b52:	655a      	str	r2, [r3, #84]	; 0x54
 8004b54:	2303      	movs	r3, #3
 8004b56:	e026      	b.n	8004ba6 <SPI_EndRxTransaction+0xc2>
 8004b58:	687b      	ldr	r3, [r7, #4]
 8004b5a:	9300      	str	r3, [sp, #0]
 8004b5c:	68bb      	ldr	r3, [r7, #8]
 8004b5e:	2200      	movs	r2, #0
 8004b60:	2101      	movs	r1, #1
 8004b62:	68f8      	ldr	r0, [r7, #12]
 8004b64:	f7ff ff54 	bl	8004a10 <SPI_WaitFlagStateUntilTimeout>
 8004b68:	4603      	mov	r3, r0
 8004b6a:	2b00      	cmp	r3, #0
 8004b6c:	d01a      	beq.n	8004ba4 <SPI_EndRxTransaction+0xc0>
 8004b6e:	68fb      	ldr	r3, [r7, #12]
 8004b70:	6d5b      	ldr	r3, [r3, #84]	; 0x54
 8004b72:	f043 0220 	orr.w	r2, r3, #32
 8004b76:	68fb      	ldr	r3, [r7, #12]
 8004b78:	655a      	str	r2, [r3, #84]	; 0x54
 8004b7a:	2303      	movs	r3, #3
 8004b7c:	e013      	b.n	8004ba6 <SPI_EndRxTransaction+0xc2>
 8004b7e:	687b      	ldr	r3, [r7, #4]
 8004b80:	9300      	str	r3, [sp, #0]
 8004b82:	68bb      	ldr	r3, [r7, #8]
 8004b84:	2200      	movs	r2, #0
 8004b86:	2101      	movs	r1, #1
 8004b88:	68f8      	ldr	r0, [r7, #12]
 8004b8a:	f7ff ff41 	bl	8004a10 <SPI_WaitFlagStateUntilTimeout>
 8004b8e:	4603      	mov	r3, r0
 8004b90:	2b00      	cmp	r3, #0
 8004b92:	d007      	beq.n	8004ba4 <SPI_EndRxTransaction+0xc0>
 8004b94:	68fb      	ldr	r3, [r7, #12]
 8004b96:	6d5b      	ldr	r3, [r3, #84]	; 0x54
 8004b98:	f043 0220 	orr.w	r2, r3, #32
 8004b9c:	68fb      	ldr	r3, [r7, #12]
 8004b9e:	655a      	str	r2, [r3, #84]	; 0x54
 8004ba0:	2303      	movs	r3, #3
 8004ba2:	e000      	b.n	8004ba6 <SPI_EndRxTransaction+0xc2>
 8004ba4:	2300      	movs	r3, #0
 8004ba6:	4618      	mov	r0, r3
 8004ba8:	3710      	adds	r7, #16
 8004baa:	46bd      	mov	sp, r7
 8004bac:	bd80      	pop	{r7, pc}

08004bae <SPI_EndRxTxTransaction>:
 8004bae:	b580      	push	{r7, lr}
 8004bb0:	b086      	sub	sp, #24
 8004bb2:	af02      	add	r7, sp, #8
 8004bb4:	60f8      	str	r0, [r7, #12]
 8004bb6:	60b9      	str	r1, [r7, #8]
 8004bb8:	607a      	str	r2, [r7, #4]
 8004bba:	68fb      	ldr	r3, [r7, #12]
 8004bbc:	685b      	ldr	r3, [r3, #4]
 8004bbe:	f5b3 7f82 	cmp.w	r3, #260	; 0x104
 8004bc2:	d112      	bne.n	8004bea <SPI_EndRxTxTransaction+0x3c>
 8004bc4:	687b      	ldr	r3, [r7, #4]
 8004bc6:	9300      	str	r3, [sp, #0]
 8004bc8:	68bb      	ldr	r3, [r7, #8]
 8004bca:	2200      	movs	r2, #0
 8004bcc:	2180      	movs	r1, #128	; 0x80
 8004bce:	68f8      	ldr	r0, [r7, #12]
 8004bd0:	f7ff ff1e 	bl	8004a10 <SPI_WaitFlagStateUntilTimeout>
 8004bd4:	4603      	mov	r3, r0
 8004bd6:	2b00      	cmp	r3, #0
 8004bd8:	d020      	beq.n	8004c1c <SPI_EndRxTxTransaction+0x6e>
 8004bda:	68fb      	ldr	r3, [r7, #12]
 8004bdc:	6d5b      	ldr	r3, [r3, #84]	; 0x54
 8004bde:	f043 0220 	orr.w	r2, r3, #32
 8004be2:	68fb      	ldr	r3, [r7, #12]
 8004be4:	655a      	str	r2, [r3, #84]	; 0x54
 8004be6:	2303      	movs	r3, #3
 8004be8:	e019      	b.n	8004c1e <SPI_EndRxTxTransaction+0x70>
 8004bea:	68fb      	ldr	r3, [r7, #12]
 8004bec:	f893 3051 	ldrb.w	r3, [r3, #81]	; 0x51
 8004bf0:	b2db      	uxtb	r3, r3
 8004bf2:	2b05      	cmp	r3, #5
 8004bf4:	d112      	bne.n	8004c1c <SPI_EndRxTxTransaction+0x6e>
 8004bf6:	687b      	ldr	r3, [r7, #4]
 8004bf8:	9300      	str	r3, [sp, #0]
 8004bfa:	68bb      	ldr	r3, [r7, #8]
 8004bfc:	2200      	movs	r2, #0
 8004bfe:	2101      	movs	r1, #1
 8004c00:	68f8      	ldr	r0, [r7, #12]
 8004c02:	f7ff ff05 	bl	8004a10 <SPI_WaitFlagStateUntilTimeout>
 8004c06:	4603      	mov	r3, r0
 8004c08:	2b00      	cmp	r3, #0
 8004c0a:	d007      	beq.n	8004c1c <SPI_EndRxTxTransaction+0x6e>
 8004c0c:	68fb      	ldr	r3, [r7, #12]
 8004c0e:	6d5b      	ldr	r3, [r3, #84]	; 0x54
 8004c10:	f043 0220 	orr.w	r2, r3, #32
 8004c14:	68fb      	ldr	r3, [r7, #12]
 8004c16:	655a      	str	r2, [r3, #84]	; 0x54
 8004c18:	2303      	movs	r3, #3
 8004c1a:	e000      	b.n	8004c1e <SPI_EndRxTxTransaction+0x70>
 8004c1c:	2300      	movs	r3, #0
 8004c1e:	4618      	mov	r0, r3
 8004c20:	3710      	adds	r7, #16
 8004c22:	46bd      	mov	sp, r7
 8004c24:	bd80      	pop	{r7, pc}

08004c26 <HAL_TIM_Base_Init>:
 8004c26:	b580      	push	{r7, lr}
 8004c28:	b082      	sub	sp, #8
 8004c2a:	af00      	add	r7, sp, #0
 8004c2c:	6078      	str	r0, [r7, #4]
 8004c2e:	687b      	ldr	r3, [r7, #4]
 8004c30:	2b00      	cmp	r3, #0
 8004c32:	d101      	bne.n	8004c38 <HAL_TIM_Base_Init+0x12>
 8004c34:	2301      	movs	r3, #1
 8004c36:	e01d      	b.n	8004c74 <HAL_TIM_Base_Init+0x4e>
 8004c38:	687b      	ldr	r3, [r7, #4]
 8004c3a:	f893 3039 	ldrb.w	r3, [r3, #57]	; 0x39
 8004c3e:	b2db      	uxtb	r3, r3
 8004c40:	2b00      	cmp	r3, #0
 8004c42:	d106      	bne.n	8004c52 <HAL_TIM_Base_Init+0x2c>
 8004c44:	687b      	ldr	r3, [r7, #4]
 8004c46:	2200      	movs	r2, #0
 8004c48:	f883 2038 	strb.w	r2, [r3, #56]	; 0x38
 8004c4c:	6878      	ldr	r0, [r7, #4]
 8004c4e:	f7fc fdff 	bl	8001850 <HAL_TIM_Base_MspInit>
 8004c52:	687b      	ldr	r3, [r7, #4]
 8004c54:	2202      	movs	r2, #2
 8004c56:	f883 2039 	strb.w	r2, [r3, #57]	; 0x39
 8004c5a:	687b      	ldr	r3, [r7, #4]
 8004c5c:	681a      	ldr	r2, [r3, #0]
 8004c5e:	687b      	ldr	r3, [r7, #4]
 8004c60:	3304      	adds	r3, #4
 8004c62:	4619      	mov	r1, r3
 8004c64:	4610      	mov	r0, r2
 8004c66:	f000 f9ef 	bl	8005048 <TIM_Base_SetConfig>
 8004c6a:	687b      	ldr	r3, [r7, #4]
 8004c6c:	2201      	movs	r2, #1
 8004c6e:	f883 2039 	strb.w	r2, [r3, #57]	; 0x39
 8004c72:	2300      	movs	r3, #0
 8004c74:	4618      	mov	r0, r3
 8004c76:	3708      	adds	r7, #8
 8004c78:	46bd      	mov	sp, r7
 8004c7a:	bd80      	pop	{r7, pc}

08004c7c <HAL_TIM_Base_Stop_IT>:
 8004c7c:	b480      	push	{r7}
 8004c7e:	b083      	sub	sp, #12
 8004c80:	af00      	add	r7, sp, #0
 8004c82:	6078      	str	r0, [r7, #4]
 8004c84:	687b      	ldr	r3, [r7, #4]
 8004c86:	681b      	ldr	r3, [r3, #0]
 8004c88:	68da      	ldr	r2, [r3, #12]
 8004c8a:	687b      	ldr	r3, [r7, #4]
 8004c8c:	681b      	ldr	r3, [r3, #0]
 8004c8e:	f022 0201 	bic.w	r2, r2, #1
 8004c92:	60da      	str	r2, [r3, #12]
 8004c94:	687b      	ldr	r3, [r7, #4]
 8004c96:	681b      	ldr	r3, [r3, #0]
 8004c98:	6a1a      	ldr	r2, [r3, #32]
 8004c9a:	f241 1311 	movw	r3, #4369	; 0x1111
 8004c9e:	4013      	ands	r3, r2
 8004ca0:	2b00      	cmp	r3, #0
 8004ca2:	d107      	bne.n	8004cb4 <HAL_TIM_Base_Stop_IT+0x38>
 8004ca4:	687b      	ldr	r3, [r7, #4]
 8004ca6:	681b      	ldr	r3, [r3, #0]
 8004ca8:	681a      	ldr	r2, [r3, #0]
 8004caa:	687b      	ldr	r3, [r7, #4]
 8004cac:	681b      	ldr	r3, [r3, #0]
 8004cae:	f022 0201 	bic.w	r2, r2, #1
 8004cb2:	601a      	str	r2, [r3, #0]
 8004cb4:	2300      	movs	r3, #0
 8004cb6:	4618      	mov	r0, r3
 8004cb8:	370c      	adds	r7, #12
 8004cba:	46bd      	mov	sp, r7
 8004cbc:	bc80      	pop	{r7}
 8004cbe:	4770      	bx	lr

08004cc0 <HAL_TIM_IRQHandler>:
 8004cc0:	b580      	push	{r7, lr}
 8004cc2:	b082      	sub	sp, #8
 8004cc4:	af00      	add	r7, sp, #0
 8004cc6:	6078      	str	r0, [r7, #4]
 8004cc8:	687b      	ldr	r3, [r7, #4]
 8004cca:	681b      	ldr	r3, [r3, #0]
 8004ccc:	691b      	ldr	r3, [r3, #16]
 8004cce:	f003 0302 	and.w	r3, r3, #2
 8004cd2:	2b02      	cmp	r3, #2
 8004cd4:	d122      	bne.n	8004d1c <HAL_TIM_IRQHandler+0x5c>
 8004cd6:	687b      	ldr	r3, [r7, #4]
 8004cd8:	681b      	ldr	r3, [r3, #0]
 8004cda:	68db      	ldr	r3, [r3, #12]
 8004cdc:	f003 0302 	and.w	r3, r3, #2
 8004ce0:	2b02      	cmp	r3, #2
 8004ce2:	d11b      	bne.n	8004d1c <HAL_TIM_IRQHandler+0x5c>
 8004ce4:	687b      	ldr	r3, [r7, #4]
 8004ce6:	681b      	ldr	r3, [r3, #0]
 8004ce8:	f06f 0202 	mvn.w	r2, #2
 8004cec:	611a      	str	r2, [r3, #16]
 8004cee:	687b      	ldr	r3, [r7, #4]
 8004cf0:	2201      	movs	r2, #1
 8004cf2:	761a      	strb	r2, [r3, #24]
 8004cf4:	687b      	ldr	r3, [r7, #4]
 8004cf6:	681b      	ldr	r3, [r3, #0]
 8004cf8:	699b      	ldr	r3, [r3, #24]
 8004cfa:	f003 0303 	and.w	r3, r3, #3
 8004cfe:	2b00      	cmp	r3, #0
 8004d00:	d003      	beq.n	8004d0a <HAL_TIM_IRQHandler+0x4a>
 8004d02:	6878      	ldr	r0, [r7, #4]
 8004d04:	f000 f985 	bl	8005012 <HAL_TIM_IC_CaptureCallback>
 8004d08:	e005      	b.n	8004d16 <HAL_TIM_IRQHandler+0x56>
 8004d0a:	6878      	ldr	r0, [r7, #4]
 8004d0c:	f000 f978 	bl	8005000 <HAL_TIM_OC_DelayElapsedCallback>
 8004d10:	6878      	ldr	r0, [r7, #4]
 8004d12:	f000 f987 	bl	8005024 <HAL_TIM_PWM_PulseFinishedCallback>
 8004d16:	687b      	ldr	r3, [r7, #4]
 8004d18:	2200      	movs	r2, #0
 8004d1a:	761a      	strb	r2, [r3, #24]
 8004d1c:	687b      	ldr	r3, [r7, #4]
 8004d1e:	681b      	ldr	r3, [r3, #0]
 8004d20:	691b      	ldr	r3, [r3, #16]
 8004d22:	f003 0304 	and.w	r3, r3, #4
 8004d26:	2b04      	cmp	r3, #4
 8004d28:	d122      	bne.n	8004d70 <HAL_TIM_IRQHandler+0xb0>
 8004d2a:	687b      	ldr	r3, [r7, #4]
 8004d2c:	681b      	ldr	r3, [r3, #0]
 8004d2e:	68db      	ldr	r3, [r3, #12]
 8004d30:	f003 0304 	and.w	r3, r3, #4
 8004d34:	2b04      	cmp	r3, #4
 8004d36:	d11b      	bne.n	8004d70 <HAL_TIM_IRQHandler+0xb0>
 8004d38:	687b      	ldr	r3, [r7, #4]
 8004d3a:	681b      	ldr	r3, [r3, #0]
 8004d3c:	f06f 0204 	mvn.w	r2, #4
 8004d40:	611a      	str	r2, [r3, #16]
 8004d42:	687b      	ldr	r3, [r7, #4]
 8004d44:	2202      	movs	r2, #2
 8004d46:	761a      	strb	r2, [r3, #24]
 8004d48:	687b      	ldr	r3, [r7, #4]
 8004d4a:	681b      	ldr	r3, [r3, #0]
 8004d4c:	699b      	ldr	r3, [r3, #24]
 8004d4e:	f403 7340 	and.w	r3, r3, #768	; 0x300
 8004d52:	2b00      	cmp	r3, #0
 8004d54:	d003      	beq.n	8004d5e <HAL_TIM_IRQHandler+0x9e>
 8004d56:	6878      	ldr	r0, [r7, #4]
 8004d58:	f000 f95b 	bl	8005012 <HAL_TIM_IC_CaptureCallback>
 8004d5c:	e005      	b.n	8004d6a <HAL_TIM_IRQHandler+0xaa>
 8004d5e:	6878      	ldr	r0, [r7, #4]
 8004d60:	f000 f94e 	bl	8005000 <HAL_TIM_OC_DelayElapsedCallback>
 8004d64:	6878      	ldr	r0, [r7, #4]
 8004d66:	f000 f95d 	bl	8005024 <HAL_TIM_PWM_PulseFinishedCallback>
 8004d6a:	687b      	ldr	r3, [r7, #4]
 8004d6c:	2200      	movs	r2, #0
 8004d6e:	761a      	strb	r2, [r3, #24]
 8004d70:	687b      	ldr	r3, [r7, #4]
 8004d72:	681b      	ldr	r3, [r3, #0]
 8004d74:	691b      	ldr	r3, [r3, #16]
 8004d76:	f003 0308 	and.w	r3, r3, #8
 8004d7a:	2b08      	cmp	r3, #8
 8004d7c:	d122      	bne.n	8004dc4 <HAL_TIM_IRQHandler+0x104>
 8004d7e:	687b      	ldr	r3, [r7, #4]
 8004d80:	681b      	ldr	r3, [r3, #0]
 8004d82:	68db      	ldr	r3, [r3, #12]
 8004d84:	f003 0308 	and.w	r3, r3, #8
 8004d88:	2b08      	cmp	r3, #8
 8004d8a:	d11b      	bne.n	8004dc4 <HAL_TIM_IRQHandler+0x104>
 8004d8c:	687b      	ldr	r3, [r7, #4]
 8004d8e:	681b      	ldr	r3, [r3, #0]
 8004d90:	f06f 0208 	mvn.w	r2, #8
 8004d94:	611a      	str	r2, [r3, #16]
 8004d96:	687b      	ldr	r3, [r7, #4]
 8004d98:	2204      	movs	r2, #4
 8004d9a:	761a      	strb	r2, [r3, #24]
 8004d9c:	687b      	ldr	r3, [r7, #4]
 8004d9e:	681b      	ldr	r3, [r3, #0]
 8004da0:	69db      	ldr	r3, [r3, #28]
 8004da2:	f003 0303 	and.w	r3, r3, #3
 8004da6:	2b00      	cmp	r3, #0
 8004da8:	d003      	beq.n	8004db2 <HAL_TIM_IRQHandler+0xf2>
 8004daa:	6878      	ldr	r0, [r7, #4]
 8004dac:	f000 f931 	bl	8005012 <HAL_TIM_IC_CaptureCallback>
 8004db0:	e005      	b.n	8004dbe <HAL_TIM_IRQHandler+0xfe>
 8004db2:	6878      	ldr	r0, [r7, #4]
 8004db4:	f000 f924 	bl	8005000 <HAL_TIM_OC_DelayElapsedCallback>
 8004db8:	6878      	ldr	r0, [r7, #4]
 8004dba:	f000 f933 	bl	8005024 <HAL_TIM_PWM_PulseFinishedCallback>
 8004dbe:	687b      	ldr	r3, [r7, #4]
 8004dc0:	2200      	movs	r2, #0
 8004dc2:	761a      	strb	r2, [r3, #24]
 8004dc4:	687b      	ldr	r3, [r7, #4]
 8004dc6:	681b      	ldr	r3, [r3, #0]
 8004dc8:	691b      	ldr	r3, [r3, #16]
 8004dca:	f003 0310 	and.w	r3, r3, #16
 8004dce:	2b10      	cmp	r3, #16
 8004dd0:	d122      	bne.n	8004e18 <HAL_TIM_IRQHandler+0x158>
 8004dd2:	687b      	ldr	r3, [r7, #4]
 8004dd4:	681b      	ldr	r3, [r3, #0]
 8004dd6:	68db      	ldr	r3, [r3, #12]
 8004dd8:	f003 0310 	and.w	r3, r3, #16
 8004ddc:	2b10      	cmp	r3, #16
 8004dde:	d11b      	bne.n	8004e18 <HAL_TIM_IRQHandler+0x158>
 8004de0:	687b      	ldr	r3, [r7, #4]
 8004de2:	681b      	ldr	r3, [r3, #0]
 8004de4:	f06f 0210 	mvn.w	r2, #16
 8004de8:	611a      	str	r2, [r3, #16]
 8004dea:	687b      	ldr	r3, [r7, #4]
 8004dec:	2208      	movs	r2, #8
 8004dee:	761a      	strb	r2, [r3, #24]
 8004df0:	687b      	ldr	r3, [r7, #4]
 8004df2:	681b      	ldr	r3, [r3, #0]
 8004df4:	69db      	ldr	r3, [r3, #28]
 8004df6:	f403 7340 	and.w	r3, r3, #768	; 0x300
 8004dfa:	2b00      	cmp	r3, #0
 8004dfc:	d003      	beq.n	8004e06 <HAL_TIM_IRQHandler+0x146>
 8004dfe:	6878      	ldr	r0, [r7, #4]
 8004e00:	f000 f907 	bl	8005012 <HAL_TIM_IC_CaptureCallback>
 8004e04:	e005      	b.n	8004e12 <HAL_TIM_IRQHandler+0x152>
 8004e06:	6878      	ldr	r0, [r7, #4]
 8004e08:	f000 f8fa 	bl	8005000 <HAL_TIM_OC_DelayElapsedCallback>
 8004e0c:	6878      	ldr	r0, [r7, #4]
 8004e0e:	f000 f909 	bl	8005024 <HAL_TIM_PWM_PulseFinishedCallback>
 8004e12:	687b      	ldr	r3, [r7, #4]
 8004e14:	2200      	movs	r2, #0
 8004e16:	761a      	strb	r2, [r3, #24]
 8004e18:	687b      	ldr	r3, [r7, #4]
 8004e1a:	681b      	ldr	r3, [r3, #0]
 8004e1c:	691b      	ldr	r3, [r3, #16]
 8004e1e:	f003 0301 	and.w	r3, r3, #1
 8004e22:	2b01      	cmp	r3, #1
 8004e24:	d10e      	bne.n	8004e44 <HAL_TIM_IRQHandler+0x184>
 8004e26:	687b      	ldr	r3, [r7, #4]
 8004e28:	681b      	ldr	r3, [r3, #0]
 8004e2a:	68db      	ldr	r3, [r3, #12]
 8004e2c:	f003 0301 	and.w	r3, r3, #1
 8004e30:	2b01      	cmp	r3, #1
 8004e32:	d107      	bne.n	8004e44 <HAL_TIM_IRQHandler+0x184>
 8004e34:	687b      	ldr	r3, [r7, #4]
 8004e36:	681b      	ldr	r3, [r3, #0]
 8004e38:	f06f 0201 	mvn.w	r2, #1
 8004e3c:	611a      	str	r2, [r3, #16]
 8004e3e:	6878      	ldr	r0, [r7, #4]
 8004e40:	f7fc faa4 	bl	800138c <HAL_TIM_PeriodElapsedCallback>
 8004e44:	687b      	ldr	r3, [r7, #4]
 8004e46:	681b      	ldr	r3, [r3, #0]
 8004e48:	691b      	ldr	r3, [r3, #16]
 8004e4a:	f003 0340 	and.w	r3, r3, #64	; 0x40
 8004e4e:	2b40      	cmp	r3, #64	; 0x40
 8004e50:	d10e      	bne.n	8004e70 <HAL_TIM_IRQHandler+0x1b0>
 8004e52:	687b      	ldr	r3, [r7, #4]
 8004e54:	681b      	ldr	r3, [r3, #0]
 8004e56:	68db      	ldr	r3, [r3, #12]
 8004e58:	f003 0340 	and.w	r3, r3, #64	; 0x40
 8004e5c:	2b40      	cmp	r3, #64	; 0x40
 8004e5e:	d107      	bne.n	8004e70 <HAL_TIM_IRQHandler+0x1b0>
 8004e60:	687b      	ldr	r3, [r7, #4]
 8004e62:	681b      	ldr	r3, [r3, #0]
 8004e64:	f06f 0240 	mvn.w	r2, #64	; 0x40
 8004e68:	611a      	str	r2, [r3, #16]
 8004e6a:	6878      	ldr	r0, [r7, #4]
 8004e6c:	f000 f8e3 	bl	8005036 <HAL_TIM_TriggerCallback>
 8004e70:	bf00      	nop
 8004e72:	3708      	adds	r7, #8
 8004e74:	46bd      	mov	sp, r7
 8004e76:	bd80      	pop	{r7, pc}

08004e78 <HAL_TIM_ConfigClockSource>:
 8004e78:	b580      	push	{r7, lr}
 8004e7a:	b084      	sub	sp, #16
 8004e7c:	af00      	add	r7, sp, #0
 8004e7e:	6078      	str	r0, [r7, #4]
 8004e80:	6039      	str	r1, [r7, #0]
 8004e82:	687b      	ldr	r3, [r7, #4]
 8004e84:	f893 3038 	ldrb.w	r3, [r3, #56]	; 0x38
 8004e88:	2b01      	cmp	r3, #1
 8004e8a:	d101      	bne.n	8004e90 <HAL_TIM_ConfigClockSource+0x18>
 8004e8c:	2302      	movs	r3, #2
 8004e8e:	e0b3      	b.n	8004ff8 <HAL_TIM_ConfigClockSource+0x180>
 8004e90:	687b      	ldr	r3, [r7, #4]
 8004e92:	2201      	movs	r2, #1
 8004e94:	f883 2038 	strb.w	r2, [r3, #56]	; 0x38
 8004e98:	687b      	ldr	r3, [r7, #4]
 8004e9a:	2202      	movs	r2, #2
 8004e9c:	f883 2039 	strb.w	r2, [r3, #57]	; 0x39
 8004ea0:	687b      	ldr	r3, [r7, #4]
 8004ea2:	681b      	ldr	r3, [r3, #0]
 8004ea4:	689b      	ldr	r3, [r3, #8]
 8004ea6:	60fb      	str	r3, [r7, #12]
 8004ea8:	68fb      	ldr	r3, [r7, #12]
 8004eaa:	f023 0377 	bic.w	r3, r3, #119	; 0x77
 8004eae:	60fb      	str	r3, [r7, #12]
 8004eb0:	68fb      	ldr	r3, [r7, #12]
 8004eb2:	f423 437f 	bic.w	r3, r3, #65280	; 0xff00
 8004eb6:	60fb      	str	r3, [r7, #12]
 8004eb8:	687b      	ldr	r3, [r7, #4]
 8004eba:	681b      	ldr	r3, [r3, #0]
 8004ebc:	68fa      	ldr	r2, [r7, #12]
 8004ebe:	609a      	str	r2, [r3, #8]
 8004ec0:	683b      	ldr	r3, [r7, #0]
 8004ec2:	681b      	ldr	r3, [r3, #0]
 8004ec4:	f5b3 5f00 	cmp.w	r3, #8192	; 0x2000
 8004ec8:	d03e      	beq.n	8004f48 <HAL_TIM_ConfigClockSource+0xd0>
 8004eca:	f5b3 5f00 	cmp.w	r3, #8192	; 0x2000
 8004ece:	f200 8087 	bhi.w	8004fe0 <HAL_TIM_ConfigClockSource+0x168>
 8004ed2:	f5b3 5f80 	cmp.w	r3, #4096	; 0x1000
 8004ed6:	f000 8085 	beq.w	8004fe4 <HAL_TIM_ConfigClockSource+0x16c>
 8004eda:	f5b3 5f80 	cmp.w	r3, #4096	; 0x1000
 8004ede:	d87f      	bhi.n	8004fe0 <HAL_TIM_ConfigClockSource+0x168>
 8004ee0:	2b70      	cmp	r3, #112	; 0x70
 8004ee2:	d01a      	beq.n	8004f1a <HAL_TIM_ConfigClockSource+0xa2>
 8004ee4:	2b70      	cmp	r3, #112	; 0x70
 8004ee6:	d87b      	bhi.n	8004fe0 <HAL_TIM_ConfigClockSource+0x168>
 8004ee8:	2b60      	cmp	r3, #96	; 0x60
 8004eea:	d050      	beq.n	8004f8e <HAL_TIM_ConfigClockSource+0x116>
 8004eec:	2b60      	cmp	r3, #96	; 0x60
 8004eee:	d877      	bhi.n	8004fe0 <HAL_TIM_ConfigClockSource+0x168>
 8004ef0:	2b50      	cmp	r3, #80	; 0x50
 8004ef2:	d03c      	beq.n	8004f6e <HAL_TIM_ConfigClockSource+0xf6>
 8004ef4:	2b50      	cmp	r3, #80	; 0x50
 8004ef6:	d873      	bhi.n	8004fe0 <HAL_TIM_ConfigClockSource+0x168>
 8004ef8:	2b40      	cmp	r3, #64	; 0x40
 8004efa:	d058      	beq.n	8004fae <HAL_TIM_ConfigClockSource+0x136>
 8004efc:	2b40      	cmp	r3, #64	; 0x40
 8004efe:	d86f      	bhi.n	8004fe0 <HAL_TIM_ConfigClockSource+0x168>
 8004f00:	2b30      	cmp	r3, #48	; 0x30
 8004f02:	d064      	beq.n	8004fce <HAL_TIM_ConfigClockSource+0x156>
 8004f04:	2b30      	cmp	r3, #48	; 0x30
 8004f06:	d86b      	bhi.n	8004fe0 <HAL_TIM_ConfigClockSource+0x168>
 8004f08:	2b20      	cmp	r3, #32
 8004f0a:	d060      	beq.n	8004fce <HAL_TIM_ConfigClockSource+0x156>
 8004f0c:	2b20      	cmp	r3, #32
 8004f0e:	d867      	bhi.n	8004fe0 <HAL_TIM_ConfigClockSource+0x168>
 8004f10:	2b00      	cmp	r3, #0
 8004f12:	d05c      	beq.n	8004fce <HAL_TIM_ConfigClockSource+0x156>
 8004f14:	2b10      	cmp	r3, #16
 8004f16:	d05a      	beq.n	8004fce <HAL_TIM_ConfigClockSource+0x156>
 8004f18:	e062      	b.n	8004fe0 <HAL_TIM_ConfigClockSource+0x168>
 8004f1a:	687b      	ldr	r3, [r7, #4]
 8004f1c:	6818      	ldr	r0, [r3, #0]
 8004f1e:	683b      	ldr	r3, [r7, #0]
 8004f20:	6899      	ldr	r1, [r3, #8]
 8004f22:	683b      	ldr	r3, [r7, #0]
 8004f24:	685a      	ldr	r2, [r3, #4]
 8004f26:	683b      	ldr	r3, [r7, #0]
 8004f28:	68db      	ldr	r3, [r3, #12]
 8004f2a:	f000 f974 	bl	8005216 <TIM_ETR_SetConfig>
 8004f2e:	687b      	ldr	r3, [r7, #4]
 8004f30:	681b      	ldr	r3, [r3, #0]
 8004f32:	689b      	ldr	r3, [r3, #8]
 8004f34:	60fb      	str	r3, [r7, #12]
 8004f36:	68fb      	ldr	r3, [r7, #12]
 8004f38:	f043 0377 	orr.w	r3, r3, #119	; 0x77
 8004f3c:	60fb      	str	r3, [r7, #12]
 8004f3e:	687b      	ldr	r3, [r7, #4]
 8004f40:	681b      	ldr	r3, [r3, #0]
 8004f42:	68fa      	ldr	r2, [r7, #12]
 8004f44:	609a      	str	r2, [r3, #8]
 8004f46:	e04e      	b.n	8004fe6 <HAL_TIM_ConfigClockSource+0x16e>
 8004f48:	687b      	ldr	r3, [r7, #4]
 8004f4a:	6818      	ldr	r0, [r3, #0]
 8004f4c:	683b      	ldr	r3, [r7, #0]
 8004f4e:	6899      	ldr	r1, [r3, #8]
 8004f50:	683b      	ldr	r3, [r7, #0]
 8004f52:	685a      	ldr	r2, [r3, #4]
 8004f54:	683b      	ldr	r3, [r7, #0]
 8004f56:	68db      	ldr	r3, [r3, #12]
 8004f58:	f000 f95d 	bl	8005216 <TIM_ETR_SetConfig>
 8004f5c:	687b      	ldr	r3, [r7, #4]
 8004f5e:	681b      	ldr	r3, [r3, #0]
 8004f60:	689a      	ldr	r2, [r3, #8]
 8004f62:	687b      	ldr	r3, [r7, #4]
 8004f64:	681b      	ldr	r3, [r3, #0]
 8004f66:	f442 4280 	orr.w	r2, r2, #16384	; 0x4000
 8004f6a:	609a      	str	r2, [r3, #8]
 8004f6c:	e03b      	b.n	8004fe6 <HAL_TIM_ConfigClockSource+0x16e>
 8004f6e:	687b      	ldr	r3, [r7, #4]
 8004f70:	6818      	ldr	r0, [r3, #0]
 8004f72:	683b      	ldr	r3, [r7, #0]
 8004f74:	6859      	ldr	r1, [r3, #4]
 8004f76:	683b      	ldr	r3, [r7, #0]
 8004f78:	68db      	ldr	r3, [r3, #12]
 8004f7a:	461a      	mov	r2, r3
 8004f7c:	f000 f8d4 	bl	8005128 <TIM_TI1_ConfigInputStage>
 8004f80:	687b      	ldr	r3, [r7, #4]
 8004f82:	681b      	ldr	r3, [r3, #0]
 8004f84:	2150      	movs	r1, #80	; 0x50
 8004f86:	4618      	mov	r0, r3
 8004f88:	f000 f92b 	bl	80051e2 <TIM_ITRx_SetConfig>
 8004f8c:	e02b      	b.n	8004fe6 <HAL_TIM_ConfigClockSource+0x16e>
 8004f8e:	687b      	ldr	r3, [r7, #4]
 8004f90:	6818      	ldr	r0, [r3, #0]
 8004f92:	683b      	ldr	r3, [r7, #0]
 8004f94:	6859      	ldr	r1, [r3, #4]
 8004f96:	683b      	ldr	r3, [r7, #0]
 8004f98:	68db      	ldr	r3, [r3, #12]
 8004f9a:	461a      	mov	r2, r3
 8004f9c:	f000 f8f2 	bl	8005184 <TIM_TI2_ConfigInputStage>
 8004fa0:	687b      	ldr	r3, [r7, #4]
 8004fa2:	681b      	ldr	r3, [r3, #0]
 8004fa4:	2160      	movs	r1, #96	; 0x60
 8004fa6:	4618      	mov	r0, r3
 8004fa8:	f000 f91b 	bl	80051e2 <TIM_ITRx_SetConfig>
 8004fac:	e01b      	b.n	8004fe6 <HAL_TIM_ConfigClockSource+0x16e>
 8004fae:	687b      	ldr	r3, [r7, #4]
 8004fb0:	6818      	ldr	r0, [r3, #0]
 8004fb2:	683b      	ldr	r3, [r7, #0]
 8004fb4:	6859      	ldr	r1, [r3, #4]
 8004fb6:	683b      	ldr	r3, [r7, #0]
 8004fb8:	68db      	ldr	r3, [r3, #12]
 8004fba:	461a      	mov	r2, r3
 8004fbc:	f000 f8b4 	bl	8005128 <TIM_TI1_ConfigInputStage>
 8004fc0:	687b      	ldr	r3, [r7, #4]
 8004fc2:	681b      	ldr	r3, [r3, #0]
 8004fc4:	2140      	movs	r1, #64	; 0x40
 8004fc6:	4618      	mov	r0, r3
 8004fc8:	f000 f90b 	bl	80051e2 <TIM_ITRx_SetConfig>
 8004fcc:	e00b      	b.n	8004fe6 <HAL_TIM_ConfigClockSource+0x16e>
 8004fce:	687b      	ldr	r3, [r7, #4]
 8004fd0:	681a      	ldr	r2, [r3, #0]
 8004fd2:	683b      	ldr	r3, [r7, #0]
 8004fd4:	681b      	ldr	r3, [r3, #0]
 8004fd6:	4619      	mov	r1, r3
 8004fd8:	4610      	mov	r0, r2
 8004fda:	f000 f902 	bl	80051e2 <TIM_ITRx_SetConfig>
 8004fde:	e002      	b.n	8004fe6 <HAL_TIM_ConfigClockSource+0x16e>
 8004fe0:	bf00      	nop
 8004fe2:	e000      	b.n	8004fe6 <HAL_TIM_ConfigClockSource+0x16e>
 8004fe4:	bf00      	nop
 8004fe6:	687b      	ldr	r3, [r7, #4]
 8004fe8:	2201      	movs	r2, #1
 8004fea:	f883 2039 	strb.w	r2, [r3, #57]	; 0x39
 8004fee:	687b      	ldr	r3, [r7, #4]
 8004ff0:	2200      	movs	r2, #0
 8004ff2:	f883 2038 	strb.w	r2, [r3, #56]	; 0x38
 8004ff6:	2300      	movs	r3, #0
 8004ff8:	4618      	mov	r0, r3
 8004ffa:	3710      	adds	r7, #16
 8004ffc:	46bd      	mov	sp, r7
 8004ffe:	bd80      	pop	{r7, pc}

08005000 <HAL_TIM_OC_DelayElapsedCallback>:
 8005000:	b480      	push	{r7}
 8005002:	b083      	sub	sp, #12
 8005004:	af00      	add	r7, sp, #0
 8005006:	6078      	str	r0, [r7, #4]
 8005008:	bf00      	nop
 800500a:	370c      	adds	r7, #12
 800500c:	46bd      	mov	sp, r7
 800500e:	bc80      	pop	{r7}
 8005010:	4770      	bx	lr

08005012 <HAL_TIM_IC_CaptureCallback>:
 8005012:	b480      	push	{r7}
 8005014:	b083      	sub	sp, #12
 8005016:	af00      	add	r7, sp, #0
 8005018:	6078      	str	r0, [r7, #4]
 800501a:	bf00      	nop
 800501c:	370c      	adds	r7, #12
 800501e:	46bd      	mov	sp, r7
 8005020:	bc80      	pop	{r7}
 8005022:	4770      	bx	lr

08005024 <HAL_TIM_PWM_PulseFinishedCallback>:
 8005024:	b480      	push	{r7}
 8005026:	b083      	sub	sp, #12
 8005028:	af00      	add	r7, sp, #0
 800502a:	6078      	str	r0, [r7, #4]
 800502c:	bf00      	nop
 800502e:	370c      	adds	r7, #12
 8005030:	46bd      	mov	sp, r7
 8005032:	bc80      	pop	{r7}
 8005034:	4770      	bx	lr

08005036 <HAL_TIM_TriggerCallback>:
 8005036:	b480      	push	{r7}
 8005038:	b083      	sub	sp, #12
 800503a:	af00      	add	r7, sp, #0
 800503c:	6078      	str	r0, [r7, #4]
 800503e:	bf00      	nop
 8005040:	370c      	adds	r7, #12
 8005042:	46bd      	mov	sp, r7
 8005044:	bc80      	pop	{r7}
 8005046:	4770      	bx	lr

08005048 <TIM_Base_SetConfig>:
 8005048:	b480      	push	{r7}
 800504a:	b085      	sub	sp, #20
 800504c:	af00      	add	r7, sp, #0
 800504e:	6078      	str	r0, [r7, #4]
 8005050:	6039      	str	r1, [r7, #0]
 8005052:	687b      	ldr	r3, [r7, #4]
 8005054:	681b      	ldr	r3, [r3, #0]
 8005056:	60fb      	str	r3, [r7, #12]
 8005058:	687b      	ldr	r3, [r7, #4]
 800505a:	f1b3 4f80 	cmp.w	r3, #1073741824	; 0x40000000
 800505e:	d00f      	beq.n	8005080 <TIM_Base_SetConfig+0x38>
 8005060:	687b      	ldr	r3, [r7, #4]
 8005062:	4a2b      	ldr	r2, [pc, #172]	; (8005110 <TIM_Base_SetConfig+0xc8>)
 8005064:	4293      	cmp	r3, r2
 8005066:	d00b      	beq.n	8005080 <TIM_Base_SetConfig+0x38>
 8005068:	687b      	ldr	r3, [r7, #4]
 800506a:	4a2a      	ldr	r2, [pc, #168]	; (8005114 <TIM_Base_SetConfig+0xcc>)
 800506c:	4293      	cmp	r3, r2
 800506e:	d007      	beq.n	8005080 <TIM_Base_SetConfig+0x38>
 8005070:	687b      	ldr	r3, [r7, #4]
 8005072:	4a29      	ldr	r2, [pc, #164]	; (8005118 <TIM_Base_SetConfig+0xd0>)
 8005074:	4293      	cmp	r3, r2
 8005076:	d003      	beq.n	8005080 <TIM_Base_SetConfig+0x38>
 8005078:	687b      	ldr	r3, [r7, #4]
 800507a:	4a28      	ldr	r2, [pc, #160]	; (800511c <TIM_Base_SetConfig+0xd4>)
 800507c:	4293      	cmp	r3, r2
 800507e:	d108      	bne.n	8005092 <TIM_Base_SetConfig+0x4a>
 8005080:	68fb      	ldr	r3, [r7, #12]
 8005082:	f023 0370 	bic.w	r3, r3, #112	; 0x70
 8005086:	60fb      	str	r3, [r7, #12]
 8005088:	683b      	ldr	r3, [r7, #0]
 800508a:	685b      	ldr	r3, [r3, #4]
 800508c:	68fa      	ldr	r2, [r7, #12]
 800508e:	4313      	orrs	r3, r2
 8005090:	60fb      	str	r3, [r7, #12]
 8005092:	687b      	ldr	r3, [r7, #4]
 8005094:	f1b3 4f80 	cmp.w	r3, #1073741824	; 0x40000000
 8005098:	d017      	beq.n	80050ca <TIM_Base_SetConfig+0x82>
 800509a:	687b      	ldr	r3, [r7, #4]
 800509c:	4a1c      	ldr	r2, [pc, #112]	; (8005110 <TIM_Base_SetConfig+0xc8>)
 800509e:	4293      	cmp	r3, r2
 80050a0:	d013      	beq.n	80050ca <TIM_Base_SetConfig+0x82>
 80050a2:	687b      	ldr	r3, [r7, #4]
 80050a4:	4a1b      	ldr	r2, [pc, #108]	; (8005114 <TIM_Base_SetConfig+0xcc>)
 80050a6:	4293      	cmp	r3, r2
 80050a8:	d00f      	beq.n	80050ca <TIM_Base_SetConfig+0x82>
 80050aa:	687b      	ldr	r3, [r7, #4]
 80050ac:	4a1a      	ldr	r2, [pc, #104]	; (8005118 <TIM_Base_SetConfig+0xd0>)
 80050ae:	4293      	cmp	r3, r2
 80050b0:	d00b      	beq.n	80050ca <TIM_Base_SetConfig+0x82>
 80050b2:	687b      	ldr	r3, [r7, #4]
 80050b4:	4a19      	ldr	r2, [pc, #100]	; (800511c <TIM_Base_SetConfig+0xd4>)
 80050b6:	4293      	cmp	r3, r2
 80050b8:	d007      	beq.n	80050ca <TIM_Base_SetConfig+0x82>
 80050ba:	687b      	ldr	r3, [r7, #4]
 80050bc:	4a18      	ldr	r2, [pc, #96]	; (8005120 <TIM_Base_SetConfig+0xd8>)
 80050be:	4293      	cmp	r3, r2
 80050c0:	d003      	beq.n	80050ca <TIM_Base_SetConfig+0x82>
 80050c2:	687b      	ldr	r3, [r7, #4]
 80050c4:	4a17      	ldr	r2, [pc, #92]	; (8005124 <TIM_Base_SetConfig+0xdc>)
 80050c6:	4293      	cmp	r3, r2
 80050c8:	d108      	bne.n	80050dc <TIM_Base_SetConfig+0x94>
 80050ca:	68fb      	ldr	r3, [r7, #12]
 80050cc:	f423 7340 	bic.w	r3, r3, #768	; 0x300
 80050d0:	60fb      	str	r3, [r7, #12]
 80050d2:	683b      	ldr	r3, [r7, #0]
 80050d4:	68db      	ldr	r3, [r3, #12]
 80050d6:	68fa      	ldr	r2, [r7, #12]
 80050d8:	4313      	orrs	r3, r2
 80050da:	60fb      	str	r3, [r7, #12]
 80050dc:	68fb      	ldr	r3, [r7, #12]
 80050de:	f023 0280 	bic.w	r2, r3, #128	; 0x80
 80050e2:	683b      	ldr	r3, [r7, #0]
 80050e4:	691b      	ldr	r3, [r3, #16]
 80050e6:	4313      	orrs	r3, r2
 80050e8:	60fb      	str	r3, [r7, #12]
 80050ea:	687b      	ldr	r3, [r7, #4]
 80050ec:	68fa      	ldr	r2, [r7, #12]
 80050ee:	601a      	str	r2, [r3, #0]
 80050f0:	683b      	ldr	r3, [r7, #0]
 80050f2:	689a      	ldr	r2, [r3, #8]
 80050f4:	687b      	ldr	r3, [r7, #4]
 80050f6:	62da      	str	r2, [r3, #44]	; 0x2c
 80050f8:	683b      	ldr	r3, [r7, #0]
 80050fa:	681a      	ldr	r2, [r3, #0]
 80050fc:	687b      	ldr	r3, [r7, #4]
 80050fe:	629a      	str	r2, [r3, #40]	; 0x28
 8005100:	687b      	ldr	r3, [r7, #4]
 8005102:	2201      	movs	r2, #1
 8005104:	615a      	str	r2, [r3, #20]
 8005106:	bf00      	nop
 8005108:	3714      	adds	r7, #20
 800510a:	46bd      	mov	sp, r7
 800510c:	bc80      	pop	{r7}
 800510e:	4770      	bx	lr
 8005110:	40000400 	.word	0x40000400
 8005114:	40000800 	.word	0x40000800
 8005118:	40000c00 	.word	0x40000c00
 800511c:	40010800 	.word	0x40010800
 8005120:	40010c00 	.word	0x40010c00
 8005124:	40011000 	.word	0x40011000

08005128 <TIM_TI1_ConfigInputStage>:
 8005128:	b480      	push	{r7}
 800512a:	b087      	sub	sp, #28
 800512c:	af00      	add	r7, sp, #0
 800512e:	60f8      	str	r0, [r7, #12]
 8005130:	60b9      	str	r1, [r7, #8]
 8005132:	607a      	str	r2, [r7, #4]
 8005134:	68fb      	ldr	r3, [r7, #12]
 8005136:	6a1b      	ldr	r3, [r3, #32]
 8005138:	617b      	str	r3, [r7, #20]
 800513a:	68fb      	ldr	r3, [r7, #12]
 800513c:	6a1b      	ldr	r3, [r3, #32]
 800513e:	f023 0201 	bic.w	r2, r3, #1
 8005142:	68fb      	ldr	r3, [r7, #12]
 8005144:	621a      	str	r2, [r3, #32]
 8005146:	68fb      	ldr	r3, [r7, #12]
 8005148:	699b      	ldr	r3, [r3, #24]
 800514a:	613b      	str	r3, [r7, #16]
 800514c:	693b      	ldr	r3, [r7, #16]
 800514e:	f023 03f0 	bic.w	r3, r3, #240	; 0xf0
 8005152:	613b      	str	r3, [r7, #16]
 8005154:	687b      	ldr	r3, [r7, #4]
 8005156:	011b      	lsls	r3, r3, #4
 8005158:	693a      	ldr	r2, [r7, #16]
 800515a:	4313      	orrs	r3, r2
 800515c:	613b      	str	r3, [r7, #16]
 800515e:	697b      	ldr	r3, [r7, #20]
 8005160:	f023 030a 	bic.w	r3, r3, #10
 8005164:	617b      	str	r3, [r7, #20]
 8005166:	697a      	ldr	r2, [r7, #20]
 8005168:	68bb      	ldr	r3, [r7, #8]
 800516a:	4313      	orrs	r3, r2
 800516c:	617b      	str	r3, [r7, #20]
 800516e:	68fb      	ldr	r3, [r7, #12]
 8005170:	693a      	ldr	r2, [r7, #16]
 8005172:	619a      	str	r2, [r3, #24]
 8005174:	68fb      	ldr	r3, [r7, #12]
 8005176:	697a      	ldr	r2, [r7, #20]
 8005178:	621a      	str	r2, [r3, #32]
 800517a:	bf00      	nop
 800517c:	371c      	adds	r7, #28
 800517e:	46bd      	mov	sp, r7
 8005180:	bc80      	pop	{r7}
 8005182:	4770      	bx	lr

08005184 <TIM_TI2_ConfigInputStage>:
 8005184:	b480      	push	{r7}
 8005186:	b087      	sub	sp, #28
 8005188:	af00      	add	r7, sp, #0
 800518a:	60f8      	str	r0, [r7, #12]
 800518c:	60b9      	str	r1, [r7, #8]
 800518e:	607a      	str	r2, [r7, #4]
 8005190:	68fb      	ldr	r3, [r7, #12]
 8005192:	6a1b      	ldr	r3, [r3, #32]
 8005194:	f023 0210 	bic.w	r2, r3, #16
 8005198:	68fb      	ldr	r3, [r7, #12]
 800519a:	621a      	str	r2, [r3, #32]
 800519c:	68fb      	ldr	r3, [r7, #12]
 800519e:	699b      	ldr	r3, [r3, #24]
 80051a0:	617b      	str	r3, [r7, #20]
 80051a2:	68fb      	ldr	r3, [r7, #12]
 80051a4:	6a1b      	ldr	r3, [r3, #32]
 80051a6:	613b      	str	r3, [r7, #16]
 80051a8:	697b      	ldr	r3, [r7, #20]
 80051aa:	f423 4370 	bic.w	r3, r3, #61440	; 0xf000
 80051ae:	617b      	str	r3, [r7, #20]
 80051b0:	687b      	ldr	r3, [r7, #4]
 80051b2:	031b      	lsls	r3, r3, #12
 80051b4:	697a      	ldr	r2, [r7, #20]
 80051b6:	4313      	orrs	r3, r2
 80051b8:	617b      	str	r3, [r7, #20]
 80051ba:	693b      	ldr	r3, [r7, #16]
 80051bc:	f023 03a0 	bic.w	r3, r3, #160	; 0xa0
 80051c0:	613b      	str	r3, [r7, #16]
 80051c2:	68bb      	ldr	r3, [r7, #8]
 80051c4:	011b      	lsls	r3, r3, #4
 80051c6:	693a      	ldr	r2, [r7, #16]
 80051c8:	4313      	orrs	r3, r2
 80051ca:	613b      	str	r3, [r7, #16]
 80051cc:	68fb      	ldr	r3, [r7, #12]
 80051ce:	697a      	ldr	r2, [r7, #20]
 80051d0:	619a      	str	r2, [r3, #24]
 80051d2:	68fb      	ldr	r3, [r7, #12]
 80051d4:	693a      	ldr	r2, [r7, #16]
 80051d6:	621a      	str	r2, [r3, #32]
 80051d8:	bf00      	nop
 80051da:	371c      	adds	r7, #28
 80051dc:	46bd      	mov	sp, r7
 80051de:	bc80      	pop	{r7}
 80051e0:	4770      	bx	lr

080051e2 <TIM_ITRx_SetConfig>:
 80051e2:	b480      	push	{r7}
 80051e4:	b085      	sub	sp, #20
 80051e6:	af00      	add	r7, sp, #0
 80051e8:	6078      	str	r0, [r7, #4]
 80051ea:	6039      	str	r1, [r7, #0]
 80051ec:	687b      	ldr	r3, [r7, #4]
 80051ee:	689b      	ldr	r3, [r3, #8]
 80051f0:	60fb      	str	r3, [r7, #12]
 80051f2:	68fb      	ldr	r3, [r7, #12]
 80051f4:	f023 0370 	bic.w	r3, r3, #112	; 0x70
 80051f8:	60fb      	str	r3, [r7, #12]
 80051fa:	683a      	ldr	r2, [r7, #0]
 80051fc:	68fb      	ldr	r3, [r7, #12]
 80051fe:	4313      	orrs	r3, r2
 8005200:	f043 0307 	orr.w	r3, r3, #7
 8005204:	60fb      	str	r3, [r7, #12]
 8005206:	687b      	ldr	r3, [r7, #4]
 8005208:	68fa      	ldr	r2, [r7, #12]
 800520a:	609a      	str	r2, [r3, #8]
 800520c:	bf00      	nop
 800520e:	3714      	adds	r7, #20
 8005210:	46bd      	mov	sp, r7
 8005212:	bc80      	pop	{r7}
 8005214:	4770      	bx	lr

08005216 <TIM_ETR_SetConfig>:
 8005216:	b480      	push	{r7}
 8005218:	b087      	sub	sp, #28
 800521a:	af00      	add	r7, sp, #0
 800521c:	60f8      	str	r0, [r7, #12]
 800521e:	60b9      	str	r1, [r7, #8]
 8005220:	607a      	str	r2, [r7, #4]
 8005222:	603b      	str	r3, [r7, #0]
 8005224:	68fb      	ldr	r3, [r7, #12]
 8005226:	689b      	ldr	r3, [r3, #8]
 8005228:	617b      	str	r3, [r7, #20]
 800522a:	697b      	ldr	r3, [r7, #20]
 800522c:	f423 437f 	bic.w	r3, r3, #65280	; 0xff00
 8005230:	617b      	str	r3, [r7, #20]
 8005232:	683b      	ldr	r3, [r7, #0]
 8005234:	021a      	lsls	r2, r3, #8
 8005236:	687b      	ldr	r3, [r7, #4]
 8005238:	431a      	orrs	r2, r3
 800523a:	68bb      	ldr	r3, [r7, #8]
 800523c:	4313      	orrs	r3, r2
 800523e:	697a      	ldr	r2, [r7, #20]
 8005240:	4313      	orrs	r3, r2
 8005242:	617b      	str	r3, [r7, #20]
 8005244:	68fb      	ldr	r3, [r7, #12]
 8005246:	697a      	ldr	r2, [r7, #20]
 8005248:	609a      	str	r2, [r3, #8]
 800524a:	bf00      	nop
 800524c:	371c      	adds	r7, #28
 800524e:	46bd      	mov	sp, r7
 8005250:	bc80      	pop	{r7}
 8005252:	4770      	bx	lr

08005254 <HAL_TIMEx_MasterConfigSynchronization>:
 8005254:	b480      	push	{r7}
 8005256:	b085      	sub	sp, #20
 8005258:	af00      	add	r7, sp, #0
 800525a:	6078      	str	r0, [r7, #4]
 800525c:	6039      	str	r1, [r7, #0]
 800525e:	687b      	ldr	r3, [r7, #4]
 8005260:	f893 3038 	ldrb.w	r3, [r3, #56]	; 0x38
 8005264:	2b01      	cmp	r3, #1
 8005266:	d101      	bne.n	800526c <HAL_TIMEx_MasterConfigSynchronization+0x18>
 8005268:	2302      	movs	r3, #2
 800526a:	e032      	b.n	80052d2 <HAL_TIMEx_MasterConfigSynchronization+0x7e>
 800526c:	687b      	ldr	r3, [r7, #4]
 800526e:	2201      	movs	r2, #1
 8005270:	f883 2038 	strb.w	r2, [r3, #56]	; 0x38
 8005274:	687b      	ldr	r3, [r7, #4]
 8005276:	2202      	movs	r2, #2
 8005278:	f883 2039 	strb.w	r2, [r3, #57]	; 0x39
 800527c:	687b      	ldr	r3, [r7, #4]
 800527e:	681b      	ldr	r3, [r3, #0]
 8005280:	685b      	ldr	r3, [r3, #4]
 8005282:	60fb      	str	r3, [r7, #12]
 8005284:	687b      	ldr	r3, [r7, #4]
 8005286:	681b      	ldr	r3, [r3, #0]
 8005288:	689b      	ldr	r3, [r3, #8]
 800528a:	60bb      	str	r3, [r7, #8]
 800528c:	68fb      	ldr	r3, [r7, #12]
 800528e:	f023 0370 	bic.w	r3, r3, #112	; 0x70
 8005292:	60fb      	str	r3, [r7, #12]
 8005294:	683b      	ldr	r3, [r7, #0]
 8005296:	681b      	ldr	r3, [r3, #0]
 8005298:	68fa      	ldr	r2, [r7, #12]
 800529a:	4313      	orrs	r3, r2
 800529c:	60fb      	str	r3, [r7, #12]
 800529e:	68bb      	ldr	r3, [r7, #8]
 80052a0:	f023 0380 	bic.w	r3, r3, #128	; 0x80
 80052a4:	60bb      	str	r3, [r7, #8]
 80052a6:	683b      	ldr	r3, [r7, #0]
 80052a8:	685b      	ldr	r3, [r3, #4]
 80052aa:	68ba      	ldr	r2, [r7, #8]
 80052ac:	4313      	orrs	r3, r2
 80052ae:	60bb      	str	r3, [r7, #8]
 80052b0:	687b      	ldr	r3, [r7, #4]
 80052b2:	681b      	ldr	r3, [r3, #0]
 80052b4:	68fa      	ldr	r2, [r7, #12]
 80052b6:	605a      	str	r2, [r3, #4]
 80052b8:	687b      	ldr	r3, [r7, #4]
 80052ba:	681b      	ldr	r3, [r3, #0]
 80052bc:	68ba      	ldr	r2, [r7, #8]
 80052be:	609a      	str	r2, [r3, #8]
 80052c0:	687b      	ldr	r3, [r7, #4]
 80052c2:	2201      	movs	r2, #1
 80052c4:	f883 2039 	strb.w	r2, [r3, #57]	; 0x39
 80052c8:	687b      	ldr	r3, [r7, #4]
 80052ca:	2200      	movs	r2, #0
 80052cc:	f883 2038 	strb.w	r2, [r3, #56]	; 0x38
 80052d0:	2300      	movs	r3, #0
 80052d2:	4618      	mov	r0, r3
 80052d4:	3714      	adds	r7, #20
 80052d6:	46bd      	mov	sp, r7
 80052d8:	bc80      	pop	{r7}
 80052da:	4770      	bx	lr

080052dc <USB_EnableGlobalInt>:
 80052dc:	b480      	push	{r7}
 80052de:	b085      	sub	sp, #20
 80052e0:	af00      	add	r7, sp, #0
 80052e2:	6078      	str	r0, [r7, #4]
 80052e4:	f44f 433f 	mov.w	r3, #48896	; 0xbf00
 80052e8:	81fb      	strh	r3, [r7, #14]
 80052ea:	687b      	ldr	r3, [r7, #4]
 80052ec:	f8b3 3040 	ldrh.w	r3, [r3, #64]	; 0x40
 80052f0:	b29a      	uxth	r2, r3
 80052f2:	89fb      	ldrh	r3, [r7, #14]
 80052f4:	4313      	orrs	r3, r2
 80052f6:	b29a      	uxth	r2, r3
 80052f8:	687b      	ldr	r3, [r7, #4]
 80052fa:	f8a3 2040 	strh.w	r2, [r3, #64]	; 0x40
 80052fe:	2300      	movs	r3, #0
 8005300:	4618      	mov	r0, r3
 8005302:	3714      	adds	r7, #20
 8005304:	46bd      	mov	sp, r7
 8005306:	bc80      	pop	{r7}
 8005308:	4770      	bx	lr

0800530a <USB_DisableGlobalInt>:
 800530a:	b480      	push	{r7}
 800530c:	b085      	sub	sp, #20
 800530e:	af00      	add	r7, sp, #0
 8005310:	6078      	str	r0, [r7, #4]
 8005312:	f44f 433f 	mov.w	r3, #48896	; 0xbf00
 8005316:	81fb      	strh	r3, [r7, #14]
 8005318:	687b      	ldr	r3, [r7, #4]
 800531a:	f8b3 3040 	ldrh.w	r3, [r3, #64]	; 0x40
 800531e:	b29b      	uxth	r3, r3
 8005320:	b21a      	sxth	r2, r3
 8005322:	f9b7 300e 	ldrsh.w	r3, [r7, #14]
 8005326:	43db      	mvns	r3, r3
 8005328:	b21b      	sxth	r3, r3
 800532a:	4013      	ands	r3, r2
 800532c:	b21b      	sxth	r3, r3
 800532e:	b29a      	uxth	r2, r3
 8005330:	687b      	ldr	r3, [r7, #4]
 8005332:	f8a3 2040 	strh.w	r2, [r3, #64]	; 0x40
 8005336:	2300      	movs	r3, #0
 8005338:	4618      	mov	r0, r3
 800533a:	3714      	adds	r7, #20
 800533c:	46bd      	mov	sp, r7
 800533e:	bc80      	pop	{r7}
 8005340:	4770      	bx	lr

08005342 <USB_DevInit>:
 8005342:	b084      	sub	sp, #16
 8005344:	b580      	push	{r7, lr}
 8005346:	b082      	sub	sp, #8
 8005348:	af00      	add	r7, sp, #0
 800534a:	6078      	str	r0, [r7, #4]
 800534c:	f107 0014 	add.w	r0, r7, #20
 8005350:	e880 000e 	stmia.w	r0, {r1, r2, r3}
 8005354:	687b      	ldr	r3, [r7, #4]
 8005356:	2201      	movs	r2, #1
 8005358:	f8a3 2040 	strh.w	r2, [r3, #64]	; 0x40
 800535c:	687b      	ldr	r3, [r7, #4]
 800535e:	2200      	movs	r2, #0
 8005360:	f8a3 2040 	strh.w	r2, [r3, #64]	; 0x40
 8005364:	687b      	ldr	r3, [r7, #4]
 8005366:	2200      	movs	r2, #0
 8005368:	f8a3 2044 	strh.w	r2, [r3, #68]	; 0x44
 800536c:	687b      	ldr	r3, [r7, #4]
 800536e:	2200      	movs	r2, #0
 8005370:	f8a3 2050 	strh.w	r2, [r3, #80]	; 0x50
 8005374:	6878      	ldr	r0, [r7, #4]
 8005376:	f7ff ffb1 	bl	80052dc <USB_EnableGlobalInt>
 800537a:	2300      	movs	r3, #0
 800537c:	4618      	mov	r0, r3
 800537e:	3708      	adds	r7, #8
 8005380:	46bd      	mov	sp, r7
 8005382:	e8bd 4080 	ldmia.w	sp!, {r7, lr}
 8005386:	b004      	add	sp, #16
 8005388:	4770      	bx	lr
	...

0800538c <USB_ActivateEndpoint>:
 800538c:	b490      	push	{r4, r7}
 800538e:	b086      	sub	sp, #24
 8005390:	af00      	add	r7, sp, #0
 8005392:	6078      	str	r0, [r7, #4]
 8005394:	6039      	str	r1, [r7, #0]
 8005396:	2300      	movs	r3, #0
 8005398:	75fb      	strb	r3, [r7, #23]
 800539a:	687a      	ldr	r2, [r7, #4]
 800539c:	683b      	ldr	r3, [r7, #0]
 800539e:	781b      	ldrb	r3, [r3, #0]
 80053a0:	009b      	lsls	r3, r3, #2
 80053a2:	4413      	add	r3, r2
 80053a4:	881b      	ldrh	r3, [r3, #0]
 80053a6:	b29b      	uxth	r3, r3
 80053a8:	f423 43ec 	bic.w	r3, r3, #30208	; 0x7600
 80053ac:	f023 0370 	bic.w	r3, r3, #112	; 0x70
 80053b0:	82bb      	strh	r3, [r7, #20]
 80053b2:	683b      	ldr	r3, [r7, #0]
 80053b4:	78db      	ldrb	r3, [r3, #3]
 80053b6:	2b03      	cmp	r3, #3
 80053b8:	d819      	bhi.n	80053ee <USB_ActivateEndpoint+0x62>
 80053ba:	a201      	add	r2, pc, #4	; (adr r2, 80053c0 <USB_ActivateEndpoint+0x34>)
 80053bc:	f852 f023 	ldr.w	pc, [r2, r3, lsl #2]
 80053c0:	080053d1 	.word	0x080053d1
 80053c4:	080053e5 	.word	0x080053e5
 80053c8:	080053f5 	.word	0x080053f5
 80053cc:	080053db 	.word	0x080053db
 80053d0:	8abb      	ldrh	r3, [r7, #20]
 80053d2:	f443 7300 	orr.w	r3, r3, #512	; 0x200
 80053d6:	82bb      	strh	r3, [r7, #20]
 80053d8:	e00d      	b.n	80053f6 <USB_ActivateEndpoint+0x6a>
 80053da:	8abb      	ldrh	r3, [r7, #20]
 80053dc:	f443 63c0 	orr.w	r3, r3, #1536	; 0x600
 80053e0:	82bb      	strh	r3, [r7, #20]
 80053e2:	e008      	b.n	80053f6 <USB_ActivateEndpoint+0x6a>
 80053e4:	8abb      	ldrh	r3, [r7, #20]
 80053e6:	f443 6380 	orr.w	r3, r3, #1024	; 0x400
 80053ea:	82bb      	strh	r3, [r7, #20]
 80053ec:	e003      	b.n	80053f6 <USB_ActivateEndpoint+0x6a>
 80053ee:	2301      	movs	r3, #1
 80053f0:	75fb      	strb	r3, [r7, #23]
 80053f2:	e000      	b.n	80053f6 <USB_ActivateEndpoint+0x6a>
 80053f4:	bf00      	nop
 80053f6:	687a      	ldr	r2, [r7, #4]
 80053f8:	683b      	ldr	r3, [r7, #0]
 80053fa:	781b      	ldrb	r3, [r3, #0]
 80053fc:	009b      	lsls	r3, r3, #2
 80053fe:	441a      	add	r2, r3
 8005400:	8abb      	ldrh	r3, [r7, #20]
 8005402:	f043 437f 	orr.w	r3, r3, #4278190080	; 0xff000000
 8005406:	f443 037f 	orr.w	r3, r3, #16711680	; 0xff0000
 800540a:	f443 4300 	orr.w	r3, r3, #32768	; 0x8000
 800540e:	f043 0380 	orr.w	r3, r3, #128	; 0x80
 8005412:	b29b      	uxth	r3, r3
 8005414:	8013      	strh	r3, [r2, #0]
 8005416:	687a      	ldr	r2, [r7, #4]
 8005418:	683b      	ldr	r3, [r7, #0]
 800541a:	781b      	ldrb	r3, [r3, #0]
 800541c:	009b      	lsls	r3, r3, #2
 800541e:	4413      	add	r3, r2
 8005420:	881b      	ldrh	r3, [r3, #0]
 8005422:	b29b      	uxth	r3, r3
 8005424:	f423 43e0 	bic.w	r3, r3, #28672	; 0x7000
 8005428:	f023 0370 	bic.w	r3, r3, #112	; 0x70
 800542c:	b29a      	uxth	r2, r3
 800542e:	683b      	ldr	r3, [r7, #0]
 8005430:	781b      	ldrb	r3, [r3, #0]
 8005432:	b29b      	uxth	r3, r3
 8005434:	4313      	orrs	r3, r2
 8005436:	b29c      	uxth	r4, r3
 8005438:	687a      	ldr	r2, [r7, #4]
 800543a:	683b      	ldr	r3, [r7, #0]
 800543c:	781b      	ldrb	r3, [r3, #0]
 800543e:	009b      	lsls	r3, r3, #2
 8005440:	441a      	add	r2, r3
 8005442:	4b87      	ldr	r3, [pc, #540]	; (8005660 <USB_ActivateEndpoint+0x2d4>)
 8005444:	4323      	orrs	r3, r4
 8005446:	b29b      	uxth	r3, r3
 8005448:	8013      	strh	r3, [r2, #0]
 800544a:	683b      	ldr	r3, [r7, #0]
 800544c:	7b1b      	ldrb	r3, [r3, #12]
 800544e:	2b00      	cmp	r3, #0
 8005450:	f040 810c 	bne.w	800566c <USB_ActivateEndpoint+0x2e0>
 8005454:	683b      	ldr	r3, [r7, #0]
 8005456:	785b      	ldrb	r3, [r3, #1]
 8005458:	2b00      	cmp	r3, #0
 800545a:	d067      	beq.n	800552c <USB_ActivateEndpoint+0x1a0>
 800545c:	687c      	ldr	r4, [r7, #4]
 800545e:	687b      	ldr	r3, [r7, #4]
 8005460:	f8b3 3050 	ldrh.w	r3, [r3, #80]	; 0x50
 8005464:	b29b      	uxth	r3, r3
 8005466:	441c      	add	r4, r3
 8005468:	683b      	ldr	r3, [r7, #0]
 800546a:	781b      	ldrb	r3, [r3, #0]
 800546c:	011b      	lsls	r3, r3, #4
 800546e:	4423      	add	r3, r4
 8005470:	f503 6380 	add.w	r3, r3, #1024	; 0x400
 8005474:	461c      	mov	r4, r3
 8005476:	683b      	ldr	r3, [r7, #0]
 8005478:	88db      	ldrh	r3, [r3, #6]
 800547a:	085b      	lsrs	r3, r3, #1
 800547c:	b29b      	uxth	r3, r3
 800547e:	005b      	lsls	r3, r3, #1
 8005480:	b29b      	uxth	r3, r3
 8005482:	8023      	strh	r3, [r4, #0]
 8005484:	687a      	ldr	r2, [r7, #4]
 8005486:	683b      	ldr	r3, [r7, #0]
 8005488:	781b      	ldrb	r3, [r3, #0]
 800548a:	009b      	lsls	r3, r3, #2
 800548c:	4413      	add	r3, r2
 800548e:	881b      	ldrh	r3, [r3, #0]
 8005490:	b29c      	uxth	r4, r3
 8005492:	4623      	mov	r3, r4
 8005494:	f003 0340 	and.w	r3, r3, #64	; 0x40
 8005498:	2b00      	cmp	r3, #0
 800549a:	d014      	beq.n	80054c6 <USB_ActivateEndpoint+0x13a>
 800549c:	687a      	ldr	r2, [r7, #4]
 800549e:	683b      	ldr	r3, [r7, #0]
 80054a0:	781b      	ldrb	r3, [r3, #0]
 80054a2:	009b      	lsls	r3, r3, #2
 80054a4:	4413      	add	r3, r2
 80054a6:	881b      	ldrh	r3, [r3, #0]
 80054a8:	b29b      	uxth	r3, r3
 80054aa:	f423 43e0 	bic.w	r3, r3, #28672	; 0x7000
 80054ae:	f023 0370 	bic.w	r3, r3, #112	; 0x70
 80054b2:	b29c      	uxth	r4, r3
 80054b4:	687a      	ldr	r2, [r7, #4]
 80054b6:	683b      	ldr	r3, [r7, #0]
 80054b8:	781b      	ldrb	r3, [r3, #0]
 80054ba:	009b      	lsls	r3, r3, #2
 80054bc:	441a      	add	r2, r3
 80054be:	4b69      	ldr	r3, [pc, #420]	; (8005664 <USB_ActivateEndpoint+0x2d8>)
 80054c0:	4323      	orrs	r3, r4
 80054c2:	b29b      	uxth	r3, r3
 80054c4:	8013      	strh	r3, [r2, #0]
 80054c6:	683b      	ldr	r3, [r7, #0]
 80054c8:	78db      	ldrb	r3, [r3, #3]
 80054ca:	2b01      	cmp	r3, #1
 80054cc:	d018      	beq.n	8005500 <USB_ActivateEndpoint+0x174>
 80054ce:	687a      	ldr	r2, [r7, #4]
 80054d0:	683b      	ldr	r3, [r7, #0]
 80054d2:	781b      	ldrb	r3, [r3, #0]
 80054d4:	009b      	lsls	r3, r3, #2
 80054d6:	4413      	add	r3, r2
 80054d8:	881b      	ldrh	r3, [r3, #0]
 80054da:	b29b      	uxth	r3, r3
 80054dc:	f423 43e0 	bic.w	r3, r3, #28672	; 0x7000
 80054e0:	f023 0340 	bic.w	r3, r3, #64	; 0x40
 80054e4:	b29c      	uxth	r4, r3
 80054e6:	f084 0320 	eor.w	r3, r4, #32
 80054ea:	b29c      	uxth	r4, r3
 80054ec:	687a      	ldr	r2, [r7, #4]
 80054ee:	683b      	ldr	r3, [r7, #0]
 80054f0:	781b      	ldrb	r3, [r3, #0]
 80054f2:	009b      	lsls	r3, r3, #2
 80054f4:	441a      	add	r2, r3
 80054f6:	4b5a      	ldr	r3, [pc, #360]	; (8005660 <USB_ActivateEndpoint+0x2d4>)
 80054f8:	4323      	orrs	r3, r4
 80054fa:	b29b      	uxth	r3, r3
 80054fc:	8013      	strh	r3, [r2, #0]
 80054fe:	e225      	b.n	800594c <USB_ActivateEndpoint+0x5c0>
 8005500:	687a      	ldr	r2, [r7, #4]
 8005502:	683b      	ldr	r3, [r7, #0]
 8005504:	781b      	ldrb	r3, [r3, #0]
 8005506:	009b      	lsls	r3, r3, #2
 8005508:	4413      	add	r3, r2
 800550a:	881b      	ldrh	r3, [r3, #0]
 800550c:	b29b      	uxth	r3, r3
 800550e:	f423 43e0 	bic.w	r3, r3, #28672	; 0x7000
 8005512:	f023 0340 	bic.w	r3, r3, #64	; 0x40
 8005516:	b29c      	uxth	r4, r3
 8005518:	687a      	ldr	r2, [r7, #4]
 800551a:	683b      	ldr	r3, [r7, #0]
 800551c:	781b      	ldrb	r3, [r3, #0]
 800551e:	009b      	lsls	r3, r3, #2
 8005520:	441a      	add	r2, r3
 8005522:	4b4f      	ldr	r3, [pc, #316]	; (8005660 <USB_ActivateEndpoint+0x2d4>)
 8005524:	4323      	orrs	r3, r4
 8005526:	b29b      	uxth	r3, r3
 8005528:	8013      	strh	r3, [r2, #0]
 800552a:	e20f      	b.n	800594c <USB_ActivateEndpoint+0x5c0>
 800552c:	687c      	ldr	r4, [r7, #4]
 800552e:	687b      	ldr	r3, [r7, #4]
 8005530:	f8b3 3050 	ldrh.w	r3, [r3, #80]	; 0x50
 8005534:	b29b      	uxth	r3, r3
 8005536:	441c      	add	r4, r3
 8005538:	683b      	ldr	r3, [r7, #0]
 800553a:	781b      	ldrb	r3, [r3, #0]
 800553c:	011b      	lsls	r3, r3, #4
 800553e:	4423      	add	r3, r4
 8005540:	f503 6381 	add.w	r3, r3, #1032	; 0x408
 8005544:	461c      	mov	r4, r3
 8005546:	683b      	ldr	r3, [r7, #0]
 8005548:	88db      	ldrh	r3, [r3, #6]
 800554a:	085b      	lsrs	r3, r3, #1
 800554c:	b29b      	uxth	r3, r3
 800554e:	005b      	lsls	r3, r3, #1
 8005550:	b29b      	uxth	r3, r3
 8005552:	8023      	strh	r3, [r4, #0]
 8005554:	687c      	ldr	r4, [r7, #4]
 8005556:	687b      	ldr	r3, [r7, #4]
 8005558:	f8b3 3050 	ldrh.w	r3, [r3, #80]	; 0x50
 800555c:	b29b      	uxth	r3, r3
 800555e:	441c      	add	r4, r3
 8005560:	683b      	ldr	r3, [r7, #0]
 8005562:	781b      	ldrb	r3, [r3, #0]
 8005564:	011b      	lsls	r3, r3, #4
 8005566:	4423      	add	r3, r4
 8005568:	f203 430c 	addw	r3, r3, #1036	; 0x40c
 800556c:	60fb      	str	r3, [r7, #12]
 800556e:	683b      	ldr	r3, [r7, #0]
 8005570:	691b      	ldr	r3, [r3, #16]
 8005572:	2b00      	cmp	r3, #0
 8005574:	d110      	bne.n	8005598 <USB_ActivateEndpoint+0x20c>
 8005576:	68fb      	ldr	r3, [r7, #12]
 8005578:	881b      	ldrh	r3, [r3, #0]
 800557a:	f423 43f8 	bic.w	r3, r3, #31744	; 0x7c00
 800557e:	b29a      	uxth	r2, r3
 8005580:	68fb      	ldr	r3, [r7, #12]
 8005582:	801a      	strh	r2, [r3, #0]
 8005584:	68fb      	ldr	r3, [r7, #12]
 8005586:	881b      	ldrh	r3, [r3, #0]
 8005588:	ea6f 4343 	mvn.w	r3, r3, lsl #17
 800558c:	ea6f 4353 	mvn.w	r3, r3, lsr #17
 8005590:	b29a      	uxth	r2, r3
 8005592:	68fb      	ldr	r3, [r7, #12]
 8005594:	801a      	strh	r2, [r3, #0]
 8005596:	e026      	b.n	80055e6 <USB_ActivateEndpoint+0x25a>
 8005598:	683b      	ldr	r3, [r7, #0]
 800559a:	691b      	ldr	r3, [r3, #16]
 800559c:	2b3d      	cmp	r3, #61	; 0x3d
 800559e:	d813      	bhi.n	80055c8 <USB_ActivateEndpoint+0x23c>
 80055a0:	683b      	ldr	r3, [r7, #0]
 80055a2:	691b      	ldr	r3, [r3, #16]
 80055a4:	085b      	lsrs	r3, r3, #1
 80055a6:	613b      	str	r3, [r7, #16]
 80055a8:	683b      	ldr	r3, [r7, #0]
 80055aa:	691b      	ldr	r3, [r3, #16]
 80055ac:	f003 0301 	and.w	r3, r3, #1
 80055b0:	2b00      	cmp	r3, #0
 80055b2:	d002      	beq.n	80055ba <USB_ActivateEndpoint+0x22e>
 80055b4:	693b      	ldr	r3, [r7, #16]
 80055b6:	3301      	adds	r3, #1
 80055b8:	613b      	str	r3, [r7, #16]
 80055ba:	693b      	ldr	r3, [r7, #16]
 80055bc:	b29b      	uxth	r3, r3
 80055be:	029b      	lsls	r3, r3, #10
 80055c0:	b29a      	uxth	r2, r3
 80055c2:	68fb      	ldr	r3, [r7, #12]
 80055c4:	801a      	strh	r2, [r3, #0]
 80055c6:	e00e      	b.n	80055e6 <USB_ActivateEndpoint+0x25a>
 80055c8:	683b      	ldr	r3, [r7, #0]
 80055ca:	691b      	ldr	r3, [r3, #16]
 80055cc:	095b      	lsrs	r3, r3, #5
 80055ce:	613b      	str	r3, [r7, #16]
 80055d0:	693b      	ldr	r3, [r7, #16]
 80055d2:	b29b      	uxth	r3, r3
 80055d4:	029b      	lsls	r3, r3, #10
 80055d6:	b29b      	uxth	r3, r3
 80055d8:	ea6f 4343 	mvn.w	r3, r3, lsl #17
 80055dc:	ea6f 4353 	mvn.w	r3, r3, lsr #17
 80055e0:	b29a      	uxth	r2, r3
 80055e2:	68fb      	ldr	r3, [r7, #12]
 80055e4:	801a      	strh	r2, [r3, #0]
 80055e6:	687a      	ldr	r2, [r7, #4]
 80055e8:	683b      	ldr	r3, [r7, #0]
 80055ea:	781b      	ldrb	r3, [r3, #0]
 80055ec:	009b      	lsls	r3, r3, #2
 80055ee:	4413      	add	r3, r2
 80055f0:	881b      	ldrh	r3, [r3, #0]
 80055f2:	b29c      	uxth	r4, r3
 80055f4:	4623      	mov	r3, r4
 80055f6:	f403 4380 	and.w	r3, r3, #16384	; 0x4000
 80055fa:	2b00      	cmp	r3, #0
 80055fc:	d014      	beq.n	8005628 <USB_ActivateEndpoint+0x29c>
 80055fe:	687a      	ldr	r2, [r7, #4]
 8005600:	683b      	ldr	r3, [r7, #0]
 8005602:	781b      	ldrb	r3, [r3, #0]
 8005604:	009b      	lsls	r3, r3, #2
 8005606:	4413      	add	r3, r2
 8005608:	881b      	ldrh	r3, [r3, #0]
 800560a:	b29b      	uxth	r3, r3
 800560c:	f423 43e0 	bic.w	r3, r3, #28672	; 0x7000
 8005610:	f023 0370 	bic.w	r3, r3, #112	; 0x70
 8005614:	b29c      	uxth	r4, r3
 8005616:	687a      	ldr	r2, [r7, #4]
 8005618:	683b      	ldr	r3, [r7, #0]
 800561a:	781b      	ldrb	r3, [r3, #0]
 800561c:	009b      	lsls	r3, r3, #2
 800561e:	441a      	add	r2, r3
 8005620:	4b11      	ldr	r3, [pc, #68]	; (8005668 <USB_ActivateEndpoint+0x2dc>)
 8005622:	4323      	orrs	r3, r4
 8005624:	b29b      	uxth	r3, r3
 8005626:	8013      	strh	r3, [r2, #0]
 8005628:	687a      	ldr	r2, [r7, #4]
 800562a:	683b      	ldr	r3, [r7, #0]
 800562c:	781b      	ldrb	r3, [r3, #0]
 800562e:	009b      	lsls	r3, r3, #2
 8005630:	4413      	add	r3, r2
 8005632:	881b      	ldrh	r3, [r3, #0]
 8005634:	b29b      	uxth	r3, r3
 8005636:	f423 4380 	bic.w	r3, r3, #16384	; 0x4000
 800563a:	f023 0370 	bic.w	r3, r3, #112	; 0x70
 800563e:	b29c      	uxth	r4, r3
 8005640:	f484 5380 	eor.w	r3, r4, #4096	; 0x1000
 8005644:	b29c      	uxth	r4, r3
 8005646:	f484 5300 	eor.w	r3, r4, #8192	; 0x2000
 800564a:	b29c      	uxth	r4, r3
 800564c:	687a      	ldr	r2, [r7, #4]
 800564e:	683b      	ldr	r3, [r7, #0]
 8005650:	781b      	ldrb	r3, [r3, #0]
 8005652:	009b      	lsls	r3, r3, #2
 8005654:	441a      	add	r2, r3
 8005656:	4b02      	ldr	r3, [pc, #8]	; (8005660 <USB_ActivateEndpoint+0x2d4>)
 8005658:	4323      	orrs	r3, r4
 800565a:	b29b      	uxth	r3, r3
 800565c:	8013      	strh	r3, [r2, #0]
 800565e:	e175      	b.n	800594c <USB_ActivateEndpoint+0x5c0>
 8005660:	ffff8080 	.word	0xffff8080
 8005664:	ffff80c0 	.word	0xffff80c0
 8005668:	ffffc080 	.word	0xffffc080
 800566c:	687a      	ldr	r2, [r7, #4]
 800566e:	683b      	ldr	r3, [r7, #0]
 8005670:	781b      	ldrb	r3, [r3, #0]
 8005672:	009b      	lsls	r3, r3, #2
 8005674:	4413      	add	r3, r2
 8005676:	881b      	ldrh	r3, [r3, #0]
 8005678:	b29b      	uxth	r3, r3
 800567a:	f423 43e0 	bic.w	r3, r3, #28672	; 0x7000
 800567e:	f023 0370 	bic.w	r3, r3, #112	; 0x70
 8005682:	b29c      	uxth	r4, r3
 8005684:	687a      	ldr	r2, [r7, #4]
 8005686:	683b      	ldr	r3, [r7, #0]
 8005688:	781b      	ldrb	r3, [r3, #0]
 800568a:	009b      	lsls	r3, r3, #2
 800568c:	441a      	add	r2, r3
 800568e:	4b96      	ldr	r3, [pc, #600]	; (80058e8 <USB_ActivateEndpoint+0x55c>)
 8005690:	4323      	orrs	r3, r4
 8005692:	b29b      	uxth	r3, r3
 8005694:	8013      	strh	r3, [r2, #0]
 8005696:	687c      	ldr	r4, [r7, #4]
 8005698:	687b      	ldr	r3, [r7, #4]
 800569a:	f8b3 3050 	ldrh.w	r3, [r3, #80]	; 0x50
 800569e:	b29b      	uxth	r3, r3
 80056a0:	441c      	add	r4, r3
 80056a2:	683b      	ldr	r3, [r7, #0]
 80056a4:	781b      	ldrb	r3, [r3, #0]
 80056a6:	011b      	lsls	r3, r3, #4
 80056a8:	4423      	add	r3, r4
 80056aa:	f503 6380 	add.w	r3, r3, #1024	; 0x400
 80056ae:	461c      	mov	r4, r3
 80056b0:	683b      	ldr	r3, [r7, #0]
 80056b2:	891b      	ldrh	r3, [r3, #8]
 80056b4:	085b      	lsrs	r3, r3, #1
 80056b6:	b29b      	uxth	r3, r3
 80056b8:	005b      	lsls	r3, r3, #1
 80056ba:	b29b      	uxth	r3, r3
 80056bc:	8023      	strh	r3, [r4, #0]
 80056be:	687c      	ldr	r4, [r7, #4]
 80056c0:	687b      	ldr	r3, [r7, #4]
 80056c2:	f8b3 3050 	ldrh.w	r3, [r3, #80]	; 0x50
 80056c6:	b29b      	uxth	r3, r3
 80056c8:	441c      	add	r4, r3
 80056ca:	683b      	ldr	r3, [r7, #0]
 80056cc:	781b      	ldrb	r3, [r3, #0]
 80056ce:	011b      	lsls	r3, r3, #4
 80056d0:	4423      	add	r3, r4
 80056d2:	f503 6381 	add.w	r3, r3, #1032	; 0x408
 80056d6:	461c      	mov	r4, r3
 80056d8:	683b      	ldr	r3, [r7, #0]
 80056da:	895b      	ldrh	r3, [r3, #10]
 80056dc:	085b      	lsrs	r3, r3, #1
 80056de:	b29b      	uxth	r3, r3
 80056e0:	005b      	lsls	r3, r3, #1
 80056e2:	b29b      	uxth	r3, r3
 80056e4:	8023      	strh	r3, [r4, #0]
 80056e6:	683b      	ldr	r3, [r7, #0]
 80056e8:	785b      	ldrb	r3, [r3, #1]
 80056ea:	2b00      	cmp	r3, #0
 80056ec:	f040 8088 	bne.w	8005800 <USB_ActivateEndpoint+0x474>
 80056f0:	687a      	ldr	r2, [r7, #4]
 80056f2:	683b      	ldr	r3, [r7, #0]
 80056f4:	781b      	ldrb	r3, [r3, #0]
 80056f6:	009b      	lsls	r3, r3, #2
 80056f8:	4413      	add	r3, r2
 80056fa:	881b      	ldrh	r3, [r3, #0]
 80056fc:	b29c      	uxth	r4, r3
 80056fe:	4623      	mov	r3, r4
 8005700:	f403 4380 	and.w	r3, r3, #16384	; 0x4000
 8005704:	2b00      	cmp	r3, #0
 8005706:	d014      	beq.n	8005732 <USB_ActivateEndpoint+0x3a6>
 8005708:	687a      	ldr	r2, [r7, #4]
 800570a:	683b      	ldr	r3, [r7, #0]
 800570c:	781b      	ldrb	r3, [r3, #0]
 800570e:	009b      	lsls	r3, r3, #2
 8005710:	4413      	add	r3, r2
 8005712:	881b      	ldrh	r3, [r3, #0]
 8005714:	b29b      	uxth	r3, r3
 8005716:	f423 43e0 	bic.w	r3, r3, #28672	; 0x7000
 800571a:	f023 0370 	bic.w	r3, r3, #112	; 0x70
 800571e:	b29c      	uxth	r4, r3
 8005720:	687a      	ldr	r2, [r7, #4]
 8005722:	683b      	ldr	r3, [r7, #0]
 8005724:	781b      	ldrb	r3, [r3, #0]
 8005726:	009b      	lsls	r3, r3, #2
 8005728:	441a      	add	r2, r3
 800572a:	4b70      	ldr	r3, [pc, #448]	; (80058ec <USB_ActivateEndpoint+0x560>)
 800572c:	4323      	orrs	r3, r4
 800572e:	b29b      	uxth	r3, r3
 8005730:	8013      	strh	r3, [r2, #0]
 8005732:	687a      	ldr	r2, [r7, #4]
 8005734:	683b      	ldr	r3, [r7, #0]
 8005736:	781b      	ldrb	r3, [r3, #0]
 8005738:	009b      	lsls	r3, r3, #2
 800573a:	4413      	add	r3, r2
 800573c:	881b      	ldrh	r3, [r3, #0]
 800573e:	b29c      	uxth	r4, r3
 8005740:	4623      	mov	r3, r4
 8005742:	f003 0340 	and.w	r3, r3, #64	; 0x40
 8005746:	2b00      	cmp	r3, #0
 8005748:	d014      	beq.n	8005774 <USB_ActivateEndpoint+0x3e8>
 800574a:	687a      	ldr	r2, [r7, #4]
 800574c:	683b      	ldr	r3, [r7, #0]
 800574e:	781b      	ldrb	r3, [r3, #0]
 8005750:	009b      	lsls	r3, r3, #2
 8005752:	4413      	add	r3, r2
 8005754:	881b      	ldrh	r3, [r3, #0]
 8005756:	b29b      	uxth	r3, r3
 8005758:	f423 43e0 	bic.w	r3, r3, #28672	; 0x7000
 800575c:	f023 0370 	bic.w	r3, r3, #112	; 0x70
 8005760:	b29c      	uxth	r4, r3
 8005762:	687a      	ldr	r2, [r7, #4]
 8005764:	683b      	ldr	r3, [r7, #0]
 8005766:	781b      	ldrb	r3, [r3, #0]
 8005768:	009b      	lsls	r3, r3, #2
 800576a:	441a      	add	r2, r3
 800576c:	4b60      	ldr	r3, [pc, #384]	; (80058f0 <USB_ActivateEndpoint+0x564>)
 800576e:	4323      	orrs	r3, r4
 8005770:	b29b      	uxth	r3, r3
 8005772:	8013      	strh	r3, [r2, #0]
 8005774:	687a      	ldr	r2, [r7, #4]
 8005776:	683b      	ldr	r3, [r7, #0]
 8005778:	781b      	ldrb	r3, [r3, #0]
 800577a:	009b      	lsls	r3, r3, #2
 800577c:	4413      	add	r3, r2
 800577e:	881b      	ldrh	r3, [r3, #0]
 8005780:	b29b      	uxth	r3, r3
 8005782:	f423 43e0 	bic.w	r3, r3, #28672	; 0x7000
 8005786:	f023 0370 	bic.w	r3, r3, #112	; 0x70
 800578a:	b29c      	uxth	r4, r3
 800578c:	687a      	ldr	r2, [r7, #4]
 800578e:	683b      	ldr	r3, [r7, #0]
 8005790:	781b      	ldrb	r3, [r3, #0]
 8005792:	009b      	lsls	r3, r3, #2
 8005794:	441a      	add	r2, r3
 8005796:	4b56      	ldr	r3, [pc, #344]	; (80058f0 <USB_ActivateEndpoint+0x564>)
 8005798:	4323      	orrs	r3, r4
 800579a:	b29b      	uxth	r3, r3
 800579c:	8013      	strh	r3, [r2, #0]
 800579e:	687a      	ldr	r2, [r7, #4]
 80057a0:	683b      	ldr	r3, [r7, #0]
 80057a2:	781b      	ldrb	r3, [r3, #0]
 80057a4:	009b      	lsls	r3, r3, #2
 80057a6:	4413      	add	r3, r2
 80057a8:	881b      	ldrh	r3, [r3, #0]
 80057aa:	b29b      	uxth	r3, r3
 80057ac:	f423 4380 	bic.w	r3, r3, #16384	; 0x4000
 80057b0:	f023 0370 	bic.w	r3, r3, #112	; 0x70
 80057b4:	b29c      	uxth	r4, r3
 80057b6:	f484 5380 	eor.w	r3, r4, #4096	; 0x1000
 80057ba:	b29c      	uxth	r4, r3
 80057bc:	f484 5300 	eor.w	r3, r4, #8192	; 0x2000
 80057c0:	b29c      	uxth	r4, r3
 80057c2:	687a      	ldr	r2, [r7, #4]
 80057c4:	683b      	ldr	r3, [r7, #0]
 80057c6:	781b      	ldrb	r3, [r3, #0]
 80057c8:	009b      	lsls	r3, r3, #2
 80057ca:	441a      	add	r2, r3
 80057cc:	4b49      	ldr	r3, [pc, #292]	; (80058f4 <USB_ActivateEndpoint+0x568>)
 80057ce:	4323      	orrs	r3, r4
 80057d0:	b29b      	uxth	r3, r3
 80057d2:	8013      	strh	r3, [r2, #0]
 80057d4:	687a      	ldr	r2, [r7, #4]
 80057d6:	683b      	ldr	r3, [r7, #0]
 80057d8:	781b      	ldrb	r3, [r3, #0]
 80057da:	009b      	lsls	r3, r3, #2
 80057dc:	4413      	add	r3, r2
 80057de:	881b      	ldrh	r3, [r3, #0]
 80057e0:	b29b      	uxth	r3, r3
 80057e2:	f423 43e0 	bic.w	r3, r3, #28672	; 0x7000
 80057e6:	f023 0340 	bic.w	r3, r3, #64	; 0x40
 80057ea:	b29c      	uxth	r4, r3
 80057ec:	687a      	ldr	r2, [r7, #4]
 80057ee:	683b      	ldr	r3, [r7, #0]
 80057f0:	781b      	ldrb	r3, [r3, #0]
 80057f2:	009b      	lsls	r3, r3, #2
 80057f4:	441a      	add	r2, r3
 80057f6:	4b3f      	ldr	r3, [pc, #252]	; (80058f4 <USB_ActivateEndpoint+0x568>)
 80057f8:	4323      	orrs	r3, r4
 80057fa:	b29b      	uxth	r3, r3
 80057fc:	8013      	strh	r3, [r2, #0]
 80057fe:	e0a5      	b.n	800594c <USB_ActivateEndpoint+0x5c0>
 8005800:	687a      	ldr	r2, [r7, #4]
 8005802:	683b      	ldr	r3, [r7, #0]
 8005804:	781b      	ldrb	r3, [r3, #0]
 8005806:	009b      	lsls	r3, r3, #2
 8005808:	4413      	add	r3, r2
 800580a:	881b      	ldrh	r3, [r3, #0]
 800580c:	b29c      	uxth	r4, r3
 800580e:	4623      	mov	r3, r4
 8005810:	f403 4380 	and.w	r3, r3, #16384	; 0x4000
 8005814:	2b00      	cmp	r3, #0
 8005816:	d014      	beq.n	8005842 <USB_ActivateEndpoint+0x4b6>
 8005818:	687a      	ldr	r2, [r7, #4]
 800581a:	683b      	ldr	r3, [r7, #0]
 800581c:	781b      	ldrb	r3, [r3, #0]
 800581e:	009b      	lsls	r3, r3, #2
 8005820:	4413      	add	r3, r2
 8005822:	881b      	ldrh	r3, [r3, #0]
 8005824:	b29b      	uxth	r3, r3
 8005826:	f423 43e0 	bic.w	r3, r3, #28672	; 0x7000
 800582a:	f023 0370 	bic.w	r3, r3, #112	; 0x70
 800582e:	b29c      	uxth	r4, r3
 8005830:	687a      	ldr	r2, [r7, #4]
 8005832:	683b      	ldr	r3, [r7, #0]
 8005834:	781b      	ldrb	r3, [r3, #0]
 8005836:	009b      	lsls	r3, r3, #2
 8005838:	441a      	add	r2, r3
 800583a:	4b2c      	ldr	r3, [pc, #176]	; (80058ec <USB_ActivateEndpoint+0x560>)
 800583c:	4323      	orrs	r3, r4
 800583e:	b29b      	uxth	r3, r3
 8005840:	8013      	strh	r3, [r2, #0]
 8005842:	687a      	ldr	r2, [r7, #4]
 8005844:	683b      	ldr	r3, [r7, #0]
 8005846:	781b      	ldrb	r3, [r3, #0]
 8005848:	009b      	lsls	r3, r3, #2
 800584a:	4413      	add	r3, r2
 800584c:	881b      	ldrh	r3, [r3, #0]
 800584e:	b29c      	uxth	r4, r3
 8005850:	4623      	mov	r3, r4
 8005852:	f003 0340 	and.w	r3, r3, #64	; 0x40
 8005856:	2b00      	cmp	r3, #0
 8005858:	d014      	beq.n	8005884 <USB_ActivateEndpoint+0x4f8>
 800585a:	687a      	ldr	r2, [r7, #4]
 800585c:	683b      	ldr	r3, [r7, #0]
 800585e:	781b      	ldrb	r3, [r3, #0]
 8005860:	009b      	lsls	r3, r3, #2
 8005862:	4413      	add	r3, r2
 8005864:	881b      	ldrh	r3, [r3, #0]
 8005866:	b29b      	uxth	r3, r3
 8005868:	f423 43e0 	bic.w	r3, r3, #28672	; 0x7000
 800586c:	f023 0370 	bic.w	r3, r3, #112	; 0x70
 8005870:	b29c      	uxth	r4, r3
 8005872:	687a      	ldr	r2, [r7, #4]
 8005874:	683b      	ldr	r3, [r7, #0]
 8005876:	781b      	ldrb	r3, [r3, #0]
 8005878:	009b      	lsls	r3, r3, #2
 800587a:	441a      	add	r2, r3
 800587c:	4b1c      	ldr	r3, [pc, #112]	; (80058f0 <USB_ActivateEndpoint+0x564>)
 800587e:	4323      	orrs	r3, r4
 8005880:	b29b      	uxth	r3, r3
 8005882:	8013      	strh	r3, [r2, #0]
 8005884:	687a      	ldr	r2, [r7, #4]
 8005886:	683b      	ldr	r3, [r7, #0]
 8005888:	781b      	ldrb	r3, [r3, #0]
 800588a:	009b      	lsls	r3, r3, #2
 800588c:	4413      	add	r3, r2
 800588e:	881b      	ldrh	r3, [r3, #0]
 8005890:	b29b      	uxth	r3, r3
 8005892:	f423 43e0 	bic.w	r3, r3, #28672	; 0x7000
 8005896:	f023 0370 	bic.w	r3, r3, #112	; 0x70
 800589a:	b29c      	uxth	r4, r3
 800589c:	687a      	ldr	r2, [r7, #4]
 800589e:	683b      	ldr	r3, [r7, #0]
 80058a0:	781b      	ldrb	r3, [r3, #0]
 80058a2:	009b      	lsls	r3, r3, #2
 80058a4:	441a      	add	r2, r3
 80058a6:	4b11      	ldr	r3, [pc, #68]	; (80058ec <USB_ActivateEndpoint+0x560>)
 80058a8:	4323      	orrs	r3, r4
 80058aa:	b29b      	uxth	r3, r3
 80058ac:	8013      	strh	r3, [r2, #0]
 80058ae:	683b      	ldr	r3, [r7, #0]
 80058b0:	78db      	ldrb	r3, [r3, #3]
 80058b2:	2b01      	cmp	r3, #1
 80058b4:	d020      	beq.n	80058f8 <USB_ActivateEndpoint+0x56c>
 80058b6:	687a      	ldr	r2, [r7, #4]
 80058b8:	683b      	ldr	r3, [r7, #0]
 80058ba:	781b      	ldrb	r3, [r3, #0]
 80058bc:	009b      	lsls	r3, r3, #2
 80058be:	4413      	add	r3, r2
 80058c0:	881b      	ldrh	r3, [r3, #0]
 80058c2:	b29b      	uxth	r3, r3
 80058c4:	f423 43e0 	bic.w	r3, r3, #28672	; 0x7000
 80058c8:	f023 0340 	bic.w	r3, r3, #64	; 0x40
 80058cc:	b29c      	uxth	r4, r3
 80058ce:	f084 0320 	eor.w	r3, r4, #32
 80058d2:	b29c      	uxth	r4, r3
 80058d4:	687a      	ldr	r2, [r7, #4]
 80058d6:	683b      	ldr	r3, [r7, #0]
 80058d8:	781b      	ldrb	r3, [r3, #0]
 80058da:	009b      	lsls	r3, r3, #2
 80058dc:	441a      	add	r2, r3
 80058de:	4b05      	ldr	r3, [pc, #20]	; (80058f4 <USB_ActivateEndpoint+0x568>)
 80058e0:	4323      	orrs	r3, r4
 80058e2:	b29b      	uxth	r3, r3
 80058e4:	8013      	strh	r3, [r2, #0]
 80058e6:	e01c      	b.n	8005922 <USB_ActivateEndpoint+0x596>
 80058e8:	ffff8180 	.word	0xffff8180
 80058ec:	ffffc080 	.word	0xffffc080
 80058f0:	ffff80c0 	.word	0xffff80c0
 80058f4:	ffff8080 	.word	0xffff8080
 80058f8:	687a      	ldr	r2, [r7, #4]
 80058fa:	683b      	ldr	r3, [r7, #0]
 80058fc:	781b      	ldrb	r3, [r3, #0]
 80058fe:	009b      	lsls	r3, r3, #2
 8005900:	4413      	add	r3, r2
 8005902:	881b      	ldrh	r3, [r3, #0]
 8005904:	b29b      	uxth	r3, r3
 8005906:	f423 43e0 	bic.w	r3, r3, #28672	; 0x7000
 800590a:	f023 0340 	bic.w	r3, r3, #64	; 0x40
 800590e:	b29c      	uxth	r4, r3
 8005910:	687a      	ldr	r2, [r7, #4]
 8005912:	683b      	ldr	r3, [r7, #0]
 8005914:	781b      	ldrb	r3, [r3, #0]
 8005916:	009b      	lsls	r3, r3, #2
 8005918:	441a      	add	r2, r3
 800591a:	4b0f      	ldr	r3, [pc, #60]	; (8005958 <USB_ActivateEndpoint+0x5cc>)
 800591c:	4323      	orrs	r3, r4
 800591e:	b29b      	uxth	r3, r3
 8005920:	8013      	strh	r3, [r2, #0]
 8005922:	687a      	ldr	r2, [r7, #4]
 8005924:	683b      	ldr	r3, [r7, #0]
 8005926:	781b      	ldrb	r3, [r3, #0]
 8005928:	009b      	lsls	r3, r3, #2
 800592a:	4413      	add	r3, r2
 800592c:	881b      	ldrh	r3, [r3, #0]
 800592e:	b29b      	uxth	r3, r3
 8005930:	f423 4380 	bic.w	r3, r3, #16384	; 0x4000
 8005934:	f023 0370 	bic.w	r3, r3, #112	; 0x70
 8005938:	b29c      	uxth	r4, r3
 800593a:	687a      	ldr	r2, [r7, #4]
 800593c:	683b      	ldr	r3, [r7, #0]
 800593e:	781b      	ldrb	r3, [r3, #0]
 8005940:	009b      	lsls	r3, r3, #2
 8005942:	441a      	add	r2, r3
 8005944:	4b04      	ldr	r3, [pc, #16]	; (8005958 <USB_ActivateEndpoint+0x5cc>)
 8005946:	4323      	orrs	r3, r4
 8005948:	b29b      	uxth	r3, r3
 800594a:	8013      	strh	r3, [r2, #0]
 800594c:	7dfb      	ldrb	r3, [r7, #23]
 800594e:	4618      	mov	r0, r3
 8005950:	3718      	adds	r7, #24
 8005952:	46bd      	mov	sp, r7
 8005954:	bc90      	pop	{r4, r7}
 8005956:	4770      	bx	lr
 8005958:	ffff8080 	.word	0xffff8080

0800595c <USB_DeactivateEndpoint>:
 800595c:	b490      	push	{r4, r7}
 800595e:	b082      	sub	sp, #8
 8005960:	af00      	add	r7, sp, #0
 8005962:	6078      	str	r0, [r7, #4]
 8005964:	6039      	str	r1, [r7, #0]
 8005966:	683b      	ldr	r3, [r7, #0]
 8005968:	7b1b      	ldrb	r3, [r3, #12]
 800596a:	2b00      	cmp	r3, #0
 800596c:	d171      	bne.n	8005a52 <USB_DeactivateEndpoint+0xf6>
 800596e:	683b      	ldr	r3, [r7, #0]
 8005970:	785b      	ldrb	r3, [r3, #1]
 8005972:	2b00      	cmp	r3, #0
 8005974:	d036      	beq.n	80059e4 <USB_DeactivateEndpoint+0x88>
 8005976:	687a      	ldr	r2, [r7, #4]
 8005978:	683b      	ldr	r3, [r7, #0]
 800597a:	781b      	ldrb	r3, [r3, #0]
 800597c:	009b      	lsls	r3, r3, #2
 800597e:	4413      	add	r3, r2
 8005980:	881b      	ldrh	r3, [r3, #0]
 8005982:	b29c      	uxth	r4, r3
 8005984:	4623      	mov	r3, r4
 8005986:	f003 0340 	and.w	r3, r3, #64	; 0x40
 800598a:	2b00      	cmp	r3, #0
 800598c:	d014      	beq.n	80059b8 <USB_DeactivateEndpoint+0x5c>
 800598e:	687a      	ldr	r2, [r7, #4]
 8005990:	683b      	ldr	r3, [r7, #0]
 8005992:	781b      	ldrb	r3, [r3, #0]
 8005994:	009b      	lsls	r3, r3, #2
 8005996:	4413      	add	r3, r2
 8005998:	881b      	ldrh	r3, [r3, #0]
 800599a:	b29b      	uxth	r3, r3
 800599c:	f423 43e0 	bic.w	r3, r3, #28672	; 0x7000
 80059a0:	f023 0370 	bic.w	r3, r3, #112	; 0x70
 80059a4:	b29c      	uxth	r4, r3
 80059a6:	687a      	ldr	r2, [r7, #4]
 80059a8:	683b      	ldr	r3, [r7, #0]
 80059aa:	781b      	ldrb	r3, [r3, #0]
 80059ac:	009b      	lsls	r3, r3, #2
 80059ae:	441a      	add	r2, r3
 80059b0:	4b6b      	ldr	r3, [pc, #428]	; (8005b60 <USB_DeactivateEndpoint+0x204>)
 80059b2:	4323      	orrs	r3, r4
 80059b4:	b29b      	uxth	r3, r3
 80059b6:	8013      	strh	r3, [r2, #0]
 80059b8:	687a      	ldr	r2, [r7, #4]
 80059ba:	683b      	ldr	r3, [r7, #0]
 80059bc:	781b      	ldrb	r3, [r3, #0]
 80059be:	009b      	lsls	r3, r3, #2
 80059c0:	4413      	add	r3, r2
 80059c2:	881b      	ldrh	r3, [r3, #0]
 80059c4:	b29b      	uxth	r3, r3
 80059c6:	f423 43e0 	bic.w	r3, r3, #28672	; 0x7000
 80059ca:	f023 0340 	bic.w	r3, r3, #64	; 0x40
 80059ce:	b29c      	uxth	r4, r3
 80059d0:	687a      	ldr	r2, [r7, #4]
 80059d2:	683b      	ldr	r3, [r7, #0]
 80059d4:	781b      	ldrb	r3, [r3, #0]
 80059d6:	009b      	lsls	r3, r3, #2
 80059d8:	441a      	add	r2, r3
 80059da:	4b62      	ldr	r3, [pc, #392]	; (8005b64 <USB_DeactivateEndpoint+0x208>)
 80059dc:	4323      	orrs	r3, r4
 80059de:	b29b      	uxth	r3, r3
 80059e0:	8013      	strh	r3, [r2, #0]
 80059e2:	e144      	b.n	8005c6e <USB_DeactivateEndpoint+0x312>
 80059e4:	687a      	ldr	r2, [r7, #4]
 80059e6:	683b      	ldr	r3, [r7, #0]
 80059e8:	781b      	ldrb	r3, [r3, #0]
 80059ea:	009b      	lsls	r3, r3, #2
 80059ec:	4413      	add	r3, r2
 80059ee:	881b      	ldrh	r3, [r3, #0]
 80059f0:	b29c      	uxth	r4, r3
 80059f2:	4623      	mov	r3, r4
 80059f4:	f403 4380 	and.w	r3, r3, #16384	; 0x4000
 80059f8:	2b00      	cmp	r3, #0
 80059fa:	d014      	beq.n	8005a26 <USB_DeactivateEndpoint+0xca>
 80059fc:	687a      	ldr	r2, [r7, #4]
 80059fe:	683b      	ldr	r3, [r7, #0]
 8005a00:	781b      	ldrb	r3, [r3, #0]
 8005a02:	009b      	lsls	r3, r3, #2
 8005a04:	4413      	add	r3, r2
 8005a06:	881b      	ldrh	r3, [r3, #0]
 8005a08:	b29b      	uxth	r3, r3
 8005a0a:	f423 43e0 	bic.w	r3, r3, #28672	; 0x7000
 8005a0e:	f023 0370 	bic.w	r3, r3, #112	; 0x70
 8005a12:	b29c      	uxth	r4, r3
 8005a14:	687a      	ldr	r2, [r7, #4]
 8005a16:	683b      	ldr	r3, [r7, #0]
 8005a18:	781b      	ldrb	r3, [r3, #0]
 8005a1a:	009b      	lsls	r3, r3, #2
 8005a1c:	441a      	add	r2, r3
 8005a1e:	4b52      	ldr	r3, [pc, #328]	; (8005b68 <USB_DeactivateEndpoint+0x20c>)
 8005a20:	4323      	orrs	r3, r4
 8005a22:	b29b      	uxth	r3, r3
 8005a24:	8013      	strh	r3, [r2, #0]
 8005a26:	687a      	ldr	r2, [r7, #4]
 8005a28:	683b      	ldr	r3, [r7, #0]
 8005a2a:	781b      	ldrb	r3, [r3, #0]
 8005a2c:	009b      	lsls	r3, r3, #2
 8005a2e:	4413      	add	r3, r2
 8005a30:	881b      	ldrh	r3, [r3, #0]
 8005a32:	b29b      	uxth	r3, r3
 8005a34:	f423 4380 	bic.w	r3, r3, #16384	; 0x4000
 8005a38:	f023 0370 	bic.w	r3, r3, #112	; 0x70
 8005a3c:	b29c      	uxth	r4, r3
 8005a3e:	687a      	ldr	r2, [r7, #4]
 8005a40:	683b      	ldr	r3, [r7, #0]
 8005a42:	781b      	ldrb	r3, [r3, #0]
 8005a44:	009b      	lsls	r3, r3, #2
 8005a46:	441a      	add	r2, r3
 8005a48:	4b46      	ldr	r3, [pc, #280]	; (8005b64 <USB_DeactivateEndpoint+0x208>)
 8005a4a:	4323      	orrs	r3, r4
 8005a4c:	b29b      	uxth	r3, r3
 8005a4e:	8013      	strh	r3, [r2, #0]
 8005a50:	e10d      	b.n	8005c6e <USB_DeactivateEndpoint+0x312>
 8005a52:	683b      	ldr	r3, [r7, #0]
 8005a54:	785b      	ldrb	r3, [r3, #1]
 8005a56:	2b00      	cmp	r3, #0
 8005a58:	f040 8088 	bne.w	8005b6c <USB_DeactivateEndpoint+0x210>
 8005a5c:	687a      	ldr	r2, [r7, #4]
 8005a5e:	683b      	ldr	r3, [r7, #0]
 8005a60:	781b      	ldrb	r3, [r3, #0]
 8005a62:	009b      	lsls	r3, r3, #2
 8005a64:	4413      	add	r3, r2
 8005a66:	881b      	ldrh	r3, [r3, #0]
 8005a68:	b29c      	uxth	r4, r3
 8005a6a:	4623      	mov	r3, r4
 8005a6c:	f403 4380 	and.w	r3, r3, #16384	; 0x4000
 8005a70:	2b00      	cmp	r3, #0
 8005a72:	d014      	beq.n	8005a9e <USB_DeactivateEndpoint+0x142>
 8005a74:	687a      	ldr	r2, [r7, #4]
 8005a76:	683b      	ldr	r3, [r7, #0]
 8005a78:	781b      	ldrb	r3, [r3, #0]
 8005a7a:	009b      	lsls	r3, r3, #2
 8005a7c:	4413      	add	r3, r2
 8005a7e:	881b      	ldrh	r3, [r3, #0]
 8005a80:	b29b      	uxth	r3, r3
 8005a82:	f423 43e0 	bic.w	r3, r3, #28672	; 0x7000
 8005a86:	f023 0370 	bic.w	r3, r3, #112	; 0x70
 8005a8a:	b29c      	uxth	r4, r3
 8005a8c:	687a      	ldr	r2, [r7, #4]
 8005a8e:	683b      	ldr	r3, [r7, #0]
 8005a90:	781b      	ldrb	r3, [r3, #0]
 8005a92:	009b      	lsls	r3, r3, #2
 8005a94:	441a      	add	r2, r3
 8005a96:	4b34      	ldr	r3, [pc, #208]	; (8005b68 <USB_DeactivateEndpoint+0x20c>)
 8005a98:	4323      	orrs	r3, r4
 8005a9a:	b29b      	uxth	r3, r3
 8005a9c:	8013      	strh	r3, [r2, #0]
 8005a9e:	687a      	ldr	r2, [r7, #4]
 8005aa0:	683b      	ldr	r3, [r7, #0]
 8005aa2:	781b      	ldrb	r3, [r3, #0]
 8005aa4:	009b      	lsls	r3, r3, #2
 8005aa6:	4413      	add	r3, r2
 8005aa8:	881b      	ldrh	r3, [r3, #0]
 8005aaa:	b29c      	uxth	r4, r3
 8005aac:	4623      	mov	r3, r4
 8005aae:	f003 0340 	and.w	r3, r3, #64	; 0x40
 8005ab2:	2b00      	cmp	r3, #0
 8005ab4:	d014      	beq.n	8005ae0 <USB_DeactivateEndpoint+0x184>
 8005ab6:	687a      	ldr	r2, [r7, #4]
 8005ab8:	683b      	ldr	r3, [r7, #0]
 8005aba:	781b      	ldrb	r3, [r3, #0]
 8005abc:	009b      	lsls	r3, r3, #2
 8005abe:	4413      	add	r3, r2
 8005ac0:	881b      	ldrh	r3, [r3, #0]
 8005ac2:	b29b      	uxth	r3, r3
 8005ac4:	f423 43e0 	bic.w	r3, r3, #28672	; 0x7000
 8005ac8:	f023 0370 	bic.w	r3, r3, #112	; 0x70
 8005acc:	b29c      	uxth	r4, r3
 8005ace:	687a      	ldr	r2, [r7, #4]
 8005ad0:	683b      	ldr	r3, [r7, #0]
 8005ad2:	781b      	ldrb	r3, [r3, #0]
 8005ad4:	009b      	lsls	r3, r3, #2
 8005ad6:	441a      	add	r2, r3
 8005ad8:	4b21      	ldr	r3, [pc, #132]	; (8005b60 <USB_DeactivateEndpoint+0x204>)
 8005ada:	4323      	orrs	r3, r4
 8005adc:	b29b      	uxth	r3, r3
 8005ade:	8013      	strh	r3, [r2, #0]
 8005ae0:	687a      	ldr	r2, [r7, #4]
 8005ae2:	683b      	ldr	r3, [r7, #0]
 8005ae4:	781b      	ldrb	r3, [r3, #0]
 8005ae6:	009b      	lsls	r3, r3, #2
 8005ae8:	4413      	add	r3, r2
 8005aea:	881b      	ldrh	r3, [r3, #0]
 8005aec:	b29b      	uxth	r3, r3
 8005aee:	f423 43e0 	bic.w	r3, r3, #28672	; 0x7000
 8005af2:	f023 0370 	bic.w	r3, r3, #112	; 0x70
 8005af6:	b29c      	uxth	r4, r3
 8005af8:	687a      	ldr	r2, [r7, #4]
 8005afa:	683b      	ldr	r3, [r7, #0]
 8005afc:	781b      	ldrb	r3, [r3, #0]
 8005afe:	009b      	lsls	r3, r3, #2
 8005b00:	441a      	add	r2, r3
 8005b02:	4b17      	ldr	r3, [pc, #92]	; (8005b60 <USB_DeactivateEndpoint+0x204>)
 8005b04:	4323      	orrs	r3, r4
 8005b06:	b29b      	uxth	r3, r3
 8005b08:	8013      	strh	r3, [r2, #0]
 8005b0a:	687a      	ldr	r2, [r7, #4]
 8005b0c:	683b      	ldr	r3, [r7, #0]
 8005b0e:	781b      	ldrb	r3, [r3, #0]
 8005b10:	009b      	lsls	r3, r3, #2
 8005b12:	4413      	add	r3, r2
 8005b14:	881b      	ldrh	r3, [r3, #0]
 8005b16:	b29b      	uxth	r3, r3
 8005b18:	f423 4380 	bic.w	r3, r3, #16384	; 0x4000
 8005b1c:	f023 0370 	bic.w	r3, r3, #112	; 0x70
 8005b20:	b29c      	uxth	r4, r3
 8005b22:	687a      	ldr	r2, [r7, #4]
 8005b24:	683b      	ldr	r3, [r7, #0]
 8005b26:	781b      	ldrb	r3, [r3, #0]
 8005b28:	009b      	lsls	r3, r3, #2
 8005b2a:	441a      	add	r2, r3
 8005b2c:	4b0d      	ldr	r3, [pc, #52]	; (8005b64 <USB_DeactivateEndpoint+0x208>)
 8005b2e:	4323      	orrs	r3, r4
 8005b30:	b29b      	uxth	r3, r3
 8005b32:	8013      	strh	r3, [r2, #0]
 8005b34:	687a      	ldr	r2, [r7, #4]
 8005b36:	683b      	ldr	r3, [r7, #0]
 8005b38:	781b      	ldrb	r3, [r3, #0]
 8005b3a:	009b      	lsls	r3, r3, #2
 8005b3c:	4413      	add	r3, r2
 8005b3e:	881b      	ldrh	r3, [r3, #0]
 8005b40:	b29b      	uxth	r3, r3
 8005b42:	f423 43e0 	bic.w	r3, r3, #28672	; 0x7000
 8005b46:	f023 0340 	bic.w	r3, r3, #64	; 0x40
 8005b4a:	b29c      	uxth	r4, r3
 8005b4c:	687a      	ldr	r2, [r7, #4]
 8005b4e:	683b      	ldr	r3, [r7, #0]
 8005b50:	781b      	ldrb	r3, [r3, #0]
 8005b52:	009b      	lsls	r3, r3, #2
 8005b54:	441a      	add	r2, r3
 8005b56:	4b03      	ldr	r3, [pc, #12]	; (8005b64 <USB_DeactivateEndpoint+0x208>)
 8005b58:	4323      	orrs	r3, r4
 8005b5a:	b29b      	uxth	r3, r3
 8005b5c:	8013      	strh	r3, [r2, #0]
 8005b5e:	e086      	b.n	8005c6e <USB_DeactivateEndpoint+0x312>
 8005b60:	ffff80c0 	.word	0xffff80c0
 8005b64:	ffff8080 	.word	0xffff8080
 8005b68:	ffffc080 	.word	0xffffc080
 8005b6c:	687a      	ldr	r2, [r7, #4]
 8005b6e:	683b      	ldr	r3, [r7, #0]
 8005b70:	781b      	ldrb	r3, [r3, #0]
 8005b72:	009b      	lsls	r3, r3, #2
 8005b74:	4413      	add	r3, r2
 8005b76:	881b      	ldrh	r3, [r3, #0]
 8005b78:	b29c      	uxth	r4, r3
 8005b7a:	4623      	mov	r3, r4
 8005b7c:	f403 4380 	and.w	r3, r3, #16384	; 0x4000
 8005b80:	2b00      	cmp	r3, #0
 8005b82:	d014      	beq.n	8005bae <USB_DeactivateEndpoint+0x252>
 8005b84:	687a      	ldr	r2, [r7, #4]
 8005b86:	683b      	ldr	r3, [r7, #0]
 8005b88:	781b      	ldrb	r3, [r3, #0]
 8005b8a:	009b      	lsls	r3, r3, #2
 8005b8c:	4413      	add	r3, r2
 8005b8e:	881b      	ldrh	r3, [r3, #0]
 8005b90:	b29b      	uxth	r3, r3
 8005b92:	f423 43e0 	bic.w	r3, r3, #28672	; 0x7000
 8005b96:	f023 0370 	bic.w	r3, r3, #112	; 0x70
 8005b9a:	b29c      	uxth	r4, r3
 8005b9c:	687a      	ldr	r2, [r7, #4]
 8005b9e:	683b      	ldr	r3, [r7, #0]
 8005ba0:	781b      	ldrb	r3, [r3, #0]
 8005ba2:	009b      	lsls	r3, r3, #2
 8005ba4:	441a      	add	r2, r3
 8005ba6:	4b35      	ldr	r3, [pc, #212]	; (8005c7c <USB_DeactivateEndpoint+0x320>)
 8005ba8:	4323      	orrs	r3, r4
 8005baa:	b29b      	uxth	r3, r3
 8005bac:	8013      	strh	r3, [r2, #0]
 8005bae:	687a      	ldr	r2, [r7, #4]
 8005bb0:	683b      	ldr	r3, [r7, #0]
 8005bb2:	781b      	ldrb	r3, [r3, #0]
 8005bb4:	009b      	lsls	r3, r3, #2
 8005bb6:	4413      	add	r3, r2
 8005bb8:	881b      	ldrh	r3, [r3, #0]
 8005bba:	b29c      	uxth	r4, r3
 8005bbc:	4623      	mov	r3, r4
 8005bbe:	f003 0340 	and.w	r3, r3, #64	; 0x40
 8005bc2:	2b00      	cmp	r3, #0
 8005bc4:	d014      	beq.n	8005bf0 <USB_DeactivateEndpoint+0x294>
 8005bc6:	687a      	ldr	r2, [r7, #4]
 8005bc8:	683b      	ldr	r3, [r7, #0]
 8005bca:	781b      	ldrb	r3, [r3, #0]
 8005bcc:	009b      	lsls	r3, r3, #2
 8005bce:	4413      	add	r3, r2
 8005bd0:	881b      	ldrh	r3, [r3, #0]
 8005bd2:	b29b      	uxth	r3, r3
 8005bd4:	f423 43e0 	bic.w	r3, r3, #28672	; 0x7000
 8005bd8:	f023 0370 	bic.w	r3, r3, #112	; 0x70
 8005bdc:	b29c      	uxth	r4, r3
 8005bde:	687a      	ldr	r2, [r7, #4]
 8005be0:	683b      	ldr	r3, [r7, #0]
 8005be2:	781b      	ldrb	r3, [r3, #0]
 8005be4:	009b      	lsls	r3, r3, #2
 8005be6:	441a      	add	r2, r3
 8005be8:	4b25      	ldr	r3, [pc, #148]	; (8005c80 <USB_DeactivateEndpoint+0x324>)
 8005bea:	4323      	orrs	r3, r4
 8005bec:	b29b      	uxth	r3, r3
 8005bee:	8013      	strh	r3, [r2, #0]
 8005bf0:	687a      	ldr	r2, [r7, #4]
 8005bf2:	683b      	ldr	r3, [r7, #0]
 8005bf4:	781b      	ldrb	r3, [r3, #0]
 8005bf6:	009b      	lsls	r3, r3, #2
 8005bf8:	4413      	add	r3, r2
 8005bfa:	881b      	ldrh	r3, [r3, #0]
 8005bfc:	b29b      	uxth	r3, r3
 8005bfe:	f423 43e0 	bic.w	r3, r3, #28672	; 0x7000
 8005c02:	f023 0370 	bic.w	r3, r3, #112	; 0x70
 8005c06:	b29c      	uxth	r4, r3
 8005c08:	687a      	ldr	r2, [r7, #4]
 8005c0a:	683b      	ldr	r3, [r7, #0]
 8005c0c:	781b      	ldrb	r3, [r3, #0]
 8005c0e:	009b      	lsls	r3, r3, #2
 8005c10:	441a      	add	r2, r3
 8005c12:	4b1a      	ldr	r3, [pc, #104]	; (8005c7c <USB_DeactivateEndpoint+0x320>)
 8005c14:	4323      	orrs	r3, r4
 8005c16:	b29b      	uxth	r3, r3
 8005c18:	8013      	strh	r3, [r2, #0]
 8005c1a:	687a      	ldr	r2, [r7, #4]
 8005c1c:	683b      	ldr	r3, [r7, #0]
 8005c1e:	781b      	ldrb	r3, [r3, #0]
 8005c20:	009b      	lsls	r3, r3, #2
 8005c22:	4413      	add	r3, r2
 8005c24:	881b      	ldrh	r3, [r3, #0]
 8005c26:	b29b      	uxth	r3, r3
 8005c28:	f423 43e0 	bic.w	r3, r3, #28672	; 0x7000
 8005c2c:	f023 0340 	bic.w	r3, r3, #64	; 0x40
 8005c30:	b29c      	uxth	r4, r3
 8005c32:	687a      	ldr	r2, [r7, #4]
 8005c34:	683b      	ldr	r3, [r7, #0]
 8005c36:	781b      	ldrb	r3, [r3, #0]
 8005c38:	009b      	lsls	r3, r3, #2
 8005c3a:	441a      	add	r2, r3
 8005c3c:	4b11      	ldr	r3, [pc, #68]	; (8005c84 <USB_DeactivateEndpoint+0x328>)
 8005c3e:	4323      	orrs	r3, r4
 8005c40:	b29b      	uxth	r3, r3
 8005c42:	8013      	strh	r3, [r2, #0]
 8005c44:	687a      	ldr	r2, [r7, #4]
 8005c46:	683b      	ldr	r3, [r7, #0]
 8005c48:	781b      	ldrb	r3, [r3, #0]
 8005c4a:	009b      	lsls	r3, r3, #2
 8005c4c:	4413      	add	r3, r2
 8005c4e:	881b      	ldrh	r3, [r3, #0]
 8005c50:	b29b      	uxth	r3, r3
 8005c52:	f423 4380 	bic.w	r3, r3, #16384	; 0x4000
 8005c56:	f023 0370 	bic.w	r3, r3, #112	; 0x70
 8005c5a:	b29c      	uxth	r4, r3
 8005c5c:	687a      	ldr	r2, [r7, #4]
 8005c5e:	683b      	ldr	r3, [r7, #0]
 8005c60:	781b      	ldrb	r3, [r3, #0]
 8005c62:	009b      	lsls	r3, r3, #2
 8005c64:	441a      	add	r2, r3
 8005c66:	4b07      	ldr	r3, [pc, #28]	; (8005c84 <USB_DeactivateEndpoint+0x328>)
 8005c68:	4323      	orrs	r3, r4
 8005c6a:	b29b      	uxth	r3, r3
 8005c6c:	8013      	strh	r3, [r2, #0]
 8005c6e:	2300      	movs	r3, #0
 8005c70:	4618      	mov	r0, r3
 8005c72:	3708      	adds	r7, #8
 8005c74:	46bd      	mov	sp, r7
 8005c76:	bc90      	pop	{r4, r7}
 8005c78:	4770      	bx	lr
 8005c7a:	bf00      	nop
 8005c7c:	ffffc080 	.word	0xffffc080
 8005c80:	ffff80c0 	.word	0xffff80c0
 8005c84:	ffff8080 	.word	0xffff8080

08005c88 <USB_EPStartXfer>:
 8005c88:	b590      	push	{r4, r7, lr}
 8005c8a:	b095      	sub	sp, #84	; 0x54
 8005c8c:	af00      	add	r7, sp, #0
 8005c8e:	6078      	str	r0, [r7, #4]
 8005c90:	6039      	str	r1, [r7, #0]
 8005c92:	683b      	ldr	r3, [r7, #0]
 8005c94:	785b      	ldrb	r3, [r3, #1]
 8005c96:	2b01      	cmp	r3, #1
 8005c98:	f040 815d 	bne.w	8005f56 <USB_EPStartXfer+0x2ce>
 8005c9c:	683b      	ldr	r3, [r7, #0]
 8005c9e:	699a      	ldr	r2, [r3, #24]
 8005ca0:	683b      	ldr	r3, [r7, #0]
 8005ca2:	691b      	ldr	r3, [r3, #16]
 8005ca4:	429a      	cmp	r2, r3
 8005ca6:	d909      	bls.n	8005cbc <USB_EPStartXfer+0x34>
 8005ca8:	683b      	ldr	r3, [r7, #0]
 8005caa:	691b      	ldr	r3, [r3, #16]
 8005cac:	64bb      	str	r3, [r7, #72]	; 0x48
 8005cae:	683b      	ldr	r3, [r7, #0]
 8005cb0:	699a      	ldr	r2, [r3, #24]
 8005cb2:	6cbb      	ldr	r3, [r7, #72]	; 0x48
 8005cb4:	1ad2      	subs	r2, r2, r3
 8005cb6:	683b      	ldr	r3, [r7, #0]
 8005cb8:	619a      	str	r2, [r3, #24]
 8005cba:	e005      	b.n	8005cc8 <USB_EPStartXfer+0x40>
 8005cbc:	683b      	ldr	r3, [r7, #0]
 8005cbe:	699b      	ldr	r3, [r3, #24]
 8005cc0:	64bb      	str	r3, [r7, #72]	; 0x48
 8005cc2:	683b      	ldr	r3, [r7, #0]
 8005cc4:	2200      	movs	r2, #0
 8005cc6:	619a      	str	r2, [r3, #24]
 8005cc8:	683b      	ldr	r3, [r7, #0]
 8005cca:	7b1b      	ldrb	r3, [r3, #12]
 8005ccc:	2b00      	cmp	r3, #0
 8005cce:	d11a      	bne.n	8005d06 <USB_EPStartXfer+0x7e>
 8005cd0:	683b      	ldr	r3, [r7, #0]
 8005cd2:	6959      	ldr	r1, [r3, #20]
 8005cd4:	683b      	ldr	r3, [r7, #0]
 8005cd6:	88da      	ldrh	r2, [r3, #6]
 8005cd8:	6cbb      	ldr	r3, [r7, #72]	; 0x48
 8005cda:	b29b      	uxth	r3, r3
 8005cdc:	6878      	ldr	r0, [r7, #4]
 8005cde:	f000 fb8a 	bl	80063f6 <USB_WritePMA>
 8005ce2:	687c      	ldr	r4, [r7, #4]
 8005ce4:	687b      	ldr	r3, [r7, #4]
 8005ce6:	f8b3 3050 	ldrh.w	r3, [r3, #80]	; 0x50
 8005cea:	b29b      	uxth	r3, r3
 8005cec:	441c      	add	r4, r3
 8005cee:	683b      	ldr	r3, [r7, #0]
 8005cf0:	781b      	ldrb	r3, [r3, #0]
 8005cf2:	011b      	lsls	r3, r3, #4
 8005cf4:	4423      	add	r3, r4
 8005cf6:	f203 4304 	addw	r3, r3, #1028	; 0x404
 8005cfa:	60fb      	str	r3, [r7, #12]
 8005cfc:	6cbb      	ldr	r3, [r7, #72]	; 0x48
 8005cfe:	b29a      	uxth	r2, r3
 8005d00:	68fb      	ldr	r3, [r7, #12]
 8005d02:	801a      	strh	r2, [r3, #0]
 8005d04:	e10b      	b.n	8005f1e <USB_EPStartXfer+0x296>
 8005d06:	687a      	ldr	r2, [r7, #4]
 8005d08:	683b      	ldr	r3, [r7, #0]
 8005d0a:	781b      	ldrb	r3, [r3, #0]
 8005d0c:	009b      	lsls	r3, r3, #2
 8005d0e:	4413      	add	r3, r2
 8005d10:	881b      	ldrh	r3, [r3, #0]
 8005d12:	b29b      	uxth	r3, r3
 8005d14:	f003 0340 	and.w	r3, r3, #64	; 0x40
 8005d18:	2b00      	cmp	r3, #0
 8005d1a:	d062      	beq.n	8005de2 <USB_EPStartXfer+0x15a>
 8005d1c:	687c      	ldr	r4, [r7, #4]
 8005d1e:	683b      	ldr	r3, [r7, #0]
 8005d20:	785b      	ldrb	r3, [r3, #1]
 8005d22:	2b00      	cmp	r3, #0
 8005d24:	d144      	bne.n	8005db0 <USB_EPStartXfer+0x128>
 8005d26:	687c      	ldr	r4, [r7, #4]
 8005d28:	687b      	ldr	r3, [r7, #4]
 8005d2a:	f8b3 3050 	ldrh.w	r3, [r3, #80]	; 0x50
 8005d2e:	b29b      	uxth	r3, r3
 8005d30:	441c      	add	r4, r3
 8005d32:	683b      	ldr	r3, [r7, #0]
 8005d34:	781b      	ldrb	r3, [r3, #0]
 8005d36:	011b      	lsls	r3, r3, #4
 8005d38:	4423      	add	r3, r4
 8005d3a:	f203 430c 	addw	r3, r3, #1036	; 0x40c
 8005d3e:	613b      	str	r3, [r7, #16]
 8005d40:	6cbb      	ldr	r3, [r7, #72]	; 0x48
 8005d42:	2b00      	cmp	r3, #0
 8005d44:	d110      	bne.n	8005d68 <USB_EPStartXfer+0xe0>
 8005d46:	693b      	ldr	r3, [r7, #16]
 8005d48:	881b      	ldrh	r3, [r3, #0]
 8005d4a:	f423 43f8 	bic.w	r3, r3, #31744	; 0x7c00
 8005d4e:	b29a      	uxth	r2, r3
 8005d50:	693b      	ldr	r3, [r7, #16]
 8005d52:	801a      	strh	r2, [r3, #0]
 8005d54:	693b      	ldr	r3, [r7, #16]
 8005d56:	881b      	ldrh	r3, [r3, #0]
 8005d58:	ea6f 4343 	mvn.w	r3, r3, lsl #17
 8005d5c:	ea6f 4353 	mvn.w	r3, r3, lsr #17
 8005d60:	b29a      	uxth	r2, r3
 8005d62:	693b      	ldr	r3, [r7, #16]
 8005d64:	801a      	strh	r2, [r3, #0]
 8005d66:	e037      	b.n	8005dd8 <USB_EPStartXfer+0x150>
 8005d68:	6cbb      	ldr	r3, [r7, #72]	; 0x48
 8005d6a:	2b3d      	cmp	r3, #61	; 0x3d
 8005d6c:	d811      	bhi.n	8005d92 <USB_EPStartXfer+0x10a>
 8005d6e:	6cbb      	ldr	r3, [r7, #72]	; 0x48
 8005d70:	085b      	lsrs	r3, r3, #1
 8005d72:	647b      	str	r3, [r7, #68]	; 0x44
 8005d74:	6cbb      	ldr	r3, [r7, #72]	; 0x48
 8005d76:	f003 0301 	and.w	r3, r3, #1
 8005d7a:	2b00      	cmp	r3, #0
 8005d7c:	d002      	beq.n	8005d84 <USB_EPStartXfer+0xfc>
 8005d7e:	6c7b      	ldr	r3, [r7, #68]	; 0x44
 8005d80:	3301      	adds	r3, #1
 8005d82:	647b      	str	r3, [r7, #68]	; 0x44
 8005d84:	6c7b      	ldr	r3, [r7, #68]	; 0x44
 8005d86:	b29b      	uxth	r3, r3
 8005d88:	029b      	lsls	r3, r3, #10
 8005d8a:	b29a      	uxth	r2, r3
 8005d8c:	693b      	ldr	r3, [r7, #16]
 8005d8e:	801a      	strh	r2, [r3, #0]
 8005d90:	e022      	b.n	8005dd8 <USB_EPStartXfer+0x150>
 8005d92:	6cbb      	ldr	r3, [r7, #72]	; 0x48
 8005d94:	095b      	lsrs	r3, r3, #5
 8005d96:	647b      	str	r3, [r7, #68]	; 0x44
 8005d98:	6c7b      	ldr	r3, [r7, #68]	; 0x44
 8005d9a:	b29b      	uxth	r3, r3
 8005d9c:	029b      	lsls	r3, r3, #10
 8005d9e:	b29b      	uxth	r3, r3
 8005da0:	ea6f 4343 	mvn.w	r3, r3, lsl #17
 8005da4:	ea6f 4353 	mvn.w	r3, r3, lsr #17
 8005da8:	b29a      	uxth	r2, r3
 8005daa:	693b      	ldr	r3, [r7, #16]
 8005dac:	801a      	strh	r2, [r3, #0]
 8005dae:	e013      	b.n	8005dd8 <USB_EPStartXfer+0x150>
 8005db0:	683b      	ldr	r3, [r7, #0]
 8005db2:	785b      	ldrb	r3, [r3, #1]
 8005db4:	2b01      	cmp	r3, #1
 8005db6:	d10f      	bne.n	8005dd8 <USB_EPStartXfer+0x150>
 8005db8:	687b      	ldr	r3, [r7, #4]
 8005dba:	f8b3 3050 	ldrh.w	r3, [r3, #80]	; 0x50
 8005dbe:	b29b      	uxth	r3, r3
 8005dc0:	441c      	add	r4, r3
 8005dc2:	683b      	ldr	r3, [r7, #0]
 8005dc4:	781b      	ldrb	r3, [r3, #0]
 8005dc6:	011b      	lsls	r3, r3, #4
 8005dc8:	4423      	add	r3, r4
 8005dca:	f203 430c 	addw	r3, r3, #1036	; 0x40c
 8005dce:	617b      	str	r3, [r7, #20]
 8005dd0:	6cbb      	ldr	r3, [r7, #72]	; 0x48
 8005dd2:	b29a      	uxth	r2, r3
 8005dd4:	697b      	ldr	r3, [r7, #20]
 8005dd6:	801a      	strh	r2, [r3, #0]
 8005dd8:	683b      	ldr	r3, [r7, #0]
 8005dda:	895b      	ldrh	r3, [r3, #10]
 8005ddc:	f8a7 304e 	strh.w	r3, [r7, #78]	; 0x4e
 8005de0:	e061      	b.n	8005ea6 <USB_EPStartXfer+0x21e>
 8005de2:	683b      	ldr	r3, [r7, #0]
 8005de4:	785b      	ldrb	r3, [r3, #1]
 8005de6:	2b00      	cmp	r3, #0
 8005de8:	d144      	bne.n	8005e74 <USB_EPStartXfer+0x1ec>
 8005dea:	687c      	ldr	r4, [r7, #4]
 8005dec:	687b      	ldr	r3, [r7, #4]
 8005dee:	f8b3 3050 	ldrh.w	r3, [r3, #80]	; 0x50
 8005df2:	b29b      	uxth	r3, r3
 8005df4:	441c      	add	r4, r3
 8005df6:	683b      	ldr	r3, [r7, #0]
 8005df8:	781b      	ldrb	r3, [r3, #0]
 8005dfa:	011b      	lsls	r3, r3, #4
 8005dfc:	4423      	add	r3, r4
 8005dfe:	f203 4304 	addw	r3, r3, #1028	; 0x404
 8005e02:	61bb      	str	r3, [r7, #24]
 8005e04:	6cbb      	ldr	r3, [r7, #72]	; 0x48
 8005e06:	2b00      	cmp	r3, #0
 8005e08:	d110      	bne.n	8005e2c <USB_EPStartXfer+0x1a4>
 8005e0a:	69bb      	ldr	r3, [r7, #24]
 8005e0c:	881b      	ldrh	r3, [r3, #0]
 8005e0e:	f423 43f8 	bic.w	r3, r3, #31744	; 0x7c00
 8005e12:	b29a      	uxth	r2, r3
 8005e14:	69bb      	ldr	r3, [r7, #24]
 8005e16:	801a      	strh	r2, [r3, #0]
 8005e18:	69bb      	ldr	r3, [r7, #24]
 8005e1a:	881b      	ldrh	r3, [r3, #0]
 8005e1c:	ea6f 4343 	mvn.w	r3, r3, lsl #17
 8005e20:	ea6f 4353 	mvn.w	r3, r3, lsr #17
 8005e24:	b29a      	uxth	r2, r3
 8005e26:	69bb      	ldr	r3, [r7, #24]
 8005e28:	801a      	strh	r2, [r3, #0]
 8005e2a:	e038      	b.n	8005e9e <USB_EPStartXfer+0x216>
 8005e2c:	6cbb      	ldr	r3, [r7, #72]	; 0x48
 8005e2e:	2b3d      	cmp	r3, #61	; 0x3d
 8005e30:	d811      	bhi.n	8005e56 <USB_EPStartXfer+0x1ce>
 8005e32:	6cbb      	ldr	r3, [r7, #72]	; 0x48
 8005e34:	085b      	lsrs	r3, r3, #1
 8005e36:	643b      	str	r3, [r7, #64]	; 0x40
 8005e38:	6cbb      	ldr	r3, [r7, #72]	; 0x48
 8005e3a:	f003 0301 	and.w	r3, r3, #1
 8005e3e:	2b00      	cmp	r3, #0
 8005e40:	d002      	beq.n	8005e48 <USB_EPStartXfer+0x1c0>
 8005e42:	6c3b      	ldr	r3, [r7, #64]	; 0x40
 8005e44:	3301      	adds	r3, #1
 8005e46:	643b      	str	r3, [r7, #64]	; 0x40
 8005e48:	6c3b      	ldr	r3, [r7, #64]	; 0x40
 8005e4a:	b29b      	uxth	r3, r3
 8005e4c:	029b      	lsls	r3, r3, #10
 8005e4e:	b29a      	uxth	r2, r3
 8005e50:	69bb      	ldr	r3, [r7, #24]
 8005e52:	801a      	strh	r2, [r3, #0]
 8005e54:	e023      	b.n	8005e9e <USB_EPStartXfer+0x216>
 8005e56:	6cbb      	ldr	r3, [r7, #72]	; 0x48
 8005e58:	095b      	lsrs	r3, r3, #5
 8005e5a:	643b      	str	r3, [r7, #64]	; 0x40
 8005e5c:	6c3b      	ldr	r3, [r7, #64]	; 0x40
 8005e5e:	b29b      	uxth	r3, r3
 8005e60:	029b      	lsls	r3, r3, #10
 8005e62:	b29b      	uxth	r3, r3
 8005e64:	ea6f 4343 	mvn.w	r3, r3, lsl #17
 8005e68:	ea6f 4353 	mvn.w	r3, r3, lsr #17
 8005e6c:	b29a      	uxth	r2, r3
 8005e6e:	69bb      	ldr	r3, [r7, #24]
 8005e70:	801a      	strh	r2, [r3, #0]
 8005e72:	e014      	b.n	8005e9e <USB_EPStartXfer+0x216>
 8005e74:	683b      	ldr	r3, [r7, #0]
 8005e76:	785b      	ldrb	r3, [r3, #1]
 8005e78:	2b01      	cmp	r3, #1
 8005e7a:	d110      	bne.n	8005e9e <USB_EPStartXfer+0x216>
 8005e7c:	687c      	ldr	r4, [r7, #4]
 8005e7e:	687b      	ldr	r3, [r7, #4]
 8005e80:	f8b3 3050 	ldrh.w	r3, [r3, #80]	; 0x50
 8005e84:	b29b      	uxth	r3, r3
 8005e86:	441c      	add	r4, r3
 8005e88:	683b      	ldr	r3, [r7, #0]
 8005e8a:	781b      	ldrb	r3, [r3, #0]
 8005e8c:	011b      	lsls	r3, r3, #4
 8005e8e:	4423      	add	r3, r4
 8005e90:	f203 4304 	addw	r3, r3, #1028	; 0x404
 8005e94:	61fb      	str	r3, [r7, #28]
 8005e96:	6cbb      	ldr	r3, [r7, #72]	; 0x48
 8005e98:	b29a      	uxth	r2, r3
 8005e9a:	69fb      	ldr	r3, [r7, #28]
 8005e9c:	801a      	strh	r2, [r3, #0]
 8005e9e:	683b      	ldr	r3, [r7, #0]
 8005ea0:	891b      	ldrh	r3, [r3, #8]
 8005ea2:	f8a7 304e 	strh.w	r3, [r7, #78]	; 0x4e
 8005ea6:	683b      	ldr	r3, [r7, #0]
 8005ea8:	6959      	ldr	r1, [r3, #20]
 8005eaa:	6cbb      	ldr	r3, [r7, #72]	; 0x48
 8005eac:	b29b      	uxth	r3, r3
 8005eae:	f8b7 204e 	ldrh.w	r2, [r7, #78]	; 0x4e
 8005eb2:	6878      	ldr	r0, [r7, #4]
 8005eb4:	f000 fa9f 	bl	80063f6 <USB_WritePMA>
 8005eb8:	683b      	ldr	r3, [r7, #0]
 8005eba:	785b      	ldrb	r3, [r3, #1]
 8005ebc:	2b00      	cmp	r3, #0
 8005ebe:	d115      	bne.n	8005eec <USB_EPStartXfer+0x264>
 8005ec0:	687a      	ldr	r2, [r7, #4]
 8005ec2:	683b      	ldr	r3, [r7, #0]
 8005ec4:	781b      	ldrb	r3, [r3, #0]
 8005ec6:	009b      	lsls	r3, r3, #2
 8005ec8:	4413      	add	r3, r2
 8005eca:	881b      	ldrh	r3, [r3, #0]
 8005ecc:	b29b      	uxth	r3, r3
 8005ece:	f423 43e0 	bic.w	r3, r3, #28672	; 0x7000
 8005ed2:	f023 0370 	bic.w	r3, r3, #112	; 0x70
 8005ed6:	b29c      	uxth	r4, r3
 8005ed8:	687a      	ldr	r2, [r7, #4]
 8005eda:	683b      	ldr	r3, [r7, #0]
 8005edc:	781b      	ldrb	r3, [r3, #0]
 8005ede:	009b      	lsls	r3, r3, #2
 8005ee0:	441a      	add	r2, r3
 8005ee2:	4b8e      	ldr	r3, [pc, #568]	; (800611c <USB_EPStartXfer+0x494>)
 8005ee4:	4323      	orrs	r3, r4
 8005ee6:	b29b      	uxth	r3, r3
 8005ee8:	8013      	strh	r3, [r2, #0]
 8005eea:	e018      	b.n	8005f1e <USB_EPStartXfer+0x296>
 8005eec:	683b      	ldr	r3, [r7, #0]
 8005eee:	785b      	ldrb	r3, [r3, #1]
 8005ef0:	2b01      	cmp	r3, #1
 8005ef2:	d114      	bne.n	8005f1e <USB_EPStartXfer+0x296>
 8005ef4:	687a      	ldr	r2, [r7, #4]
 8005ef6:	683b      	ldr	r3, [r7, #0]
 8005ef8:	781b      	ldrb	r3, [r3, #0]
 8005efa:	009b      	lsls	r3, r3, #2
 8005efc:	4413      	add	r3, r2
 8005efe:	881b      	ldrh	r3, [r3, #0]
 8005f00:	b29b      	uxth	r3, r3
 8005f02:	f423 43e0 	bic.w	r3, r3, #28672	; 0x7000
 8005f06:	f023 0370 	bic.w	r3, r3, #112	; 0x70
 8005f0a:	b29c      	uxth	r4, r3
 8005f0c:	687a      	ldr	r2, [r7, #4]
 8005f0e:	683b      	ldr	r3, [r7, #0]
 8005f10:	781b      	ldrb	r3, [r3, #0]
 8005f12:	009b      	lsls	r3, r3, #2
 8005f14:	441a      	add	r2, r3
 8005f16:	4b82      	ldr	r3, [pc, #520]	; (8006120 <USB_EPStartXfer+0x498>)
 8005f18:	4323      	orrs	r3, r4
 8005f1a:	b29b      	uxth	r3, r3
 8005f1c:	8013      	strh	r3, [r2, #0]
 8005f1e:	687a      	ldr	r2, [r7, #4]
 8005f20:	683b      	ldr	r3, [r7, #0]
 8005f22:	781b      	ldrb	r3, [r3, #0]
 8005f24:	009b      	lsls	r3, r3, #2
 8005f26:	4413      	add	r3, r2
 8005f28:	881b      	ldrh	r3, [r3, #0]
 8005f2a:	b29b      	uxth	r3, r3
 8005f2c:	f423 43e0 	bic.w	r3, r3, #28672	; 0x7000
 8005f30:	f023 0340 	bic.w	r3, r3, #64	; 0x40
 8005f34:	b29c      	uxth	r4, r3
 8005f36:	f084 0310 	eor.w	r3, r4, #16
 8005f3a:	b29c      	uxth	r4, r3
 8005f3c:	f084 0320 	eor.w	r3, r4, #32
 8005f40:	b29c      	uxth	r4, r3
 8005f42:	687a      	ldr	r2, [r7, #4]
 8005f44:	683b      	ldr	r3, [r7, #0]
 8005f46:	781b      	ldrb	r3, [r3, #0]
 8005f48:	009b      	lsls	r3, r3, #2
 8005f4a:	441a      	add	r2, r3
 8005f4c:	4b75      	ldr	r3, [pc, #468]	; (8006124 <USB_EPStartXfer+0x49c>)
 8005f4e:	4323      	orrs	r3, r4
 8005f50:	b29b      	uxth	r3, r3
 8005f52:	8013      	strh	r3, [r2, #0]
 8005f54:	e13b      	b.n	80061ce <USB_EPStartXfer+0x546>
 8005f56:	683b      	ldr	r3, [r7, #0]
 8005f58:	699a      	ldr	r2, [r3, #24]
 8005f5a:	683b      	ldr	r3, [r7, #0]
 8005f5c:	691b      	ldr	r3, [r3, #16]
 8005f5e:	429a      	cmp	r2, r3
 8005f60:	d909      	bls.n	8005f76 <USB_EPStartXfer+0x2ee>
 8005f62:	683b      	ldr	r3, [r7, #0]
 8005f64:	691b      	ldr	r3, [r3, #16]
 8005f66:	64bb      	str	r3, [r7, #72]	; 0x48
 8005f68:	683b      	ldr	r3, [r7, #0]
 8005f6a:	699a      	ldr	r2, [r3, #24]
 8005f6c:	6cbb      	ldr	r3, [r7, #72]	; 0x48
 8005f6e:	1ad2      	subs	r2, r2, r3
 8005f70:	683b      	ldr	r3, [r7, #0]
 8005f72:	619a      	str	r2, [r3, #24]
 8005f74:	e005      	b.n	8005f82 <USB_EPStartXfer+0x2fa>
 8005f76:	683b      	ldr	r3, [r7, #0]
 8005f78:	699b      	ldr	r3, [r3, #24]
 8005f7a:	64bb      	str	r3, [r7, #72]	; 0x48
 8005f7c:	683b      	ldr	r3, [r7, #0]
 8005f7e:	2200      	movs	r2, #0
 8005f80:	619a      	str	r2, [r3, #24]
 8005f82:	683b      	ldr	r3, [r7, #0]
 8005f84:	7b1b      	ldrb	r3, [r3, #12]
 8005f86:	2b00      	cmp	r3, #0
 8005f88:	d144      	bne.n	8006014 <USB_EPStartXfer+0x38c>
 8005f8a:	687c      	ldr	r4, [r7, #4]
 8005f8c:	687b      	ldr	r3, [r7, #4]
 8005f8e:	f8b3 3050 	ldrh.w	r3, [r3, #80]	; 0x50
 8005f92:	b29b      	uxth	r3, r3
 8005f94:	441c      	add	r4, r3
 8005f96:	683b      	ldr	r3, [r7, #0]
 8005f98:	781b      	ldrb	r3, [r3, #0]
 8005f9a:	011b      	lsls	r3, r3, #4
 8005f9c:	4423      	add	r3, r4
 8005f9e:	f203 430c 	addw	r3, r3, #1036	; 0x40c
 8005fa2:	623b      	str	r3, [r7, #32]
 8005fa4:	6cbb      	ldr	r3, [r7, #72]	; 0x48
 8005fa6:	2b00      	cmp	r3, #0
 8005fa8:	d110      	bne.n	8005fcc <USB_EPStartXfer+0x344>
 8005faa:	6a3b      	ldr	r3, [r7, #32]
 8005fac:	881b      	ldrh	r3, [r3, #0]
 8005fae:	f423 43f8 	bic.w	r3, r3, #31744	; 0x7c00
 8005fb2:	b29a      	uxth	r2, r3
 8005fb4:	6a3b      	ldr	r3, [r7, #32]
 8005fb6:	801a      	strh	r2, [r3, #0]
 8005fb8:	6a3b      	ldr	r3, [r7, #32]
 8005fba:	881b      	ldrh	r3, [r3, #0]
 8005fbc:	ea6f 4343 	mvn.w	r3, r3, lsl #17
 8005fc0:	ea6f 4353 	mvn.w	r3, r3, lsr #17
 8005fc4:	b29a      	uxth	r2, r3
 8005fc6:	6a3b      	ldr	r3, [r7, #32]
 8005fc8:	801a      	strh	r2, [r3, #0]
 8005fca:	e0e5      	b.n	8006198 <USB_EPStartXfer+0x510>
 8005fcc:	6cbb      	ldr	r3, [r7, #72]	; 0x48
 8005fce:	2b3d      	cmp	r3, #61	; 0x3d
 8005fd0:	d811      	bhi.n	8005ff6 <USB_EPStartXfer+0x36e>
 8005fd2:	6cbb      	ldr	r3, [r7, #72]	; 0x48
 8005fd4:	085b      	lsrs	r3, r3, #1
 8005fd6:	63fb      	str	r3, [r7, #60]	; 0x3c
 8005fd8:	6cbb      	ldr	r3, [r7, #72]	; 0x48
 8005fda:	f003 0301 	and.w	r3, r3, #1
 8005fde:	2b00      	cmp	r3, #0
 8005fe0:	d002      	beq.n	8005fe8 <USB_EPStartXfer+0x360>
 8005fe2:	6bfb      	ldr	r3, [r7, #60]	; 0x3c
 8005fe4:	3301      	adds	r3, #1
 8005fe6:	63fb      	str	r3, [r7, #60]	; 0x3c
 8005fe8:	6bfb      	ldr	r3, [r7, #60]	; 0x3c
 8005fea:	b29b      	uxth	r3, r3
 8005fec:	029b      	lsls	r3, r3, #10
 8005fee:	b29a      	uxth	r2, r3
 8005ff0:	6a3b      	ldr	r3, [r7, #32]
 8005ff2:	801a      	strh	r2, [r3, #0]
 8005ff4:	e0d0      	b.n	8006198 <USB_EPStartXfer+0x510>
 8005ff6:	6cbb      	ldr	r3, [r7, #72]	; 0x48
 8005ff8:	095b      	lsrs	r3, r3, #5
 8005ffa:	63fb      	str	r3, [r7, #60]	; 0x3c
 8005ffc:	6bfb      	ldr	r3, [r7, #60]	; 0x3c
 8005ffe:	b29b      	uxth	r3, r3
 8006000:	029b      	lsls	r3, r3, #10
 8006002:	b29b      	uxth	r3, r3
 8006004:	ea6f 4343 	mvn.w	r3, r3, lsl #17
 8006008:	ea6f 4353 	mvn.w	r3, r3, lsr #17
 800600c:	b29a      	uxth	r2, r3
 800600e:	6a3b      	ldr	r3, [r7, #32]
 8006010:	801a      	strh	r2, [r3, #0]
 8006012:	e0c1      	b.n	8006198 <USB_EPStartXfer+0x510>
 8006014:	683b      	ldr	r3, [r7, #0]
 8006016:	785b      	ldrb	r3, [r3, #1]
 8006018:	2b00      	cmp	r3, #0
 800601a:	d144      	bne.n	80060a6 <USB_EPStartXfer+0x41e>
 800601c:	687c      	ldr	r4, [r7, #4]
 800601e:	687b      	ldr	r3, [r7, #4]
 8006020:	f8b3 3050 	ldrh.w	r3, [r3, #80]	; 0x50
 8006024:	b29b      	uxth	r3, r3
 8006026:	441c      	add	r4, r3
 8006028:	683b      	ldr	r3, [r7, #0]
 800602a:	781b      	ldrb	r3, [r3, #0]
 800602c:	011b      	lsls	r3, r3, #4
 800602e:	4423      	add	r3, r4
 8006030:	f203 4304 	addw	r3, r3, #1028	; 0x404
 8006034:	62fb      	str	r3, [r7, #44]	; 0x2c
 8006036:	6cbb      	ldr	r3, [r7, #72]	; 0x48
 8006038:	2b00      	cmp	r3, #0
 800603a:	d110      	bne.n	800605e <USB_EPStartXfer+0x3d6>
 800603c:	6afb      	ldr	r3, [r7, #44]	; 0x2c
 800603e:	881b      	ldrh	r3, [r3, #0]
 8006040:	f423 43f8 	bic.w	r3, r3, #31744	; 0x7c00
 8006044:	b29a      	uxth	r2, r3
 8006046:	6afb      	ldr	r3, [r7, #44]	; 0x2c
 8006048:	801a      	strh	r2, [r3, #0]
 800604a:	6afb      	ldr	r3, [r7, #44]	; 0x2c
 800604c:	881b      	ldrh	r3, [r3, #0]
 800604e:	ea6f 4343 	mvn.w	r3, r3, lsl #17
 8006052:	ea6f 4353 	mvn.w	r3, r3, lsr #17
 8006056:	b29a      	uxth	r2, r3
 8006058:	6afb      	ldr	r3, [r7, #44]	; 0x2c
 800605a:	801a      	strh	r2, [r3, #0]
 800605c:	e038      	b.n	80060d0 <USB_EPStartXfer+0x448>
 800605e:	6cbb      	ldr	r3, [r7, #72]	; 0x48
 8006060:	2b3d      	cmp	r3, #61	; 0x3d
 8006062:	d811      	bhi.n	8006088 <USB_EPStartXfer+0x400>
 8006064:	6cbb      	ldr	r3, [r7, #72]	; 0x48
 8006066:	085b      	lsrs	r3, r3, #1
 8006068:	63bb      	str	r3, [r7, #56]	; 0x38
 800606a:	6cbb      	ldr	r3, [r7, #72]	; 0x48
 800606c:	f003 0301 	and.w	r3, r3, #1
 8006070:	2b00      	cmp	r3, #0
 8006072:	d002      	beq.n	800607a <USB_EPStartXfer+0x3f2>
 8006074:	6bbb      	ldr	r3, [r7, #56]	; 0x38
 8006076:	3301      	adds	r3, #1
 8006078:	63bb      	str	r3, [r7, #56]	; 0x38
 800607a:	6bbb      	ldr	r3, [r7, #56]	; 0x38
 800607c:	b29b      	uxth	r3, r3
 800607e:	029b      	lsls	r3, r3, #10
 8006080:	b29a      	uxth	r2, r3
 8006082:	6afb      	ldr	r3, [r7, #44]	; 0x2c
 8006084:	801a      	strh	r2, [r3, #0]
 8006086:	e023      	b.n	80060d0 <USB_EPStartXfer+0x448>
 8006088:	6cbb      	ldr	r3, [r7, #72]	; 0x48
 800608a:	095b      	lsrs	r3, r3, #5
 800608c:	63bb      	str	r3, [r7, #56]	; 0x38
 800608e:	6bbb      	ldr	r3, [r7, #56]	; 0x38
 8006090:	b29b      	uxth	r3, r3
 8006092:	029b      	lsls	r3, r3, #10
 8006094:	b29b      	uxth	r3, r3
 8006096:	ea6f 4343 	mvn.w	r3, r3, lsl #17
 800609a:	ea6f 4353 	mvn.w	r3, r3, lsr #17
 800609e:	b29a      	uxth	r2, r3
 80060a0:	6afb      	ldr	r3, [r7, #44]	; 0x2c
 80060a2:	801a      	strh	r2, [r3, #0]
 80060a4:	e014      	b.n	80060d0 <USB_EPStartXfer+0x448>
 80060a6:	683b      	ldr	r3, [r7, #0]
 80060a8:	785b      	ldrb	r3, [r3, #1]
 80060aa:	2b01      	cmp	r3, #1
 80060ac:	d110      	bne.n	80060d0 <USB_EPStartXfer+0x448>
 80060ae:	687c      	ldr	r4, [r7, #4]
 80060b0:	687b      	ldr	r3, [r7, #4]
 80060b2:	f8b3 3050 	ldrh.w	r3, [r3, #80]	; 0x50
 80060b6:	b29b      	uxth	r3, r3
 80060b8:	441c      	add	r4, r3
 80060ba:	683b      	ldr	r3, [r7, #0]
 80060bc:	781b      	ldrb	r3, [r3, #0]
 80060be:	011b      	lsls	r3, r3, #4
 80060c0:	4423      	add	r3, r4
 80060c2:	f203 4304 	addw	r3, r3, #1028	; 0x404
 80060c6:	633b      	str	r3, [r7, #48]	; 0x30
 80060c8:	6cbb      	ldr	r3, [r7, #72]	; 0x48
 80060ca:	b29a      	uxth	r2, r3
 80060cc:	6b3b      	ldr	r3, [r7, #48]	; 0x30
 80060ce:	801a      	strh	r2, [r3, #0]
 80060d0:	687c      	ldr	r4, [r7, #4]
 80060d2:	683b      	ldr	r3, [r7, #0]
 80060d4:	785b      	ldrb	r3, [r3, #1]
 80060d6:	2b00      	cmp	r3, #0
 80060d8:	d14a      	bne.n	8006170 <USB_EPStartXfer+0x4e8>
 80060da:	687c      	ldr	r4, [r7, #4]
 80060dc:	687b      	ldr	r3, [r7, #4]
 80060de:	f8b3 3050 	ldrh.w	r3, [r3, #80]	; 0x50
 80060e2:	b29b      	uxth	r3, r3
 80060e4:	441c      	add	r4, r3
 80060e6:	683b      	ldr	r3, [r7, #0]
 80060e8:	781b      	ldrb	r3, [r3, #0]
 80060ea:	011b      	lsls	r3, r3, #4
 80060ec:	4423      	add	r3, r4
 80060ee:	f203 430c 	addw	r3, r3, #1036	; 0x40c
 80060f2:	627b      	str	r3, [r7, #36]	; 0x24
 80060f4:	6cbb      	ldr	r3, [r7, #72]	; 0x48
 80060f6:	2b00      	cmp	r3, #0
 80060f8:	d116      	bne.n	8006128 <USB_EPStartXfer+0x4a0>
 80060fa:	6a7b      	ldr	r3, [r7, #36]	; 0x24
 80060fc:	881b      	ldrh	r3, [r3, #0]
 80060fe:	f423 43f8 	bic.w	r3, r3, #31744	; 0x7c00
 8006102:	b29a      	uxth	r2, r3
 8006104:	6a7b      	ldr	r3, [r7, #36]	; 0x24
 8006106:	801a      	strh	r2, [r3, #0]
 8006108:	6a7b      	ldr	r3, [r7, #36]	; 0x24
 800610a:	881b      	ldrh	r3, [r3, #0]
 800610c:	ea6f 4343 	mvn.w	r3, r3, lsl #17
 8006110:	ea6f 4353 	mvn.w	r3, r3, lsr #17
 8006114:	b29a      	uxth	r2, r3
 8006116:	6a7b      	ldr	r3, [r7, #36]	; 0x24
 8006118:	801a      	strh	r2, [r3, #0]
 800611a:	e03d      	b.n	8006198 <USB_EPStartXfer+0x510>
 800611c:	ffff80c0 	.word	0xffff80c0
 8006120:	ffffc080 	.word	0xffffc080
 8006124:	ffff8080 	.word	0xffff8080
 8006128:	6cbb      	ldr	r3, [r7, #72]	; 0x48
 800612a:	2b3d      	cmp	r3, #61	; 0x3d
 800612c:	d811      	bhi.n	8006152 <USB_EPStartXfer+0x4ca>
 800612e:	6cbb      	ldr	r3, [r7, #72]	; 0x48
 8006130:	085b      	lsrs	r3, r3, #1
 8006132:	637b      	str	r3, [r7, #52]	; 0x34
 8006134:	6cbb      	ldr	r3, [r7, #72]	; 0x48
 8006136:	f003 0301 	and.w	r3, r3, #1
 800613a:	2b00      	cmp	r3, #0
 800613c:	d002      	beq.n	8006144 <USB_EPStartXfer+0x4bc>
 800613e:	6b7b      	ldr	r3, [r7, #52]	; 0x34
 8006140:	3301      	adds	r3, #1
 8006142:	637b      	str	r3, [r7, #52]	; 0x34
 8006144:	6b7b      	ldr	r3, [r7, #52]	; 0x34
 8006146:	b29b      	uxth	r3, r3
 8006148:	029b      	lsls	r3, r3, #10
 800614a:	b29a      	uxth	r2, r3
 800614c:	6a7b      	ldr	r3, [r7, #36]	; 0x24
 800614e:	801a      	strh	r2, [r3, #0]
 8006150:	e022      	b.n	8006198 <USB_EPStartXfer+0x510>
 8006152:	6cbb      	ldr	r3, [r7, #72]	; 0x48
 8006154:	095b      	lsrs	r3, r3, #5
 8006156:	637b      	str	r3, [r7, #52]	; 0x34
 8006158:	6b7b      	ldr	r3, [r7, #52]	; 0x34
 800615a:	b29b      	uxth	r3, r3
 800615c:	029b      	lsls	r3, r3, #10
 800615e:	b29b      	uxth	r3, r3
 8006160:	ea6f 4343 	mvn.w	r3, r3, lsl #17
 8006164:	ea6f 4353 	mvn.w	r3, r3, lsr #17
 8006168:	b29a      	uxth	r2, r3
 800616a:	6a7b      	ldr	r3, [r7, #36]	; 0x24
 800616c:	801a      	strh	r2, [r3, #0]
 800616e:	e013      	b.n	8006198 <USB_EPStartXfer+0x510>
 8006170:	683b      	ldr	r3, [r7, #0]
 8006172:	785b      	ldrb	r3, [r3, #1]
 8006174:	2b01      	cmp	r3, #1
 8006176:	d10f      	bne.n	8006198 <USB_EPStartXfer+0x510>
 8006178:	687b      	ldr	r3, [r7, #4]
 800617a:	f8b3 3050 	ldrh.w	r3, [r3, #80]	; 0x50
 800617e:	b29b      	uxth	r3, r3
 8006180:	441c      	add	r4, r3
 8006182:	683b      	ldr	r3, [r7, #0]
 8006184:	781b      	ldrb	r3, [r3, #0]
 8006186:	011b      	lsls	r3, r3, #4
 8006188:	4423      	add	r3, r4
 800618a:	f203 430c 	addw	r3, r3, #1036	; 0x40c
 800618e:	62bb      	str	r3, [r7, #40]	; 0x28
 8006190:	6cbb      	ldr	r3, [r7, #72]	; 0x48
 8006192:	b29a      	uxth	r2, r3
 8006194:	6abb      	ldr	r3, [r7, #40]	; 0x28
 8006196:	801a      	strh	r2, [r3, #0]
 8006198:	687a      	ldr	r2, [r7, #4]
 800619a:	683b      	ldr	r3, [r7, #0]
 800619c:	781b      	ldrb	r3, [r3, #0]
 800619e:	009b      	lsls	r3, r3, #2
 80061a0:	4413      	add	r3, r2
 80061a2:	881b      	ldrh	r3, [r3, #0]
 80061a4:	b29b      	uxth	r3, r3
 80061a6:	f423 4380 	bic.w	r3, r3, #16384	; 0x4000
 80061aa:	f023 0370 	bic.w	r3, r3, #112	; 0x70
 80061ae:	b29c      	uxth	r4, r3
 80061b0:	f484 5380 	eor.w	r3, r4, #4096	; 0x1000
 80061b4:	b29c      	uxth	r4, r3
 80061b6:	f484 5300 	eor.w	r3, r4, #8192	; 0x2000
 80061ba:	b29c      	uxth	r4, r3
 80061bc:	687a      	ldr	r2, [r7, #4]
 80061be:	683b      	ldr	r3, [r7, #0]
 80061c0:	781b      	ldrb	r3, [r3, #0]
 80061c2:	009b      	lsls	r3, r3, #2
 80061c4:	441a      	add	r2, r3
 80061c6:	4b04      	ldr	r3, [pc, #16]	; (80061d8 <USB_EPStartXfer+0x550>)
 80061c8:	4323      	orrs	r3, r4
 80061ca:	b29b      	uxth	r3, r3
 80061cc:	8013      	strh	r3, [r2, #0]
 80061ce:	2300      	movs	r3, #0
 80061d0:	4618      	mov	r0, r3
 80061d2:	3754      	adds	r7, #84	; 0x54
 80061d4:	46bd      	mov	sp, r7
 80061d6:	bd90      	pop	{r4, r7, pc}
 80061d8:	ffff8080 	.word	0xffff8080

080061dc <USB_EPSetStall>:
 80061dc:	b490      	push	{r4, r7}
 80061de:	b082      	sub	sp, #8
 80061e0:	af00      	add	r7, sp, #0
 80061e2:	6078      	str	r0, [r7, #4]
 80061e4:	6039      	str	r1, [r7, #0]
 80061e6:	683b      	ldr	r3, [r7, #0]
 80061e8:	785b      	ldrb	r3, [r3, #1]
 80061ea:	2b00      	cmp	r3, #0
 80061ec:	d018      	beq.n	8006220 <USB_EPSetStall+0x44>
 80061ee:	687a      	ldr	r2, [r7, #4]
 80061f0:	683b      	ldr	r3, [r7, #0]
 80061f2:	781b      	ldrb	r3, [r3, #0]
 80061f4:	009b      	lsls	r3, r3, #2
 80061f6:	4413      	add	r3, r2
 80061f8:	881b      	ldrh	r3, [r3, #0]
 80061fa:	b29b      	uxth	r3, r3
 80061fc:	f423 43e0 	bic.w	r3, r3, #28672	; 0x7000
 8006200:	f023 0340 	bic.w	r3, r3, #64	; 0x40
 8006204:	b29c      	uxth	r4, r3
 8006206:	f084 0310 	eor.w	r3, r4, #16
 800620a:	b29c      	uxth	r4, r3
 800620c:	687a      	ldr	r2, [r7, #4]
 800620e:	683b      	ldr	r3, [r7, #0]
 8006210:	781b      	ldrb	r3, [r3, #0]
 8006212:	009b      	lsls	r3, r3, #2
 8006214:	441a      	add	r2, r3
 8006216:	4b11      	ldr	r3, [pc, #68]	; (800625c <USB_EPSetStall+0x80>)
 8006218:	4323      	orrs	r3, r4
 800621a:	b29b      	uxth	r3, r3
 800621c:	8013      	strh	r3, [r2, #0]
 800621e:	e017      	b.n	8006250 <USB_EPSetStall+0x74>
 8006220:	687a      	ldr	r2, [r7, #4]
 8006222:	683b      	ldr	r3, [r7, #0]
 8006224:	781b      	ldrb	r3, [r3, #0]
 8006226:	009b      	lsls	r3, r3, #2
 8006228:	4413      	add	r3, r2
 800622a:	881b      	ldrh	r3, [r3, #0]
 800622c:	b29b      	uxth	r3, r3
 800622e:	f423 4380 	bic.w	r3, r3, #16384	; 0x4000
 8006232:	f023 0370 	bic.w	r3, r3, #112	; 0x70
 8006236:	b29c      	uxth	r4, r3
 8006238:	f484 5380 	eor.w	r3, r4, #4096	; 0x1000
 800623c:	b29c      	uxth	r4, r3
 800623e:	687a      	ldr	r2, [r7, #4]
 8006240:	683b      	ldr	r3, [r7, #0]
 8006242:	781b      	ldrb	r3, [r3, #0]
 8006244:	009b      	lsls	r3, r3, #2
 8006246:	441a      	add	r2, r3
 8006248:	4b04      	ldr	r3, [pc, #16]	; (800625c <USB_EPSetStall+0x80>)
 800624a:	4323      	orrs	r3, r4
 800624c:	b29b      	uxth	r3, r3
 800624e:	8013      	strh	r3, [r2, #0]
 8006250:	2300      	movs	r3, #0
 8006252:	4618      	mov	r0, r3
 8006254:	3708      	adds	r7, #8
 8006256:	46bd      	mov	sp, r7
 8006258:	bc90      	pop	{r4, r7}
 800625a:	4770      	bx	lr
 800625c:	ffff8080 	.word	0xffff8080

08006260 <USB_EPClearStall>:
 8006260:	b490      	push	{r4, r7}
 8006262:	b082      	sub	sp, #8
 8006264:	af00      	add	r7, sp, #0
 8006266:	6078      	str	r0, [r7, #4]
 8006268:	6039      	str	r1, [r7, #0]
 800626a:	683b      	ldr	r3, [r7, #0]
 800626c:	7b1b      	ldrb	r3, [r3, #12]
 800626e:	2b00      	cmp	r3, #0
 8006270:	d17d      	bne.n	800636e <USB_EPClearStall+0x10e>
 8006272:	683b      	ldr	r3, [r7, #0]
 8006274:	785b      	ldrb	r3, [r3, #1]
 8006276:	2b00      	cmp	r3, #0
 8006278:	d03d      	beq.n	80062f6 <USB_EPClearStall+0x96>
 800627a:	687a      	ldr	r2, [r7, #4]
 800627c:	683b      	ldr	r3, [r7, #0]
 800627e:	781b      	ldrb	r3, [r3, #0]
 8006280:	009b      	lsls	r3, r3, #2
 8006282:	4413      	add	r3, r2
 8006284:	881b      	ldrh	r3, [r3, #0]
 8006286:	b29c      	uxth	r4, r3
 8006288:	4623      	mov	r3, r4
 800628a:	f003 0340 	and.w	r3, r3, #64	; 0x40
 800628e:	2b00      	cmp	r3, #0
 8006290:	d014      	beq.n	80062bc <USB_EPClearStall+0x5c>
 8006292:	687a      	ldr	r2, [r7, #4]
 8006294:	683b      	ldr	r3, [r7, #0]
 8006296:	781b      	ldrb	r3, [r3, #0]
 8006298:	009b      	lsls	r3, r3, #2
 800629a:	4413      	add	r3, r2
 800629c:	881b      	ldrh	r3, [r3, #0]
 800629e:	b29b      	uxth	r3, r3
 80062a0:	f423 43e0 	bic.w	r3, r3, #28672	; 0x7000
 80062a4:	f023 0370 	bic.w	r3, r3, #112	; 0x70
 80062a8:	b29c      	uxth	r4, r3
 80062aa:	687a      	ldr	r2, [r7, #4]
 80062ac:	683b      	ldr	r3, [r7, #0]
 80062ae:	781b      	ldrb	r3, [r3, #0]
 80062b0:	009b      	lsls	r3, r3, #2
 80062b2:	441a      	add	r2, r3
 80062b4:	4b31      	ldr	r3, [pc, #196]	; (800637c <USB_EPClearStall+0x11c>)
 80062b6:	4323      	orrs	r3, r4
 80062b8:	b29b      	uxth	r3, r3
 80062ba:	8013      	strh	r3, [r2, #0]
 80062bc:	683b      	ldr	r3, [r7, #0]
 80062be:	78db      	ldrb	r3, [r3, #3]
 80062c0:	2b01      	cmp	r3, #1
 80062c2:	d054      	beq.n	800636e <USB_EPClearStall+0x10e>
 80062c4:	687a      	ldr	r2, [r7, #4]
 80062c6:	683b      	ldr	r3, [r7, #0]
 80062c8:	781b      	ldrb	r3, [r3, #0]
 80062ca:	009b      	lsls	r3, r3, #2
 80062cc:	4413      	add	r3, r2
 80062ce:	881b      	ldrh	r3, [r3, #0]
 80062d0:	b29b      	uxth	r3, r3
 80062d2:	f423 43e0 	bic.w	r3, r3, #28672	; 0x7000
 80062d6:	f023 0340 	bic.w	r3, r3, #64	; 0x40
 80062da:	b29c      	uxth	r4, r3
 80062dc:	f084 0320 	eor.w	r3, r4, #32
 80062e0:	b29c      	uxth	r4, r3
 80062e2:	687a      	ldr	r2, [r7, #4]
 80062e4:	683b      	ldr	r3, [r7, #0]
 80062e6:	781b      	ldrb	r3, [r3, #0]
 80062e8:	009b      	lsls	r3, r3, #2
 80062ea:	441a      	add	r2, r3
 80062ec:	4b24      	ldr	r3, [pc, #144]	; (8006380 <USB_EPClearStall+0x120>)
 80062ee:	4323      	orrs	r3, r4
 80062f0:	b29b      	uxth	r3, r3
 80062f2:	8013      	strh	r3, [r2, #0]
 80062f4:	e03b      	b.n	800636e <USB_EPClearStall+0x10e>
 80062f6:	687a      	ldr	r2, [r7, #4]
 80062f8:	683b      	ldr	r3, [r7, #0]
 80062fa:	781b      	ldrb	r3, [r3, #0]
 80062fc:	009b      	lsls	r3, r3, #2
 80062fe:	4413      	add	r3, r2
 8006300:	881b      	ldrh	r3, [r3, #0]
 8006302:	b29c      	uxth	r4, r3
 8006304:	4623      	mov	r3, r4
 8006306:	f403 4380 	and.w	r3, r3, #16384	; 0x4000
 800630a:	2b00      	cmp	r3, #0
 800630c:	d014      	beq.n	8006338 <USB_EPClearStall+0xd8>
 800630e:	687a      	ldr	r2, [r7, #4]
 8006310:	683b      	ldr	r3, [r7, #0]
 8006312:	781b      	ldrb	r3, [r3, #0]
 8006314:	009b      	lsls	r3, r3, #2
 8006316:	4413      	add	r3, r2
 8006318:	881b      	ldrh	r3, [r3, #0]
 800631a:	b29b      	uxth	r3, r3
 800631c:	f423 43e0 	bic.w	r3, r3, #28672	; 0x7000
 8006320:	f023 0370 	bic.w	r3, r3, #112	; 0x70
 8006324:	b29c      	uxth	r4, r3
 8006326:	687a      	ldr	r2, [r7, #4]
 8006328:	683b      	ldr	r3, [r7, #0]
 800632a:	781b      	ldrb	r3, [r3, #0]
 800632c:	009b      	lsls	r3, r3, #2
 800632e:	441a      	add	r2, r3
 8006330:	4b14      	ldr	r3, [pc, #80]	; (8006384 <USB_EPClearStall+0x124>)
 8006332:	4323      	orrs	r3, r4
 8006334:	b29b      	uxth	r3, r3
 8006336:	8013      	strh	r3, [r2, #0]
 8006338:	687a      	ldr	r2, [r7, #4]
 800633a:	683b      	ldr	r3, [r7, #0]
 800633c:	781b      	ldrb	r3, [r3, #0]
 800633e:	009b      	lsls	r3, r3, #2
 8006340:	4413      	add	r3, r2
 8006342:	881b      	ldrh	r3, [r3, #0]
 8006344:	b29b      	uxth	r3, r3
 8006346:	f423 4380 	bic.w	r3, r3, #16384	; 0x4000
 800634a:	f023 0370 	bic.w	r3, r3, #112	; 0x70
 800634e:	b29c      	uxth	r4, r3
 8006350:	f484 5380 	eor.w	r3, r4, #4096	; 0x1000
 8006354:	b29c      	uxth	r4, r3
 8006356:	f484 5300 	eor.w	r3, r4, #8192	; 0x2000
 800635a:	b29c      	uxth	r4, r3
 800635c:	687a      	ldr	r2, [r7, #4]
 800635e:	683b      	ldr	r3, [r7, #0]
 8006360:	781b      	ldrb	r3, [r3, #0]
 8006362:	009b      	lsls	r3, r3, #2
 8006364:	441a      	add	r2, r3
 8006366:	4b06      	ldr	r3, [pc, #24]	; (8006380 <USB_EPClearStall+0x120>)
 8006368:	4323      	orrs	r3, r4
 800636a:	b29b      	uxth	r3, r3
 800636c:	8013      	strh	r3, [r2, #0]
 800636e:	2300      	movs	r3, #0
 8006370:	4618      	mov	r0, r3
 8006372:	3708      	adds	r7, #8
 8006374:	46bd      	mov	sp, r7
 8006376:	bc90      	pop	{r4, r7}
 8006378:	4770      	bx	lr
 800637a:	bf00      	nop
 800637c:	ffff80c0 	.word	0xffff80c0
 8006380:	ffff8080 	.word	0xffff8080
 8006384:	ffffc080 	.word	0xffffc080

08006388 <USB_SetDevAddress>:
 8006388:	b480      	push	{r7}
 800638a:	b083      	sub	sp, #12
 800638c:	af00      	add	r7, sp, #0
 800638e:	6078      	str	r0, [r7, #4]
 8006390:	460b      	mov	r3, r1
 8006392:	70fb      	strb	r3, [r7, #3]
 8006394:	78fb      	ldrb	r3, [r7, #3]
 8006396:	2b00      	cmp	r3, #0
 8006398:	d103      	bne.n	80063a2 <USB_SetDevAddress+0x1a>
 800639a:	687b      	ldr	r3, [r7, #4]
 800639c:	2280      	movs	r2, #128	; 0x80
 800639e:	f8a3 204c 	strh.w	r2, [r3, #76]	; 0x4c
 80063a2:	2300      	movs	r3, #0
 80063a4:	4618      	mov	r0, r3
 80063a6:	370c      	adds	r7, #12
 80063a8:	46bd      	mov	sp, r7
 80063aa:	bc80      	pop	{r7}
 80063ac:	4770      	bx	lr

080063ae <USB_DevConnect>:
 80063ae:	b480      	push	{r7}
 80063b0:	b083      	sub	sp, #12
 80063b2:	af00      	add	r7, sp, #0
 80063b4:	6078      	str	r0, [r7, #4]
 80063b6:	2300      	movs	r3, #0
 80063b8:	4618      	mov	r0, r3
 80063ba:	370c      	adds	r7, #12
 80063bc:	46bd      	mov	sp, r7
 80063be:	bc80      	pop	{r7}
 80063c0:	4770      	bx	lr

080063c2 <USB_ReadInterrupts>:
 80063c2:	b480      	push	{r7}
 80063c4:	b085      	sub	sp, #20
 80063c6:	af00      	add	r7, sp, #0
 80063c8:	6078      	str	r0, [r7, #4]
 80063ca:	687b      	ldr	r3, [r7, #4]
 80063cc:	f8b3 3044 	ldrh.w	r3, [r3, #68]	; 0x44
 80063d0:	b29b      	uxth	r3, r3
 80063d2:	60fb      	str	r3, [r7, #12]
 80063d4:	68fb      	ldr	r3, [r7, #12]
 80063d6:	4618      	mov	r0, r3
 80063d8:	3714      	adds	r7, #20
 80063da:	46bd      	mov	sp, r7
 80063dc:	bc80      	pop	{r7}
 80063de:	4770      	bx	lr

080063e0 <USB_EP0_OutStart>:
 80063e0:	b480      	push	{r7}
 80063e2:	b083      	sub	sp, #12
 80063e4:	af00      	add	r7, sp, #0
 80063e6:	6078      	str	r0, [r7, #4]
 80063e8:	6039      	str	r1, [r7, #0]
 80063ea:	2300      	movs	r3, #0
 80063ec:	4618      	mov	r0, r3
 80063ee:	370c      	adds	r7, #12
 80063f0:	46bd      	mov	sp, r7
 80063f2:	bc80      	pop	{r7}
 80063f4:	4770      	bx	lr

080063f6 <USB_WritePMA>:
 80063f6:	b480      	push	{r7}
 80063f8:	b08d      	sub	sp, #52	; 0x34
 80063fa:	af00      	add	r7, sp, #0
 80063fc:	60f8      	str	r0, [r7, #12]
 80063fe:	60b9      	str	r1, [r7, #8]
 8006400:	4611      	mov	r1, r2
 8006402:	461a      	mov	r2, r3
 8006404:	460b      	mov	r3, r1
 8006406:	80fb      	strh	r3, [r7, #6]
 8006408:	4613      	mov	r3, r2
 800640a:	80bb      	strh	r3, [r7, #4]
 800640c:	88bb      	ldrh	r3, [r7, #4]
 800640e:	3301      	adds	r3, #1
 8006410:	085b      	lsrs	r3, r3, #1
 8006412:	623b      	str	r3, [r7, #32]
 8006414:	68fb      	ldr	r3, [r7, #12]
 8006416:	61fb      	str	r3, [r7, #28]
 8006418:	68bb      	ldr	r3, [r7, #8]
 800641a:	627b      	str	r3, [r7, #36]	; 0x24
 800641c:	88fb      	ldrh	r3, [r7, #6]
 800641e:	005a      	lsls	r2, r3, #1
 8006420:	69fb      	ldr	r3, [r7, #28]
 8006422:	4413      	add	r3, r2
 8006424:	f503 6380 	add.w	r3, r3, #1024	; 0x400
 8006428:	62bb      	str	r3, [r7, #40]	; 0x28
 800642a:	6a3b      	ldr	r3, [r7, #32]
 800642c:	62fb      	str	r3, [r7, #44]	; 0x2c
 800642e:	e01e      	b.n	800646e <USB_WritePMA+0x78>
 8006430:	6a7b      	ldr	r3, [r7, #36]	; 0x24
 8006432:	781b      	ldrb	r3, [r3, #0]
 8006434:	61bb      	str	r3, [r7, #24]
 8006436:	6a7b      	ldr	r3, [r7, #36]	; 0x24
 8006438:	3301      	adds	r3, #1
 800643a:	627b      	str	r3, [r7, #36]	; 0x24
 800643c:	6a7b      	ldr	r3, [r7, #36]	; 0x24
 800643e:	781b      	ldrb	r3, [r3, #0]
 8006440:	b29b      	uxth	r3, r3
 8006442:	021b      	lsls	r3, r3, #8
 8006444:	b29b      	uxth	r3, r3
 8006446:	461a      	mov	r2, r3
 8006448:	69bb      	ldr	r3, [r7, #24]
 800644a:	4313      	orrs	r3, r2
 800644c:	617b      	str	r3, [r7, #20]
 800644e:	697b      	ldr	r3, [r7, #20]
 8006450:	b29a      	uxth	r2, r3
 8006452:	6abb      	ldr	r3, [r7, #40]	; 0x28
 8006454:	801a      	strh	r2, [r3, #0]
 8006456:	6abb      	ldr	r3, [r7, #40]	; 0x28
 8006458:	3302      	adds	r3, #2
 800645a:	62bb      	str	r3, [r7, #40]	; 0x28
 800645c:	6abb      	ldr	r3, [r7, #40]	; 0x28
 800645e:	3302      	adds	r3, #2
 8006460:	62bb      	str	r3, [r7, #40]	; 0x28
 8006462:	6a7b      	ldr	r3, [r7, #36]	; 0x24
 8006464:	3301      	adds	r3, #1
 8006466:	627b      	str	r3, [r7, #36]	; 0x24
 8006468:	6afb      	ldr	r3, [r7, #44]	; 0x2c
 800646a:	3b01      	subs	r3, #1
 800646c:	62fb      	str	r3, [r7, #44]	; 0x2c
 800646e:	6afb      	ldr	r3, [r7, #44]	; 0x2c
 8006470:	2b00      	cmp	r3, #0
 8006472:	d1dd      	bne.n	8006430 <USB_WritePMA+0x3a>
 8006474:	bf00      	nop
 8006476:	bf00      	nop
 8006478:	3734      	adds	r7, #52	; 0x34
 800647a:	46bd      	mov	sp, r7
 800647c:	bc80      	pop	{r7}
 800647e:	4770      	bx	lr

08006480 <USB_ReadPMA>:
 8006480:	b480      	push	{r7}
 8006482:	b08b      	sub	sp, #44	; 0x2c
 8006484:	af00      	add	r7, sp, #0
 8006486:	60f8      	str	r0, [r7, #12]
 8006488:	60b9      	str	r1, [r7, #8]
 800648a:	4611      	mov	r1, r2
 800648c:	461a      	mov	r2, r3
 800648e:	460b      	mov	r3, r1
 8006490:	80fb      	strh	r3, [r7, #6]
 8006492:	4613      	mov	r3, r2
 8006494:	80bb      	strh	r3, [r7, #4]
 8006496:	88bb      	ldrh	r3, [r7, #4]
 8006498:	085b      	lsrs	r3, r3, #1
 800649a:	b29b      	uxth	r3, r3
 800649c:	61bb      	str	r3, [r7, #24]
 800649e:	68fb      	ldr	r3, [r7, #12]
 80064a0:	617b      	str	r3, [r7, #20]
 80064a2:	68bb      	ldr	r3, [r7, #8]
 80064a4:	61fb      	str	r3, [r7, #28]
 80064a6:	88fb      	ldrh	r3, [r7, #6]
 80064a8:	005a      	lsls	r2, r3, #1
 80064aa:	697b      	ldr	r3, [r7, #20]
 80064ac:	4413      	add	r3, r2
 80064ae:	f503 6380 	add.w	r3, r3, #1024	; 0x400
 80064b2:	623b      	str	r3, [r7, #32]
 80064b4:	69bb      	ldr	r3, [r7, #24]
 80064b6:	627b      	str	r3, [r7, #36]	; 0x24
 80064b8:	e01a      	b.n	80064f0 <USB_ReadPMA+0x70>
 80064ba:	6a3b      	ldr	r3, [r7, #32]
 80064bc:	881b      	ldrh	r3, [r3, #0]
 80064be:	613b      	str	r3, [r7, #16]
 80064c0:	6a3b      	ldr	r3, [r7, #32]
 80064c2:	3302      	adds	r3, #2
 80064c4:	623b      	str	r3, [r7, #32]
 80064c6:	693b      	ldr	r3, [r7, #16]
 80064c8:	b2da      	uxtb	r2, r3
 80064ca:	69fb      	ldr	r3, [r7, #28]
 80064cc:	701a      	strb	r2, [r3, #0]
 80064ce:	69fb      	ldr	r3, [r7, #28]
 80064d0:	3301      	adds	r3, #1
 80064d2:	61fb      	str	r3, [r7, #28]
 80064d4:	693b      	ldr	r3, [r7, #16]
 80064d6:	0a1b      	lsrs	r3, r3, #8
 80064d8:	b2da      	uxtb	r2, r3
 80064da:	69fb      	ldr	r3, [r7, #28]
 80064dc:	701a      	strb	r2, [r3, #0]
 80064de:	69fb      	ldr	r3, [r7, #28]
 80064e0:	3301      	adds	r3, #1
 80064e2:	61fb      	str	r3, [r7, #28]
 80064e4:	6a3b      	ldr	r3, [r7, #32]
 80064e6:	3302      	adds	r3, #2
 80064e8:	623b      	str	r3, [r7, #32]
 80064ea:	6a7b      	ldr	r3, [r7, #36]	; 0x24
 80064ec:	3b01      	subs	r3, #1
 80064ee:	627b      	str	r3, [r7, #36]	; 0x24
 80064f0:	6a7b      	ldr	r3, [r7, #36]	; 0x24
 80064f2:	2b00      	cmp	r3, #0
 80064f4:	d1e1      	bne.n	80064ba <USB_ReadPMA+0x3a>
 80064f6:	88bb      	ldrh	r3, [r7, #4]
 80064f8:	f003 0301 	and.w	r3, r3, #1
 80064fc:	b29b      	uxth	r3, r3
 80064fe:	2b00      	cmp	r3, #0
 8006500:	d006      	beq.n	8006510 <USB_ReadPMA+0x90>
 8006502:	6a3b      	ldr	r3, [r7, #32]
 8006504:	881b      	ldrh	r3, [r3, #0]
 8006506:	613b      	str	r3, [r7, #16]
 8006508:	693b      	ldr	r3, [r7, #16]
 800650a:	b2da      	uxtb	r2, r3
 800650c:	69fb      	ldr	r3, [r7, #28]
 800650e:	701a      	strb	r2, [r3, #0]
 8006510:	bf00      	nop
 8006512:	372c      	adds	r7, #44	; 0x2c
 8006514:	46bd      	mov	sp, r7
 8006516:	bc80      	pop	{r7}
 8006518:	4770      	bx	lr

0800651a <USBD_CDC_Init>:
 800651a:	b580      	push	{r7, lr}
 800651c:	b084      	sub	sp, #16
 800651e:	af00      	add	r7, sp, #0
 8006520:	6078      	str	r0, [r7, #4]
 8006522:	460b      	mov	r3, r1
 8006524:	70fb      	strb	r3, [r7, #3]
 8006526:	2300      	movs	r3, #0
 8006528:	73fb      	strb	r3, [r7, #15]
 800652a:	687b      	ldr	r3, [r7, #4]
 800652c:	7c1b      	ldrb	r3, [r3, #16]
 800652e:	2b00      	cmp	r3, #0
 8006530:	d115      	bne.n	800655e <USBD_CDC_Init+0x44>
 8006532:	f44f 7300 	mov.w	r3, #512	; 0x200
 8006536:	2202      	movs	r2, #2
 8006538:	2181      	movs	r1, #129	; 0x81
 800653a:	6878      	ldr	r0, [r7, #4]
 800653c:	f001 fe41 	bl	80081c2 <USBD_LL_OpenEP>
 8006540:	687b      	ldr	r3, [r7, #4]
 8006542:	2201      	movs	r2, #1
 8006544:	62da      	str	r2, [r3, #44]	; 0x2c
 8006546:	f44f 7300 	mov.w	r3, #512	; 0x200
 800654a:	2202      	movs	r2, #2
 800654c:	2101      	movs	r1, #1
 800654e:	6878      	ldr	r0, [r7, #4]
 8006550:	f001 fe37 	bl	80081c2 <USBD_LL_OpenEP>
 8006554:	687b      	ldr	r3, [r7, #4]
 8006556:	2201      	movs	r2, #1
 8006558:	f8c3 2158 	str.w	r2, [r3, #344]	; 0x158
 800655c:	e012      	b.n	8006584 <USBD_CDC_Init+0x6a>
 800655e:	2340      	movs	r3, #64	; 0x40
 8006560:	2202      	movs	r2, #2
 8006562:	2181      	movs	r1, #129	; 0x81
 8006564:	6878      	ldr	r0, [r7, #4]
 8006566:	f001 fe2c 	bl	80081c2 <USBD_LL_OpenEP>
 800656a:	687b      	ldr	r3, [r7, #4]
 800656c:	2201      	movs	r2, #1
 800656e:	62da      	str	r2, [r3, #44]	; 0x2c
 8006570:	2340      	movs	r3, #64	; 0x40
 8006572:	2202      	movs	r2, #2
 8006574:	2101      	movs	r1, #1
 8006576:	6878      	ldr	r0, [r7, #4]
 8006578:	f001 fe23 	bl	80081c2 <USBD_LL_OpenEP>
 800657c:	687b      	ldr	r3, [r7, #4]
 800657e:	2201      	movs	r2, #1
 8006580:	f8c3 2158 	str.w	r2, [r3, #344]	; 0x158
 8006584:	2308      	movs	r3, #8
 8006586:	2203      	movs	r2, #3
 8006588:	2182      	movs	r1, #130	; 0x82
 800658a:	6878      	ldr	r0, [r7, #4]
 800658c:	f001 fe19 	bl	80081c2 <USBD_LL_OpenEP>
 8006590:	687b      	ldr	r3, [r7, #4]
 8006592:	2201      	movs	r2, #1
 8006594:	641a      	str	r2, [r3, #64]	; 0x40
 8006596:	f44f 7007 	mov.w	r0, #540	; 0x21c
 800659a:	f001 ff33 	bl	8008404 <USBD_static_malloc>
 800659e:	4602      	mov	r2, r0
 80065a0:	687b      	ldr	r3, [r7, #4]
 80065a2:	f8c3 2290 	str.w	r2, [r3, #656]	; 0x290
 80065a6:	687b      	ldr	r3, [r7, #4]
 80065a8:	f8d3 3290 	ldr.w	r3, [r3, #656]	; 0x290
 80065ac:	2b00      	cmp	r3, #0
 80065ae:	d102      	bne.n	80065b6 <USBD_CDC_Init+0x9c>
 80065b0:	2301      	movs	r3, #1
 80065b2:	73fb      	strb	r3, [r7, #15]
 80065b4:	e026      	b.n	8006604 <USBD_CDC_Init+0xea>
 80065b6:	687b      	ldr	r3, [r7, #4]
 80065b8:	f8d3 3290 	ldr.w	r3, [r3, #656]	; 0x290
 80065bc:	60bb      	str	r3, [r7, #8]
 80065be:	687b      	ldr	r3, [r7, #4]
 80065c0:	f8d3 3294 	ldr.w	r3, [r3, #660]	; 0x294
 80065c4:	681b      	ldr	r3, [r3, #0]
 80065c6:	4798      	blx	r3
 80065c8:	68bb      	ldr	r3, [r7, #8]
 80065ca:	2200      	movs	r2, #0
 80065cc:	f8c3 2214 	str.w	r2, [r3, #532]	; 0x214
 80065d0:	68bb      	ldr	r3, [r7, #8]
 80065d2:	2200      	movs	r2, #0
 80065d4:	f8c3 2218 	str.w	r2, [r3, #536]	; 0x218
 80065d8:	687b      	ldr	r3, [r7, #4]
 80065da:	7c1b      	ldrb	r3, [r3, #16]
 80065dc:	2b00      	cmp	r3, #0
 80065de:	d109      	bne.n	80065f4 <USBD_CDC_Init+0xda>
 80065e0:	68bb      	ldr	r3, [r7, #8]
 80065e2:	f8d3 2204 	ldr.w	r2, [r3, #516]	; 0x204
 80065e6:	f44f 7300 	mov.w	r3, #512	; 0x200
 80065ea:	2101      	movs	r1, #1
 80065ec:	6878      	ldr	r0, [r7, #4]
 80065ee:	f001 fed2 	bl	8008396 <USBD_LL_PrepareReceive>
 80065f2:	e007      	b.n	8006604 <USBD_CDC_Init+0xea>
 80065f4:	68bb      	ldr	r3, [r7, #8]
 80065f6:	f8d3 2204 	ldr.w	r2, [r3, #516]	; 0x204
 80065fa:	2340      	movs	r3, #64	; 0x40
 80065fc:	2101      	movs	r1, #1
 80065fe:	6878      	ldr	r0, [r7, #4]
 8006600:	f001 fec9 	bl	8008396 <USBD_LL_PrepareReceive>
 8006604:	7bfb      	ldrb	r3, [r7, #15]
 8006606:	4618      	mov	r0, r3
 8006608:	3710      	adds	r7, #16
 800660a:	46bd      	mov	sp, r7
 800660c:	bd80      	pop	{r7, pc}

0800660e <USBD_CDC_DeInit>:
 800660e:	b580      	push	{r7, lr}
 8006610:	b084      	sub	sp, #16
 8006612:	af00      	add	r7, sp, #0
 8006614:	6078      	str	r0, [r7, #4]
 8006616:	460b      	mov	r3, r1
 8006618:	70fb      	strb	r3, [r7, #3]
 800661a:	2300      	movs	r3, #0
 800661c:	73fb      	strb	r3, [r7, #15]
 800661e:	2181      	movs	r1, #129	; 0x81
 8006620:	6878      	ldr	r0, [r7, #4]
 8006622:	f001 fdf4 	bl	800820e <USBD_LL_CloseEP>
 8006626:	687b      	ldr	r3, [r7, #4]
 8006628:	2200      	movs	r2, #0
 800662a:	62da      	str	r2, [r3, #44]	; 0x2c
 800662c:	2101      	movs	r1, #1
 800662e:	6878      	ldr	r0, [r7, #4]
 8006630:	f001 fded 	bl	800820e <USBD_LL_CloseEP>
 8006634:	687b      	ldr	r3, [r7, #4]
 8006636:	2200      	movs	r2, #0
 8006638:	f8c3 2158 	str.w	r2, [r3, #344]	; 0x158
 800663c:	2182      	movs	r1, #130	; 0x82
 800663e:	6878      	ldr	r0, [r7, #4]
 8006640:	f001 fde5 	bl	800820e <USBD_LL_CloseEP>
 8006644:	687b      	ldr	r3, [r7, #4]
 8006646:	2200      	movs	r2, #0
 8006648:	641a      	str	r2, [r3, #64]	; 0x40
 800664a:	687b      	ldr	r3, [r7, #4]
 800664c:	f8d3 3290 	ldr.w	r3, [r3, #656]	; 0x290
 8006650:	2b00      	cmp	r3, #0
 8006652:	d00e      	beq.n	8006672 <USBD_CDC_DeInit+0x64>
 8006654:	687b      	ldr	r3, [r7, #4]
 8006656:	f8d3 3294 	ldr.w	r3, [r3, #660]	; 0x294
 800665a:	685b      	ldr	r3, [r3, #4]
 800665c:	4798      	blx	r3
 800665e:	687b      	ldr	r3, [r7, #4]
 8006660:	f8d3 3290 	ldr.w	r3, [r3, #656]	; 0x290
 8006664:	4618      	mov	r0, r3
 8006666:	f001 fed9 	bl	800841c <USBD_static_free>
 800666a:	687b      	ldr	r3, [r7, #4]
 800666c:	2200      	movs	r2, #0
 800666e:	f8c3 2290 	str.w	r2, [r3, #656]	; 0x290
 8006672:	7bfb      	ldrb	r3, [r7, #15]
 8006674:	4618      	mov	r0, r3
 8006676:	3710      	adds	r7, #16
 8006678:	46bd      	mov	sp, r7
 800667a:	bd80      	pop	{r7, pc}

0800667c <USBD_CDC_Setup>:
 800667c:	b580      	push	{r7, lr}
 800667e:	b086      	sub	sp, #24
 8006680:	af00      	add	r7, sp, #0
 8006682:	6078      	str	r0, [r7, #4]
 8006684:	6039      	str	r1, [r7, #0]
 8006686:	687b      	ldr	r3, [r7, #4]
 8006688:	f8d3 3290 	ldr.w	r3, [r3, #656]	; 0x290
 800668c:	613b      	str	r3, [r7, #16]
 800668e:	2300      	movs	r3, #0
 8006690:	73fb      	strb	r3, [r7, #15]
 8006692:	2300      	movs	r3, #0
 8006694:	81bb      	strh	r3, [r7, #12]
 8006696:	2300      	movs	r3, #0
 8006698:	75fb      	strb	r3, [r7, #23]
 800669a:	683b      	ldr	r3, [r7, #0]
 800669c:	781b      	ldrb	r3, [r3, #0]
 800669e:	f003 0360 	and.w	r3, r3, #96	; 0x60
 80066a2:	2b00      	cmp	r3, #0
 80066a4:	d039      	beq.n	800671a <USBD_CDC_Setup+0x9e>
 80066a6:	2b20      	cmp	r3, #32
 80066a8:	d17f      	bne.n	80067aa <USBD_CDC_Setup+0x12e>
 80066aa:	683b      	ldr	r3, [r7, #0]
 80066ac:	88db      	ldrh	r3, [r3, #6]
 80066ae:	2b00      	cmp	r3, #0
 80066b0:	d029      	beq.n	8006706 <USBD_CDC_Setup+0x8a>
 80066b2:	683b      	ldr	r3, [r7, #0]
 80066b4:	781b      	ldrb	r3, [r3, #0]
 80066b6:	b25b      	sxtb	r3, r3
 80066b8:	2b00      	cmp	r3, #0
 80066ba:	da11      	bge.n	80066e0 <USBD_CDC_Setup+0x64>
 80066bc:	687b      	ldr	r3, [r7, #4]
 80066be:	f8d3 3294 	ldr.w	r3, [r3, #660]	; 0x294
 80066c2:	689b      	ldr	r3, [r3, #8]
 80066c4:	683a      	ldr	r2, [r7, #0]
 80066c6:	7850      	ldrb	r0, [r2, #1]
 80066c8:	6939      	ldr	r1, [r7, #16]
 80066ca:	683a      	ldr	r2, [r7, #0]
 80066cc:	88d2      	ldrh	r2, [r2, #6]
 80066ce:	4798      	blx	r3
 80066d0:	6939      	ldr	r1, [r7, #16]
 80066d2:	683b      	ldr	r3, [r7, #0]
 80066d4:	88db      	ldrh	r3, [r3, #6]
 80066d6:	461a      	mov	r2, r3
 80066d8:	6878      	ldr	r0, [r7, #4]
 80066da:	f001 f990 	bl	80079fe <USBD_CtlSendData>
 80066de:	e06b      	b.n	80067b8 <USBD_CDC_Setup+0x13c>
 80066e0:	683b      	ldr	r3, [r7, #0]
 80066e2:	785a      	ldrb	r2, [r3, #1]
 80066e4:	693b      	ldr	r3, [r7, #16]
 80066e6:	f883 2200 	strb.w	r2, [r3, #512]	; 0x200
 80066ea:	683b      	ldr	r3, [r7, #0]
 80066ec:	88db      	ldrh	r3, [r3, #6]
 80066ee:	b2da      	uxtb	r2, r3
 80066f0:	693b      	ldr	r3, [r7, #16]
 80066f2:	f883 2201 	strb.w	r2, [r3, #513]	; 0x201
 80066f6:	6939      	ldr	r1, [r7, #16]
 80066f8:	683b      	ldr	r3, [r7, #0]
 80066fa:	88db      	ldrh	r3, [r3, #6]
 80066fc:	461a      	mov	r2, r3
 80066fe:	6878      	ldr	r0, [r7, #4]
 8006700:	f001 f9ab 	bl	8007a5a <USBD_CtlPrepareRx>
 8006704:	e058      	b.n	80067b8 <USBD_CDC_Setup+0x13c>
 8006706:	687b      	ldr	r3, [r7, #4]
 8006708:	f8d3 3294 	ldr.w	r3, [r3, #660]	; 0x294
 800670c:	689b      	ldr	r3, [r3, #8]
 800670e:	683a      	ldr	r2, [r7, #0]
 8006710:	7850      	ldrb	r0, [r2, #1]
 8006712:	2200      	movs	r2, #0
 8006714:	6839      	ldr	r1, [r7, #0]
 8006716:	4798      	blx	r3
 8006718:	e04e      	b.n	80067b8 <USBD_CDC_Setup+0x13c>
 800671a:	683b      	ldr	r3, [r7, #0]
 800671c:	785b      	ldrb	r3, [r3, #1]
 800671e:	2b0b      	cmp	r3, #11
 8006720:	d02e      	beq.n	8006780 <USBD_CDC_Setup+0x104>
 8006722:	2b0b      	cmp	r3, #11
 8006724:	dc38      	bgt.n	8006798 <USBD_CDC_Setup+0x11c>
 8006726:	2b00      	cmp	r3, #0
 8006728:	d002      	beq.n	8006730 <USBD_CDC_Setup+0xb4>
 800672a:	2b0a      	cmp	r3, #10
 800672c:	d014      	beq.n	8006758 <USBD_CDC_Setup+0xdc>
 800672e:	e033      	b.n	8006798 <USBD_CDC_Setup+0x11c>
 8006730:	687b      	ldr	r3, [r7, #4]
 8006732:	f893 3274 	ldrb.w	r3, [r3, #628]	; 0x274
 8006736:	2b03      	cmp	r3, #3
 8006738:	d107      	bne.n	800674a <USBD_CDC_Setup+0xce>
 800673a:	f107 030c 	add.w	r3, r7, #12
 800673e:	2202      	movs	r2, #2
 8006740:	4619      	mov	r1, r3
 8006742:	6878      	ldr	r0, [r7, #4]
 8006744:	f001 f95b 	bl	80079fe <USBD_CtlSendData>
 8006748:	e02e      	b.n	80067a8 <USBD_CDC_Setup+0x12c>
 800674a:	6839      	ldr	r1, [r7, #0]
 800674c:	6878      	ldr	r0, [r7, #4]
 800674e:	f001 f8ec 	bl	800792a <USBD_CtlError>
 8006752:	2302      	movs	r3, #2
 8006754:	75fb      	strb	r3, [r7, #23]
 8006756:	e027      	b.n	80067a8 <USBD_CDC_Setup+0x12c>
 8006758:	687b      	ldr	r3, [r7, #4]
 800675a:	f893 3274 	ldrb.w	r3, [r3, #628]	; 0x274
 800675e:	2b03      	cmp	r3, #3
 8006760:	d107      	bne.n	8006772 <USBD_CDC_Setup+0xf6>
 8006762:	f107 030f 	add.w	r3, r7, #15
 8006766:	2201      	movs	r2, #1
 8006768:	4619      	mov	r1, r3
 800676a:	6878      	ldr	r0, [r7, #4]
 800676c:	f001 f947 	bl	80079fe <USBD_CtlSendData>
 8006770:	e01a      	b.n	80067a8 <USBD_CDC_Setup+0x12c>
 8006772:	6839      	ldr	r1, [r7, #0]
 8006774:	6878      	ldr	r0, [r7, #4]
 8006776:	f001 f8d8 	bl	800792a <USBD_CtlError>
 800677a:	2302      	movs	r3, #2
 800677c:	75fb      	strb	r3, [r7, #23]
 800677e:	e013      	b.n	80067a8 <USBD_CDC_Setup+0x12c>
 8006780:	687b      	ldr	r3, [r7, #4]
 8006782:	f893 3274 	ldrb.w	r3, [r3, #628]	; 0x274
 8006786:	2b03      	cmp	r3, #3
 8006788:	d00d      	beq.n	80067a6 <USBD_CDC_Setup+0x12a>
 800678a:	6839      	ldr	r1, [r7, #0]
 800678c:	6878      	ldr	r0, [r7, #4]
 800678e:	f001 f8cc 	bl	800792a <USBD_CtlError>
 8006792:	2302      	movs	r3, #2
 8006794:	75fb      	strb	r3, [r7, #23]
 8006796:	e006      	b.n	80067a6 <USBD_CDC_Setup+0x12a>
 8006798:	6839      	ldr	r1, [r7, #0]
 800679a:	6878      	ldr	r0, [r7, #4]
 800679c:	f001 f8c5 	bl	800792a <USBD_CtlError>
 80067a0:	2302      	movs	r3, #2
 80067a2:	75fb      	strb	r3, [r7, #23]
 80067a4:	e000      	b.n	80067a8 <USBD_CDC_Setup+0x12c>
 80067a6:	bf00      	nop
 80067a8:	e006      	b.n	80067b8 <USBD_CDC_Setup+0x13c>
 80067aa:	6839      	ldr	r1, [r7, #0]
 80067ac:	6878      	ldr	r0, [r7, #4]
 80067ae:	f001 f8bc 	bl	800792a <USBD_CtlError>
 80067b2:	2302      	movs	r3, #2
 80067b4:	75fb      	strb	r3, [r7, #23]
 80067b6:	bf00      	nop
 80067b8:	7dfb      	ldrb	r3, [r7, #23]
 80067ba:	4618      	mov	r0, r3
 80067bc:	3718      	adds	r7, #24
 80067be:	46bd      	mov	sp, r7
 80067c0:	bd80      	pop	{r7, pc}

080067c2 <USBD_CDC_DataIn>:
 80067c2:	b580      	push	{r7, lr}
 80067c4:	b084      	sub	sp, #16
 80067c6:	af00      	add	r7, sp, #0
 80067c8:	6078      	str	r0, [r7, #4]
 80067ca:	460b      	mov	r3, r1
 80067cc:	70fb      	strb	r3, [r7, #3]
 80067ce:	687b      	ldr	r3, [r7, #4]
 80067d0:	f8d3 3290 	ldr.w	r3, [r3, #656]	; 0x290
 80067d4:	60fb      	str	r3, [r7, #12]
 80067d6:	687b      	ldr	r3, [r7, #4]
 80067d8:	f8d3 3298 	ldr.w	r3, [r3, #664]	; 0x298
 80067dc:	60bb      	str	r3, [r7, #8]
 80067de:	687b      	ldr	r3, [r7, #4]
 80067e0:	f8d3 3290 	ldr.w	r3, [r3, #656]	; 0x290
 80067e4:	2b00      	cmp	r3, #0
 80067e6:	d037      	beq.n	8006858 <USBD_CDC_DataIn+0x96>
 80067e8:	78fa      	ldrb	r2, [r7, #3]
 80067ea:	6879      	ldr	r1, [r7, #4]
 80067ec:	4613      	mov	r3, r2
 80067ee:	009b      	lsls	r3, r3, #2
 80067f0:	4413      	add	r3, r2
 80067f2:	009b      	lsls	r3, r3, #2
 80067f4:	440b      	add	r3, r1
 80067f6:	331c      	adds	r3, #28
 80067f8:	681b      	ldr	r3, [r3, #0]
 80067fa:	2b00      	cmp	r3, #0
 80067fc:	d026      	beq.n	800684c <USBD_CDC_DataIn+0x8a>
 80067fe:	78fa      	ldrb	r2, [r7, #3]
 8006800:	6879      	ldr	r1, [r7, #4]
 8006802:	4613      	mov	r3, r2
 8006804:	009b      	lsls	r3, r3, #2
 8006806:	4413      	add	r3, r2
 8006808:	009b      	lsls	r3, r3, #2
 800680a:	440b      	add	r3, r1
 800680c:	331c      	adds	r3, #28
 800680e:	681b      	ldr	r3, [r3, #0]
 8006810:	78fa      	ldrb	r2, [r7, #3]
 8006812:	68b9      	ldr	r1, [r7, #8]
 8006814:	0152      	lsls	r2, r2, #5
 8006816:	440a      	add	r2, r1
 8006818:	3238      	adds	r2, #56	; 0x38
 800681a:	6812      	ldr	r2, [r2, #0]
 800681c:	fbb3 f1f2 	udiv	r1, r3, r2
 8006820:	fb01 f202 	mul.w	r2, r1, r2
 8006824:	1a9b      	subs	r3, r3, r2
 8006826:	2b00      	cmp	r3, #0
 8006828:	d110      	bne.n	800684c <USBD_CDC_DataIn+0x8a>
 800682a:	78fa      	ldrb	r2, [r7, #3]
 800682c:	6879      	ldr	r1, [r7, #4]
 800682e:	4613      	mov	r3, r2
 8006830:	009b      	lsls	r3, r3, #2
 8006832:	4413      	add	r3, r2
 8006834:	009b      	lsls	r3, r3, #2
 8006836:	440b      	add	r3, r1
 8006838:	331c      	adds	r3, #28
 800683a:	2200      	movs	r2, #0
 800683c:	601a      	str	r2, [r3, #0]
 800683e:	78f9      	ldrb	r1, [r7, #3]
 8006840:	2300      	movs	r3, #0
 8006842:	2200      	movs	r2, #0
 8006844:	6878      	ldr	r0, [r7, #4]
 8006846:	f001 fd83 	bl	8008350 <USBD_LL_Transmit>
 800684a:	e003      	b.n	8006854 <USBD_CDC_DataIn+0x92>
 800684c:	68fb      	ldr	r3, [r7, #12]
 800684e:	2200      	movs	r2, #0
 8006850:	f8c3 2214 	str.w	r2, [r3, #532]	; 0x214
 8006854:	2300      	movs	r3, #0
 8006856:	e000      	b.n	800685a <USBD_CDC_DataIn+0x98>
 8006858:	2302      	movs	r3, #2
 800685a:	4618      	mov	r0, r3
 800685c:	3710      	adds	r7, #16
 800685e:	46bd      	mov	sp, r7
 8006860:	bd80      	pop	{r7, pc}

08006862 <USBD_CDC_DataOut>:
 8006862:	b580      	push	{r7, lr}
 8006864:	b084      	sub	sp, #16
 8006866:	af00      	add	r7, sp, #0
 8006868:	6078      	str	r0, [r7, #4]
 800686a:	460b      	mov	r3, r1
 800686c:	70fb      	strb	r3, [r7, #3]
 800686e:	687b      	ldr	r3, [r7, #4]
 8006870:	f8d3 3290 	ldr.w	r3, [r3, #656]	; 0x290
 8006874:	60fb      	str	r3, [r7, #12]
 8006876:	78fb      	ldrb	r3, [r7, #3]
 8006878:	4619      	mov	r1, r3
 800687a:	6878      	ldr	r0, [r7, #4]
 800687c:	f001 fdae 	bl	80083dc <USBD_LL_GetRxDataSize>
 8006880:	4602      	mov	r2, r0
 8006882:	68fb      	ldr	r3, [r7, #12]
 8006884:	f8c3 220c 	str.w	r2, [r3, #524]	; 0x20c
 8006888:	687b      	ldr	r3, [r7, #4]
 800688a:	f8d3 3290 	ldr.w	r3, [r3, #656]	; 0x290
 800688e:	2b00      	cmp	r3, #0
 8006890:	d00d      	beq.n	80068ae <USBD_CDC_DataOut+0x4c>
 8006892:	687b      	ldr	r3, [r7, #4]
 8006894:	f8d3 3294 	ldr.w	r3, [r3, #660]	; 0x294
 8006898:	68db      	ldr	r3, [r3, #12]
 800689a:	68fa      	ldr	r2, [r7, #12]
 800689c:	f8d2 0204 	ldr.w	r0, [r2, #516]	; 0x204
 80068a0:	68fa      	ldr	r2, [r7, #12]
 80068a2:	f502 7203 	add.w	r2, r2, #524	; 0x20c
 80068a6:	4611      	mov	r1, r2
 80068a8:	4798      	blx	r3
 80068aa:	2300      	movs	r3, #0
 80068ac:	e000      	b.n	80068b0 <USBD_CDC_DataOut+0x4e>
 80068ae:	2302      	movs	r3, #2
 80068b0:	4618      	mov	r0, r3
 80068b2:	3710      	adds	r7, #16
 80068b4:	46bd      	mov	sp, r7
 80068b6:	bd80      	pop	{r7, pc}

080068b8 <USBD_CDC_EP0_RxReady>:
 80068b8:	b580      	push	{r7, lr}
 80068ba:	b084      	sub	sp, #16
 80068bc:	af00      	add	r7, sp, #0
 80068be:	6078      	str	r0, [r7, #4]
 80068c0:	687b      	ldr	r3, [r7, #4]
 80068c2:	f8d3 3290 	ldr.w	r3, [r3, #656]	; 0x290
 80068c6:	60fb      	str	r3, [r7, #12]
 80068c8:	687b      	ldr	r3, [r7, #4]
 80068ca:	f8d3 3294 	ldr.w	r3, [r3, #660]	; 0x294
 80068ce:	2b00      	cmp	r3, #0
 80068d0:	d015      	beq.n	80068fe <USBD_CDC_EP0_RxReady+0x46>
 80068d2:	68fb      	ldr	r3, [r7, #12]
 80068d4:	f893 3200 	ldrb.w	r3, [r3, #512]	; 0x200
 80068d8:	2bff      	cmp	r3, #255	; 0xff
 80068da:	d010      	beq.n	80068fe <USBD_CDC_EP0_RxReady+0x46>
 80068dc:	687b      	ldr	r3, [r7, #4]
 80068de:	f8d3 3294 	ldr.w	r3, [r3, #660]	; 0x294
 80068e2:	689b      	ldr	r3, [r3, #8]
 80068e4:	68fa      	ldr	r2, [r7, #12]
 80068e6:	f892 0200 	ldrb.w	r0, [r2, #512]	; 0x200
 80068ea:	68f9      	ldr	r1, [r7, #12]
 80068ec:	68fa      	ldr	r2, [r7, #12]
 80068ee:	f892 2201 	ldrb.w	r2, [r2, #513]	; 0x201
 80068f2:	b292      	uxth	r2, r2
 80068f4:	4798      	blx	r3
 80068f6:	68fb      	ldr	r3, [r7, #12]
 80068f8:	22ff      	movs	r2, #255	; 0xff
 80068fa:	f883 2200 	strb.w	r2, [r3, #512]	; 0x200
 80068fe:	2300      	movs	r3, #0
 8006900:	4618      	mov	r0, r3
 8006902:	3710      	adds	r7, #16
 8006904:	46bd      	mov	sp, r7
 8006906:	bd80      	pop	{r7, pc}

08006908 <USBD_CDC_GetFSCfgDesc>:
 8006908:	b480      	push	{r7}
 800690a:	b083      	sub	sp, #12
 800690c:	af00      	add	r7, sp, #0
 800690e:	6078      	str	r0, [r7, #4]
 8006910:	687b      	ldr	r3, [r7, #4]
 8006912:	2243      	movs	r2, #67	; 0x43
 8006914:	801a      	strh	r2, [r3, #0]
 8006916:	4b03      	ldr	r3, [pc, #12]	; (8006924 <USBD_CDC_GetFSCfgDesc+0x1c>)
 8006918:	4618      	mov	r0, r3
 800691a:	370c      	adds	r7, #12
 800691c:	46bd      	mov	sp, r7
 800691e:	bc80      	pop	{r7}
 8006920:	4770      	bx	lr
 8006922:	bf00      	nop
 8006924:	20000098 	.word	0x20000098

08006928 <USBD_CDC_GetHSCfgDesc>:
 8006928:	b480      	push	{r7}
 800692a:	b083      	sub	sp, #12
 800692c:	af00      	add	r7, sp, #0
 800692e:	6078      	str	r0, [r7, #4]
 8006930:	687b      	ldr	r3, [r7, #4]
 8006932:	2243      	movs	r2, #67	; 0x43
 8006934:	801a      	strh	r2, [r3, #0]
 8006936:	4b03      	ldr	r3, [pc, #12]	; (8006944 <USBD_CDC_GetHSCfgDesc+0x1c>)
 8006938:	4618      	mov	r0, r3
 800693a:	370c      	adds	r7, #12
 800693c:	46bd      	mov	sp, r7
 800693e:	bc80      	pop	{r7}
 8006940:	4770      	bx	lr
 8006942:	bf00      	nop
 8006944:	20000054 	.word	0x20000054

08006948 <USBD_CDC_GetOtherSpeedCfgDesc>:
 8006948:	b480      	push	{r7}
 800694a:	b083      	sub	sp, #12
 800694c:	af00      	add	r7, sp, #0
 800694e:	6078      	str	r0, [r7, #4]
 8006950:	687b      	ldr	r3, [r7, #4]
 8006952:	2243      	movs	r2, #67	; 0x43
 8006954:	801a      	strh	r2, [r3, #0]
 8006956:	4b03      	ldr	r3, [pc, #12]	; (8006964 <USBD_CDC_GetOtherSpeedCfgDesc+0x1c>)
 8006958:	4618      	mov	r0, r3
 800695a:	370c      	adds	r7, #12
 800695c:	46bd      	mov	sp, r7
 800695e:	bc80      	pop	{r7}
 8006960:	4770      	bx	lr
 8006962:	bf00      	nop
 8006964:	200000dc 	.word	0x200000dc

08006968 <USBD_CDC_GetDeviceQualifierDescriptor>:
 8006968:	b480      	push	{r7}
 800696a:	b083      	sub	sp, #12
 800696c:	af00      	add	r7, sp, #0
 800696e:	6078      	str	r0, [r7, #4]
 8006970:	687b      	ldr	r3, [r7, #4]
 8006972:	220a      	movs	r2, #10
 8006974:	801a      	strh	r2, [r3, #0]
 8006976:	4b03      	ldr	r3, [pc, #12]	; (8006984 <USBD_CDC_GetDeviceQualifierDescriptor+0x1c>)
 8006978:	4618      	mov	r0, r3
 800697a:	370c      	adds	r7, #12
 800697c:	46bd      	mov	sp, r7
 800697e:	bc80      	pop	{r7}
 8006980:	4770      	bx	lr
 8006982:	bf00      	nop
 8006984:	20000010 	.word	0x20000010

08006988 <USBD_CDC_RegisterInterface>:
 8006988:	b480      	push	{r7}
 800698a:	b085      	sub	sp, #20
 800698c:	af00      	add	r7, sp, #0
 800698e:	6078      	str	r0, [r7, #4]
 8006990:	6039      	str	r1, [r7, #0]
 8006992:	2302      	movs	r3, #2
 8006994:	73fb      	strb	r3, [r7, #15]
 8006996:	683b      	ldr	r3, [r7, #0]
 8006998:	2b00      	cmp	r3, #0
 800699a:	d005      	beq.n	80069a8 <USBD_CDC_RegisterInterface+0x20>
 800699c:	687b      	ldr	r3, [r7, #4]
 800699e:	683a      	ldr	r2, [r7, #0]
 80069a0:	f8c3 2294 	str.w	r2, [r3, #660]	; 0x294
 80069a4:	2300      	movs	r3, #0
 80069a6:	73fb      	strb	r3, [r7, #15]
 80069a8:	7bfb      	ldrb	r3, [r7, #15]
 80069aa:	4618      	mov	r0, r3
 80069ac:	3714      	adds	r7, #20
 80069ae:	46bd      	mov	sp, r7
 80069b0:	bc80      	pop	{r7}
 80069b2:	4770      	bx	lr

080069b4 <USBD_CDC_SetTxBuffer>:
 80069b4:	b480      	push	{r7}
 80069b6:	b087      	sub	sp, #28
 80069b8:	af00      	add	r7, sp, #0
 80069ba:	60f8      	str	r0, [r7, #12]
 80069bc:	60b9      	str	r1, [r7, #8]
 80069be:	4613      	mov	r3, r2
 80069c0:	80fb      	strh	r3, [r7, #6]
 80069c2:	68fb      	ldr	r3, [r7, #12]
 80069c4:	f8d3 3290 	ldr.w	r3, [r3, #656]	; 0x290
 80069c8:	617b      	str	r3, [r7, #20]
 80069ca:	697b      	ldr	r3, [r7, #20]
 80069cc:	68ba      	ldr	r2, [r7, #8]
 80069ce:	f8c3 2208 	str.w	r2, [r3, #520]	; 0x208
 80069d2:	88fa      	ldrh	r2, [r7, #6]
 80069d4:	697b      	ldr	r3, [r7, #20]
 80069d6:	f8c3 2210 	str.w	r2, [r3, #528]	; 0x210
 80069da:	2300      	movs	r3, #0
 80069dc:	4618      	mov	r0, r3
 80069de:	371c      	adds	r7, #28
 80069e0:	46bd      	mov	sp, r7
 80069e2:	bc80      	pop	{r7}
 80069e4:	4770      	bx	lr

080069e6 <USBD_CDC_SetRxBuffer>:
 80069e6:	b480      	push	{r7}
 80069e8:	b085      	sub	sp, #20
 80069ea:	af00      	add	r7, sp, #0
 80069ec:	6078      	str	r0, [r7, #4]
 80069ee:	6039      	str	r1, [r7, #0]
 80069f0:	687b      	ldr	r3, [r7, #4]
 80069f2:	f8d3 3290 	ldr.w	r3, [r3, #656]	; 0x290
 80069f6:	60fb      	str	r3, [r7, #12]
 80069f8:	68fb      	ldr	r3, [r7, #12]
 80069fa:	683a      	ldr	r2, [r7, #0]
 80069fc:	f8c3 2204 	str.w	r2, [r3, #516]	; 0x204
 8006a00:	2300      	movs	r3, #0
 8006a02:	4618      	mov	r0, r3
 8006a04:	3714      	adds	r7, #20
 8006a06:	46bd      	mov	sp, r7
 8006a08:	bc80      	pop	{r7}
 8006a0a:	4770      	bx	lr

08006a0c <USBD_CDC_TransmitPacket>:
 8006a0c:	b580      	push	{r7, lr}
 8006a0e:	b084      	sub	sp, #16
 8006a10:	af00      	add	r7, sp, #0
 8006a12:	6078      	str	r0, [r7, #4]
 8006a14:	687b      	ldr	r3, [r7, #4]
 8006a16:	f8d3 3290 	ldr.w	r3, [r3, #656]	; 0x290
 8006a1a:	60fb      	str	r3, [r7, #12]
 8006a1c:	687b      	ldr	r3, [r7, #4]
 8006a1e:	f8d3 3290 	ldr.w	r3, [r3, #656]	; 0x290
 8006a22:	2b00      	cmp	r3, #0
 8006a24:	d01c      	beq.n	8006a60 <USBD_CDC_TransmitPacket+0x54>
 8006a26:	68fb      	ldr	r3, [r7, #12]
 8006a28:	f8d3 3214 	ldr.w	r3, [r3, #532]	; 0x214
 8006a2c:	2b00      	cmp	r3, #0
 8006a2e:	d115      	bne.n	8006a5c <USBD_CDC_TransmitPacket+0x50>
 8006a30:	68fb      	ldr	r3, [r7, #12]
 8006a32:	2201      	movs	r2, #1
 8006a34:	f8c3 2214 	str.w	r2, [r3, #532]	; 0x214
 8006a38:	68fb      	ldr	r3, [r7, #12]
 8006a3a:	f8d3 2210 	ldr.w	r2, [r3, #528]	; 0x210
 8006a3e:	687b      	ldr	r3, [r7, #4]
 8006a40:	631a      	str	r2, [r3, #48]	; 0x30
 8006a42:	68fb      	ldr	r3, [r7, #12]
 8006a44:	f8d3 2208 	ldr.w	r2, [r3, #520]	; 0x208
 8006a48:	68fb      	ldr	r3, [r7, #12]
 8006a4a:	f8d3 3210 	ldr.w	r3, [r3, #528]	; 0x210
 8006a4e:	b29b      	uxth	r3, r3
 8006a50:	2181      	movs	r1, #129	; 0x81
 8006a52:	6878      	ldr	r0, [r7, #4]
 8006a54:	f001 fc7c 	bl	8008350 <USBD_LL_Transmit>
 8006a58:	2300      	movs	r3, #0
 8006a5a:	e002      	b.n	8006a62 <USBD_CDC_TransmitPacket+0x56>
 8006a5c:	2301      	movs	r3, #1
 8006a5e:	e000      	b.n	8006a62 <USBD_CDC_TransmitPacket+0x56>
 8006a60:	2302      	movs	r3, #2
 8006a62:	4618      	mov	r0, r3
 8006a64:	3710      	adds	r7, #16
 8006a66:	46bd      	mov	sp, r7
 8006a68:	bd80      	pop	{r7, pc}

08006a6a <USBD_CDC_ReceivePacket>:
 8006a6a:	b580      	push	{r7, lr}
 8006a6c:	b084      	sub	sp, #16
 8006a6e:	af00      	add	r7, sp, #0
 8006a70:	6078      	str	r0, [r7, #4]
 8006a72:	687b      	ldr	r3, [r7, #4]
 8006a74:	f8d3 3290 	ldr.w	r3, [r3, #656]	; 0x290
 8006a78:	60fb      	str	r3, [r7, #12]
 8006a7a:	687b      	ldr	r3, [r7, #4]
 8006a7c:	f8d3 3290 	ldr.w	r3, [r3, #656]	; 0x290
 8006a80:	2b00      	cmp	r3, #0
 8006a82:	d017      	beq.n	8006ab4 <USBD_CDC_ReceivePacket+0x4a>
 8006a84:	687b      	ldr	r3, [r7, #4]
 8006a86:	7c1b      	ldrb	r3, [r3, #16]
 8006a88:	2b00      	cmp	r3, #0
 8006a8a:	d109      	bne.n	8006aa0 <USBD_CDC_ReceivePacket+0x36>
 8006a8c:	68fb      	ldr	r3, [r7, #12]
 8006a8e:	f8d3 2204 	ldr.w	r2, [r3, #516]	; 0x204
 8006a92:	f44f 7300 	mov.w	r3, #512	; 0x200
 8006a96:	2101      	movs	r1, #1
 8006a98:	6878      	ldr	r0, [r7, #4]
 8006a9a:	f001 fc7c 	bl	8008396 <USBD_LL_PrepareReceive>
 8006a9e:	e007      	b.n	8006ab0 <USBD_CDC_ReceivePacket+0x46>
 8006aa0:	68fb      	ldr	r3, [r7, #12]
 8006aa2:	f8d3 2204 	ldr.w	r2, [r3, #516]	; 0x204
 8006aa6:	2340      	movs	r3, #64	; 0x40
 8006aa8:	2101      	movs	r1, #1
 8006aaa:	6878      	ldr	r0, [r7, #4]
 8006aac:	f001 fc73 	bl	8008396 <USBD_LL_PrepareReceive>
 8006ab0:	2300      	movs	r3, #0
 8006ab2:	e000      	b.n	8006ab6 <USBD_CDC_ReceivePacket+0x4c>
 8006ab4:	2302      	movs	r3, #2
 8006ab6:	4618      	mov	r0, r3
 8006ab8:	3710      	adds	r7, #16
 8006aba:	46bd      	mov	sp, r7
 8006abc:	bd80      	pop	{r7, pc}

08006abe <USBD_Init>:
 8006abe:	b580      	push	{r7, lr}
 8006ac0:	b084      	sub	sp, #16
 8006ac2:	af00      	add	r7, sp, #0
 8006ac4:	60f8      	str	r0, [r7, #12]
 8006ac6:	60b9      	str	r1, [r7, #8]
 8006ac8:	4613      	mov	r3, r2
 8006aca:	71fb      	strb	r3, [r7, #7]
 8006acc:	68fb      	ldr	r3, [r7, #12]
 8006ace:	2b00      	cmp	r3, #0
 8006ad0:	d101      	bne.n	8006ad6 <USBD_Init+0x18>
 8006ad2:	2302      	movs	r3, #2
 8006ad4:	e01a      	b.n	8006b0c <USBD_Init+0x4e>
 8006ad6:	68fb      	ldr	r3, [r7, #12]
 8006ad8:	f8d3 328c 	ldr.w	r3, [r3, #652]	; 0x28c
 8006adc:	2b00      	cmp	r3, #0
 8006ade:	d003      	beq.n	8006ae8 <USBD_Init+0x2a>
 8006ae0:	68fb      	ldr	r3, [r7, #12]
 8006ae2:	2200      	movs	r2, #0
 8006ae4:	f8c3 228c 	str.w	r2, [r3, #652]	; 0x28c
 8006ae8:	68bb      	ldr	r3, [r7, #8]
 8006aea:	2b00      	cmp	r3, #0
 8006aec:	d003      	beq.n	8006af6 <USBD_Init+0x38>
 8006aee:	68fb      	ldr	r3, [r7, #12]
 8006af0:	68ba      	ldr	r2, [r7, #8]
 8006af2:	f8c3 2288 	str.w	r2, [r3, #648]	; 0x288
 8006af6:	68fb      	ldr	r3, [r7, #12]
 8006af8:	2201      	movs	r2, #1
 8006afa:	f883 2274 	strb.w	r2, [r3, #628]	; 0x274
 8006afe:	68fb      	ldr	r3, [r7, #12]
 8006b00:	79fa      	ldrb	r2, [r7, #7]
 8006b02:	701a      	strb	r2, [r3, #0]
 8006b04:	68f8      	ldr	r0, [r7, #12]
 8006b06:	f001 fae7 	bl	80080d8 <USBD_LL_Init>
 8006b0a:	2300      	movs	r3, #0
 8006b0c:	4618      	mov	r0, r3
 8006b0e:	3710      	adds	r7, #16
 8006b10:	46bd      	mov	sp, r7
 8006b12:	bd80      	pop	{r7, pc}

08006b14 <USBD_RegisterClass>:
 8006b14:	b480      	push	{r7}
 8006b16:	b085      	sub	sp, #20
 8006b18:	af00      	add	r7, sp, #0
 8006b1a:	6078      	str	r0, [r7, #4]
 8006b1c:	6039      	str	r1, [r7, #0]
 8006b1e:	2300      	movs	r3, #0
 8006b20:	73fb      	strb	r3, [r7, #15]
 8006b22:	683b      	ldr	r3, [r7, #0]
 8006b24:	2b00      	cmp	r3, #0
 8006b26:	d006      	beq.n	8006b36 <USBD_RegisterClass+0x22>
 8006b28:	687b      	ldr	r3, [r7, #4]
 8006b2a:	683a      	ldr	r2, [r7, #0]
 8006b2c:	f8c3 228c 	str.w	r2, [r3, #652]	; 0x28c
 8006b30:	2300      	movs	r3, #0
 8006b32:	73fb      	strb	r3, [r7, #15]
 8006b34:	e001      	b.n	8006b3a <USBD_RegisterClass+0x26>
 8006b36:	2302      	movs	r3, #2
 8006b38:	73fb      	strb	r3, [r7, #15]
 8006b3a:	7bfb      	ldrb	r3, [r7, #15]
 8006b3c:	4618      	mov	r0, r3
 8006b3e:	3714      	adds	r7, #20
 8006b40:	46bd      	mov	sp, r7
 8006b42:	bc80      	pop	{r7}
 8006b44:	4770      	bx	lr

08006b46 <USBD_Start>:
 8006b46:	b580      	push	{r7, lr}
 8006b48:	b082      	sub	sp, #8
 8006b4a:	af00      	add	r7, sp, #0
 8006b4c:	6078      	str	r0, [r7, #4]
 8006b4e:	6878      	ldr	r0, [r7, #4]
 8006b50:	f001 fb1c 	bl	800818c <USBD_LL_Start>
 8006b54:	2300      	movs	r3, #0
 8006b56:	4618      	mov	r0, r3
 8006b58:	3708      	adds	r7, #8
 8006b5a:	46bd      	mov	sp, r7
 8006b5c:	bd80      	pop	{r7, pc}

08006b5e <USBD_RunTestMode>:
 8006b5e:	b480      	push	{r7}
 8006b60:	b083      	sub	sp, #12
 8006b62:	af00      	add	r7, sp, #0
 8006b64:	6078      	str	r0, [r7, #4]
 8006b66:	2300      	movs	r3, #0
 8006b68:	4618      	mov	r0, r3
 8006b6a:	370c      	adds	r7, #12
 8006b6c:	46bd      	mov	sp, r7
 8006b6e:	bc80      	pop	{r7}
 8006b70:	4770      	bx	lr

08006b72 <USBD_SetClassConfig>:
 8006b72:	b580      	push	{r7, lr}
 8006b74:	b084      	sub	sp, #16
 8006b76:	af00      	add	r7, sp, #0
 8006b78:	6078      	str	r0, [r7, #4]
 8006b7a:	460b      	mov	r3, r1
 8006b7c:	70fb      	strb	r3, [r7, #3]
 8006b7e:	2302      	movs	r3, #2
 8006b80:	73fb      	strb	r3, [r7, #15]
 8006b82:	687b      	ldr	r3, [r7, #4]
 8006b84:	f8d3 328c 	ldr.w	r3, [r3, #652]	; 0x28c
 8006b88:	2b00      	cmp	r3, #0
 8006b8a:	d00c      	beq.n	8006ba6 <USBD_SetClassConfig+0x34>
 8006b8c:	687b      	ldr	r3, [r7, #4]
 8006b8e:	f8d3 328c 	ldr.w	r3, [r3, #652]	; 0x28c
 8006b92:	681b      	ldr	r3, [r3, #0]
 8006b94:	78fa      	ldrb	r2, [r7, #3]
 8006b96:	4611      	mov	r1, r2
 8006b98:	6878      	ldr	r0, [r7, #4]
 8006b9a:	4798      	blx	r3
 8006b9c:	4603      	mov	r3, r0
 8006b9e:	2b00      	cmp	r3, #0
 8006ba0:	d101      	bne.n	8006ba6 <USBD_SetClassConfig+0x34>
 8006ba2:	2300      	movs	r3, #0
 8006ba4:	73fb      	strb	r3, [r7, #15]
 8006ba6:	7bfb      	ldrb	r3, [r7, #15]
 8006ba8:	4618      	mov	r0, r3
 8006baa:	3710      	adds	r7, #16
 8006bac:	46bd      	mov	sp, r7
 8006bae:	bd80      	pop	{r7, pc}

08006bb0 <USBD_ClrClassConfig>:
 8006bb0:	b580      	push	{r7, lr}
 8006bb2:	b082      	sub	sp, #8
 8006bb4:	af00      	add	r7, sp, #0
 8006bb6:	6078      	str	r0, [r7, #4]
 8006bb8:	460b      	mov	r3, r1
 8006bba:	70fb      	strb	r3, [r7, #3]
 8006bbc:	687b      	ldr	r3, [r7, #4]
 8006bbe:	f8d3 328c 	ldr.w	r3, [r3, #652]	; 0x28c
 8006bc2:	685b      	ldr	r3, [r3, #4]
 8006bc4:	78fa      	ldrb	r2, [r7, #3]
 8006bc6:	4611      	mov	r1, r2
 8006bc8:	6878      	ldr	r0, [r7, #4]
 8006bca:	4798      	blx	r3
 8006bcc:	2300      	movs	r3, #0
 8006bce:	4618      	mov	r0, r3
 8006bd0:	3708      	adds	r7, #8
 8006bd2:	46bd      	mov	sp, r7
 8006bd4:	bd80      	pop	{r7, pc}

08006bd6 <USBD_LL_SetupStage>:
 8006bd6:	b580      	push	{r7, lr}
 8006bd8:	b082      	sub	sp, #8
 8006bda:	af00      	add	r7, sp, #0
 8006bdc:	6078      	str	r0, [r7, #4]
 8006bde:	6039      	str	r1, [r7, #0]
 8006be0:	687b      	ldr	r3, [r7, #4]
 8006be2:	f503 7320 	add.w	r3, r3, #640	; 0x280
 8006be6:	6839      	ldr	r1, [r7, #0]
 8006be8:	4618      	mov	r0, r3
 8006bea:	f000 fe62 	bl	80078b2 <USBD_ParseSetupRequest>
 8006bee:	687b      	ldr	r3, [r7, #4]
 8006bf0:	2201      	movs	r2, #1
 8006bf2:	f8c3 226c 	str.w	r2, [r3, #620]	; 0x26c
 8006bf6:	687b      	ldr	r3, [r7, #4]
 8006bf8:	f8b3 3286 	ldrh.w	r3, [r3, #646]	; 0x286
 8006bfc:	461a      	mov	r2, r3
 8006bfe:	687b      	ldr	r3, [r7, #4]
 8006c00:	f8c3 2270 	str.w	r2, [r3, #624]	; 0x270
 8006c04:	687b      	ldr	r3, [r7, #4]
 8006c06:	f893 3280 	ldrb.w	r3, [r3, #640]	; 0x280
 8006c0a:	f003 031f 	and.w	r3, r3, #31
 8006c0e:	2b02      	cmp	r3, #2
 8006c10:	d016      	beq.n	8006c40 <USBD_LL_SetupStage+0x6a>
 8006c12:	2b02      	cmp	r3, #2
 8006c14:	d81c      	bhi.n	8006c50 <USBD_LL_SetupStage+0x7a>
 8006c16:	2b00      	cmp	r3, #0
 8006c18:	d002      	beq.n	8006c20 <USBD_LL_SetupStage+0x4a>
 8006c1a:	2b01      	cmp	r3, #1
 8006c1c:	d008      	beq.n	8006c30 <USBD_LL_SetupStage+0x5a>
 8006c1e:	e017      	b.n	8006c50 <USBD_LL_SetupStage+0x7a>
 8006c20:	687b      	ldr	r3, [r7, #4]
 8006c22:	f503 7320 	add.w	r3, r3, #640	; 0x280
 8006c26:	4619      	mov	r1, r3
 8006c28:	6878      	ldr	r0, [r7, #4]
 8006c2a:	f000 f9c5 	bl	8006fb8 <USBD_StdDevReq>
 8006c2e:	e01a      	b.n	8006c66 <USBD_LL_SetupStage+0x90>
 8006c30:	687b      	ldr	r3, [r7, #4]
 8006c32:	f503 7320 	add.w	r3, r3, #640	; 0x280
 8006c36:	4619      	mov	r1, r3
 8006c38:	6878      	ldr	r0, [r7, #4]
 8006c3a:	f000 fa27 	bl	800708c <USBD_StdItfReq>
 8006c3e:	e012      	b.n	8006c66 <USBD_LL_SetupStage+0x90>
 8006c40:	687b      	ldr	r3, [r7, #4]
 8006c42:	f503 7320 	add.w	r3, r3, #640	; 0x280
 8006c46:	4619      	mov	r1, r3
 8006c48:	6878      	ldr	r0, [r7, #4]
 8006c4a:	f000 fa67 	bl	800711c <USBD_StdEPReq>
 8006c4e:	e00a      	b.n	8006c66 <USBD_LL_SetupStage+0x90>
 8006c50:	687b      	ldr	r3, [r7, #4]
 8006c52:	f893 3280 	ldrb.w	r3, [r3, #640]	; 0x280
 8006c56:	f023 037f 	bic.w	r3, r3, #127	; 0x7f
 8006c5a:	b2db      	uxtb	r3, r3
 8006c5c:	4619      	mov	r1, r3
 8006c5e:	6878      	ldr	r0, [r7, #4]
 8006c60:	f001 faf4 	bl	800824c <USBD_LL_StallEP>
 8006c64:	bf00      	nop
 8006c66:	2300      	movs	r3, #0
 8006c68:	4618      	mov	r0, r3
 8006c6a:	3708      	adds	r7, #8
 8006c6c:	46bd      	mov	sp, r7
 8006c6e:	bd80      	pop	{r7, pc}

08006c70 <USBD_LL_DataOutStage>:
 8006c70:	b580      	push	{r7, lr}
 8006c72:	b086      	sub	sp, #24
 8006c74:	af00      	add	r7, sp, #0
 8006c76:	60f8      	str	r0, [r7, #12]
 8006c78:	460b      	mov	r3, r1
 8006c7a:	607a      	str	r2, [r7, #4]
 8006c7c:	72fb      	strb	r3, [r7, #11]
 8006c7e:	7afb      	ldrb	r3, [r7, #11]
 8006c80:	2b00      	cmp	r3, #0
 8006c82:	d14b      	bne.n	8006d1c <USBD_LL_DataOutStage+0xac>
 8006c84:	68fb      	ldr	r3, [r7, #12]
 8006c86:	f503 73a0 	add.w	r3, r3, #320	; 0x140
 8006c8a:	617b      	str	r3, [r7, #20]
 8006c8c:	68fb      	ldr	r3, [r7, #12]
 8006c8e:	f8d3 326c 	ldr.w	r3, [r3, #620]	; 0x26c
 8006c92:	2b03      	cmp	r3, #3
 8006c94:	d134      	bne.n	8006d00 <USBD_LL_DataOutStage+0x90>
 8006c96:	697b      	ldr	r3, [r7, #20]
 8006c98:	68da      	ldr	r2, [r3, #12]
 8006c9a:	697b      	ldr	r3, [r7, #20]
 8006c9c:	691b      	ldr	r3, [r3, #16]
 8006c9e:	429a      	cmp	r2, r3
 8006ca0:	d919      	bls.n	8006cd6 <USBD_LL_DataOutStage+0x66>
 8006ca2:	697b      	ldr	r3, [r7, #20]
 8006ca4:	68da      	ldr	r2, [r3, #12]
 8006ca6:	697b      	ldr	r3, [r7, #20]
 8006ca8:	691b      	ldr	r3, [r3, #16]
 8006caa:	1ad2      	subs	r2, r2, r3
 8006cac:	697b      	ldr	r3, [r7, #20]
 8006cae:	60da      	str	r2, [r3, #12]
 8006cb0:	697b      	ldr	r3, [r7, #20]
 8006cb2:	68da      	ldr	r2, [r3, #12]
 8006cb4:	697b      	ldr	r3, [r7, #20]
 8006cb6:	691b      	ldr	r3, [r3, #16]
 8006cb8:	429a      	cmp	r2, r3
 8006cba:	d203      	bcs.n	8006cc4 <USBD_LL_DataOutStage+0x54>
 8006cbc:	697b      	ldr	r3, [r7, #20]
 8006cbe:	68db      	ldr	r3, [r3, #12]
 8006cc0:	b29b      	uxth	r3, r3
 8006cc2:	e002      	b.n	8006cca <USBD_LL_DataOutStage+0x5a>
 8006cc4:	697b      	ldr	r3, [r7, #20]
 8006cc6:	691b      	ldr	r3, [r3, #16]
 8006cc8:	b29b      	uxth	r3, r3
 8006cca:	461a      	mov	r2, r3
 8006ccc:	6879      	ldr	r1, [r7, #4]
 8006cce:	68f8      	ldr	r0, [r7, #12]
 8006cd0:	f000 fee1 	bl	8007a96 <USBD_CtlContinueRx>
 8006cd4:	e038      	b.n	8006d48 <USBD_LL_DataOutStage+0xd8>
 8006cd6:	68fb      	ldr	r3, [r7, #12]
 8006cd8:	f8d3 328c 	ldr.w	r3, [r3, #652]	; 0x28c
 8006cdc:	691b      	ldr	r3, [r3, #16]
 8006cde:	2b00      	cmp	r3, #0
 8006ce0:	d00a      	beq.n	8006cf8 <USBD_LL_DataOutStage+0x88>
 8006ce2:	68fb      	ldr	r3, [r7, #12]
 8006ce4:	f893 3274 	ldrb.w	r3, [r3, #628]	; 0x274
 8006ce8:	2b03      	cmp	r3, #3
 8006cea:	d105      	bne.n	8006cf8 <USBD_LL_DataOutStage+0x88>
 8006cec:	68fb      	ldr	r3, [r7, #12]
 8006cee:	f8d3 328c 	ldr.w	r3, [r3, #652]	; 0x28c
 8006cf2:	691b      	ldr	r3, [r3, #16]
 8006cf4:	68f8      	ldr	r0, [r7, #12]
 8006cf6:	4798      	blx	r3
 8006cf8:	68f8      	ldr	r0, [r7, #12]
 8006cfa:	f000 fede 	bl	8007aba <USBD_CtlSendStatus>
 8006cfe:	e023      	b.n	8006d48 <USBD_LL_DataOutStage+0xd8>
 8006d00:	68fb      	ldr	r3, [r7, #12]
 8006d02:	f8d3 326c 	ldr.w	r3, [r3, #620]	; 0x26c
 8006d06:	2b05      	cmp	r3, #5
 8006d08:	d11e      	bne.n	8006d48 <USBD_LL_DataOutStage+0xd8>
 8006d0a:	68fb      	ldr	r3, [r7, #12]
 8006d0c:	2200      	movs	r2, #0
 8006d0e:	f8c3 226c 	str.w	r2, [r3, #620]	; 0x26c
 8006d12:	2100      	movs	r1, #0
 8006d14:	68f8      	ldr	r0, [r7, #12]
 8006d16:	f001 fa99 	bl	800824c <USBD_LL_StallEP>
 8006d1a:	e015      	b.n	8006d48 <USBD_LL_DataOutStage+0xd8>
 8006d1c:	68fb      	ldr	r3, [r7, #12]
 8006d1e:	f8d3 328c 	ldr.w	r3, [r3, #652]	; 0x28c
 8006d22:	699b      	ldr	r3, [r3, #24]
 8006d24:	2b00      	cmp	r3, #0
 8006d26:	d00d      	beq.n	8006d44 <USBD_LL_DataOutStage+0xd4>
 8006d28:	68fb      	ldr	r3, [r7, #12]
 8006d2a:	f893 3274 	ldrb.w	r3, [r3, #628]	; 0x274
 8006d2e:	2b03      	cmp	r3, #3
 8006d30:	d108      	bne.n	8006d44 <USBD_LL_DataOutStage+0xd4>
 8006d32:	68fb      	ldr	r3, [r7, #12]
 8006d34:	f8d3 328c 	ldr.w	r3, [r3, #652]	; 0x28c
 8006d38:	699b      	ldr	r3, [r3, #24]
 8006d3a:	7afa      	ldrb	r2, [r7, #11]
 8006d3c:	4611      	mov	r1, r2
 8006d3e:	68f8      	ldr	r0, [r7, #12]
 8006d40:	4798      	blx	r3
 8006d42:	e001      	b.n	8006d48 <USBD_LL_DataOutStage+0xd8>
 8006d44:	2302      	movs	r3, #2
 8006d46:	e000      	b.n	8006d4a <USBD_LL_DataOutStage+0xda>
 8006d48:	2300      	movs	r3, #0
 8006d4a:	4618      	mov	r0, r3
 8006d4c:	3718      	adds	r7, #24
 8006d4e:	46bd      	mov	sp, r7
 8006d50:	bd80      	pop	{r7, pc}

08006d52 <USBD_LL_DataInStage>:
 8006d52:	b580      	push	{r7, lr}
 8006d54:	b086      	sub	sp, #24
 8006d56:	af00      	add	r7, sp, #0
 8006d58:	60f8      	str	r0, [r7, #12]
 8006d5a:	460b      	mov	r3, r1
 8006d5c:	607a      	str	r2, [r7, #4]
 8006d5e:	72fb      	strb	r3, [r7, #11]
 8006d60:	7afb      	ldrb	r3, [r7, #11]
 8006d62:	2b00      	cmp	r3, #0
 8006d64:	d17f      	bne.n	8006e66 <USBD_LL_DataInStage+0x114>
 8006d66:	68fb      	ldr	r3, [r7, #12]
 8006d68:	3314      	adds	r3, #20
 8006d6a:	617b      	str	r3, [r7, #20]
 8006d6c:	68fb      	ldr	r3, [r7, #12]
 8006d6e:	f8d3 326c 	ldr.w	r3, [r3, #620]	; 0x26c
 8006d72:	2b02      	cmp	r3, #2
 8006d74:	d15c      	bne.n	8006e30 <USBD_LL_DataInStage+0xde>
 8006d76:	697b      	ldr	r3, [r7, #20]
 8006d78:	68da      	ldr	r2, [r3, #12]
 8006d7a:	697b      	ldr	r3, [r7, #20]
 8006d7c:	691b      	ldr	r3, [r3, #16]
 8006d7e:	429a      	cmp	r2, r3
 8006d80:	d915      	bls.n	8006dae <USBD_LL_DataInStage+0x5c>
 8006d82:	697b      	ldr	r3, [r7, #20]
 8006d84:	68da      	ldr	r2, [r3, #12]
 8006d86:	697b      	ldr	r3, [r7, #20]
 8006d88:	691b      	ldr	r3, [r3, #16]
 8006d8a:	1ad2      	subs	r2, r2, r3
 8006d8c:	697b      	ldr	r3, [r7, #20]
 8006d8e:	60da      	str	r2, [r3, #12]
 8006d90:	697b      	ldr	r3, [r7, #20]
 8006d92:	68db      	ldr	r3, [r3, #12]
 8006d94:	b29b      	uxth	r3, r3
 8006d96:	461a      	mov	r2, r3
 8006d98:	6879      	ldr	r1, [r7, #4]
 8006d9a:	68f8      	ldr	r0, [r7, #12]
 8006d9c:	f000 fe4b 	bl	8007a36 <USBD_CtlContinueSendData>
 8006da0:	2300      	movs	r3, #0
 8006da2:	2200      	movs	r2, #0
 8006da4:	2100      	movs	r1, #0
 8006da6:	68f8      	ldr	r0, [r7, #12]
 8006da8:	f001 faf5 	bl	8008396 <USBD_LL_PrepareReceive>
 8006dac:	e04e      	b.n	8006e4c <USBD_LL_DataInStage+0xfa>
 8006dae:	697b      	ldr	r3, [r7, #20]
 8006db0:	689b      	ldr	r3, [r3, #8]
 8006db2:	697a      	ldr	r2, [r7, #20]
 8006db4:	6912      	ldr	r2, [r2, #16]
 8006db6:	fbb3 f1f2 	udiv	r1, r3, r2
 8006dba:	fb01 f202 	mul.w	r2, r1, r2
 8006dbe:	1a9b      	subs	r3, r3, r2
 8006dc0:	2b00      	cmp	r3, #0
 8006dc2:	d11c      	bne.n	8006dfe <USBD_LL_DataInStage+0xac>
 8006dc4:	697b      	ldr	r3, [r7, #20]
 8006dc6:	689a      	ldr	r2, [r3, #8]
 8006dc8:	697b      	ldr	r3, [r7, #20]
 8006dca:	691b      	ldr	r3, [r3, #16]
 8006dcc:	429a      	cmp	r2, r3
 8006dce:	d316      	bcc.n	8006dfe <USBD_LL_DataInStage+0xac>
 8006dd0:	697b      	ldr	r3, [r7, #20]
 8006dd2:	689a      	ldr	r2, [r3, #8]
 8006dd4:	68fb      	ldr	r3, [r7, #12]
 8006dd6:	f8d3 3270 	ldr.w	r3, [r3, #624]	; 0x270
 8006dda:	429a      	cmp	r2, r3
 8006ddc:	d20f      	bcs.n	8006dfe <USBD_LL_DataInStage+0xac>
 8006dde:	2200      	movs	r2, #0
 8006de0:	2100      	movs	r1, #0
 8006de2:	68f8      	ldr	r0, [r7, #12]
 8006de4:	f000 fe27 	bl	8007a36 <USBD_CtlContinueSendData>
 8006de8:	68fb      	ldr	r3, [r7, #12]
 8006dea:	2200      	movs	r2, #0
 8006dec:	f8c3 2270 	str.w	r2, [r3, #624]	; 0x270
 8006df0:	2300      	movs	r3, #0
 8006df2:	2200      	movs	r2, #0
 8006df4:	2100      	movs	r1, #0
 8006df6:	68f8      	ldr	r0, [r7, #12]
 8006df8:	f001 facd 	bl	8008396 <USBD_LL_PrepareReceive>
 8006dfc:	e026      	b.n	8006e4c <USBD_LL_DataInStage+0xfa>
 8006dfe:	68fb      	ldr	r3, [r7, #12]
 8006e00:	f8d3 328c 	ldr.w	r3, [r3, #652]	; 0x28c
 8006e04:	68db      	ldr	r3, [r3, #12]
 8006e06:	2b00      	cmp	r3, #0
 8006e08:	d00a      	beq.n	8006e20 <USBD_LL_DataInStage+0xce>
 8006e0a:	68fb      	ldr	r3, [r7, #12]
 8006e0c:	f893 3274 	ldrb.w	r3, [r3, #628]	; 0x274
 8006e10:	2b03      	cmp	r3, #3
 8006e12:	d105      	bne.n	8006e20 <USBD_LL_DataInStage+0xce>
 8006e14:	68fb      	ldr	r3, [r7, #12]
 8006e16:	f8d3 328c 	ldr.w	r3, [r3, #652]	; 0x28c
 8006e1a:	68db      	ldr	r3, [r3, #12]
 8006e1c:	68f8      	ldr	r0, [r7, #12]
 8006e1e:	4798      	blx	r3
 8006e20:	2180      	movs	r1, #128	; 0x80
 8006e22:	68f8      	ldr	r0, [r7, #12]
 8006e24:	f001 fa12 	bl	800824c <USBD_LL_StallEP>
 8006e28:	68f8      	ldr	r0, [r7, #12]
 8006e2a:	f000 fe59 	bl	8007ae0 <USBD_CtlReceiveStatus>
 8006e2e:	e00d      	b.n	8006e4c <USBD_LL_DataInStage+0xfa>
 8006e30:	68fb      	ldr	r3, [r7, #12]
 8006e32:	f8d3 326c 	ldr.w	r3, [r3, #620]	; 0x26c
 8006e36:	2b04      	cmp	r3, #4
 8006e38:	d004      	beq.n	8006e44 <USBD_LL_DataInStage+0xf2>
 8006e3a:	68fb      	ldr	r3, [r7, #12]
 8006e3c:	f8d3 326c 	ldr.w	r3, [r3, #620]	; 0x26c
 8006e40:	2b00      	cmp	r3, #0
 8006e42:	d103      	bne.n	8006e4c <USBD_LL_DataInStage+0xfa>
 8006e44:	2180      	movs	r1, #128	; 0x80
 8006e46:	68f8      	ldr	r0, [r7, #12]
 8006e48:	f001 fa00 	bl	800824c <USBD_LL_StallEP>
 8006e4c:	68fb      	ldr	r3, [r7, #12]
 8006e4e:	f893 3278 	ldrb.w	r3, [r3, #632]	; 0x278
 8006e52:	2b01      	cmp	r3, #1
 8006e54:	d11d      	bne.n	8006e92 <USBD_LL_DataInStage+0x140>
 8006e56:	68f8      	ldr	r0, [r7, #12]
 8006e58:	f7ff fe81 	bl	8006b5e <USBD_RunTestMode>
 8006e5c:	68fb      	ldr	r3, [r7, #12]
 8006e5e:	2200      	movs	r2, #0
 8006e60:	f883 2278 	strb.w	r2, [r3, #632]	; 0x278
 8006e64:	e015      	b.n	8006e92 <USBD_LL_DataInStage+0x140>
 8006e66:	68fb      	ldr	r3, [r7, #12]
 8006e68:	f8d3 328c 	ldr.w	r3, [r3, #652]	; 0x28c
 8006e6c:	695b      	ldr	r3, [r3, #20]
 8006e6e:	2b00      	cmp	r3, #0
 8006e70:	d00d      	beq.n	8006e8e <USBD_LL_DataInStage+0x13c>
 8006e72:	68fb      	ldr	r3, [r7, #12]
 8006e74:	f893 3274 	ldrb.w	r3, [r3, #628]	; 0x274
 8006e78:	2b03      	cmp	r3, #3
 8006e7a:	d108      	bne.n	8006e8e <USBD_LL_DataInStage+0x13c>
 8006e7c:	68fb      	ldr	r3, [r7, #12]
 8006e7e:	f8d3 328c 	ldr.w	r3, [r3, #652]	; 0x28c
 8006e82:	695b      	ldr	r3, [r3, #20]
 8006e84:	7afa      	ldrb	r2, [r7, #11]
 8006e86:	4611      	mov	r1, r2
 8006e88:	68f8      	ldr	r0, [r7, #12]
 8006e8a:	4798      	blx	r3
 8006e8c:	e001      	b.n	8006e92 <USBD_LL_DataInStage+0x140>
 8006e8e:	2302      	movs	r3, #2
 8006e90:	e000      	b.n	8006e94 <USBD_LL_DataInStage+0x142>
 8006e92:	2300      	movs	r3, #0
 8006e94:	4618      	mov	r0, r3
 8006e96:	3718      	adds	r7, #24
 8006e98:	46bd      	mov	sp, r7
 8006e9a:	bd80      	pop	{r7, pc}

08006e9c <USBD_LL_Reset>:
 8006e9c:	b580      	push	{r7, lr}
 8006e9e:	b082      	sub	sp, #8
 8006ea0:	af00      	add	r7, sp, #0
 8006ea2:	6078      	str	r0, [r7, #4]
 8006ea4:	2340      	movs	r3, #64	; 0x40
 8006ea6:	2200      	movs	r2, #0
 8006ea8:	2100      	movs	r1, #0
 8006eaa:	6878      	ldr	r0, [r7, #4]
 8006eac:	f001 f989 	bl	80081c2 <USBD_LL_OpenEP>
 8006eb0:	687b      	ldr	r3, [r7, #4]
 8006eb2:	2201      	movs	r2, #1
 8006eb4:	f8c3 2144 	str.w	r2, [r3, #324]	; 0x144
 8006eb8:	687b      	ldr	r3, [r7, #4]
 8006eba:	2240      	movs	r2, #64	; 0x40
 8006ebc:	f8c3 2150 	str.w	r2, [r3, #336]	; 0x150
 8006ec0:	2340      	movs	r3, #64	; 0x40
 8006ec2:	2200      	movs	r2, #0
 8006ec4:	2180      	movs	r1, #128	; 0x80
 8006ec6:	6878      	ldr	r0, [r7, #4]
 8006ec8:	f001 f97b 	bl	80081c2 <USBD_LL_OpenEP>
 8006ecc:	687b      	ldr	r3, [r7, #4]
 8006ece:	2201      	movs	r2, #1
 8006ed0:	619a      	str	r2, [r3, #24]
 8006ed2:	687b      	ldr	r3, [r7, #4]
 8006ed4:	2240      	movs	r2, #64	; 0x40
 8006ed6:	625a      	str	r2, [r3, #36]	; 0x24
 8006ed8:	687b      	ldr	r3, [r7, #4]
 8006eda:	2201      	movs	r2, #1
 8006edc:	f883 2274 	strb.w	r2, [r3, #628]	; 0x274
 8006ee0:	687b      	ldr	r3, [r7, #4]
 8006ee2:	2200      	movs	r2, #0
 8006ee4:	f8c3 226c 	str.w	r2, [r3, #620]	; 0x26c
 8006ee8:	687b      	ldr	r3, [r7, #4]
 8006eea:	2200      	movs	r2, #0
 8006eec:	605a      	str	r2, [r3, #4]
 8006eee:	687b      	ldr	r3, [r7, #4]
 8006ef0:	2200      	movs	r2, #0
 8006ef2:	f8c3 227c 	str.w	r2, [r3, #636]	; 0x27c
 8006ef6:	687b      	ldr	r3, [r7, #4]
 8006ef8:	f8d3 3290 	ldr.w	r3, [r3, #656]	; 0x290
 8006efc:	2b00      	cmp	r3, #0
 8006efe:	d009      	beq.n	8006f14 <USBD_LL_Reset+0x78>
 8006f00:	687b      	ldr	r3, [r7, #4]
 8006f02:	f8d3 328c 	ldr.w	r3, [r3, #652]	; 0x28c
 8006f06:	685b      	ldr	r3, [r3, #4]
 8006f08:	687a      	ldr	r2, [r7, #4]
 8006f0a:	6852      	ldr	r2, [r2, #4]
 8006f0c:	b2d2      	uxtb	r2, r2
 8006f0e:	4611      	mov	r1, r2
 8006f10:	6878      	ldr	r0, [r7, #4]
 8006f12:	4798      	blx	r3
 8006f14:	2300      	movs	r3, #0
 8006f16:	4618      	mov	r0, r3
 8006f18:	3708      	adds	r7, #8
 8006f1a:	46bd      	mov	sp, r7
 8006f1c:	bd80      	pop	{r7, pc}

08006f1e <USBD_LL_SetSpeed>:
 8006f1e:	b480      	push	{r7}
 8006f20:	b083      	sub	sp, #12
 8006f22:	af00      	add	r7, sp, #0
 8006f24:	6078      	str	r0, [r7, #4]
 8006f26:	460b      	mov	r3, r1
 8006f28:	70fb      	strb	r3, [r7, #3]
 8006f2a:	687b      	ldr	r3, [r7, #4]
 8006f2c:	78fa      	ldrb	r2, [r7, #3]
 8006f2e:	741a      	strb	r2, [r3, #16]
 8006f30:	2300      	movs	r3, #0
 8006f32:	4618      	mov	r0, r3
 8006f34:	370c      	adds	r7, #12
 8006f36:	46bd      	mov	sp, r7
 8006f38:	bc80      	pop	{r7}
 8006f3a:	4770      	bx	lr

08006f3c <USBD_LL_Suspend>:
 8006f3c:	b480      	push	{r7}
 8006f3e:	b083      	sub	sp, #12
 8006f40:	af00      	add	r7, sp, #0
 8006f42:	6078      	str	r0, [r7, #4]
 8006f44:	687b      	ldr	r3, [r7, #4]
 8006f46:	f893 2274 	ldrb.w	r2, [r3, #628]	; 0x274
 8006f4a:	687b      	ldr	r3, [r7, #4]
 8006f4c:	f883 2275 	strb.w	r2, [r3, #629]	; 0x275
 8006f50:	687b      	ldr	r3, [r7, #4]
 8006f52:	2204      	movs	r2, #4
 8006f54:	f883 2274 	strb.w	r2, [r3, #628]	; 0x274
 8006f58:	2300      	movs	r3, #0
 8006f5a:	4618      	mov	r0, r3
 8006f5c:	370c      	adds	r7, #12
 8006f5e:	46bd      	mov	sp, r7
 8006f60:	bc80      	pop	{r7}
 8006f62:	4770      	bx	lr

08006f64 <USBD_LL_Resume>:
 8006f64:	b480      	push	{r7}
 8006f66:	b083      	sub	sp, #12
 8006f68:	af00      	add	r7, sp, #0
 8006f6a:	6078      	str	r0, [r7, #4]
 8006f6c:	687b      	ldr	r3, [r7, #4]
 8006f6e:	f893 2275 	ldrb.w	r2, [r3, #629]	; 0x275
 8006f72:	687b      	ldr	r3, [r7, #4]
 8006f74:	f883 2274 	strb.w	r2, [r3, #628]	; 0x274
 8006f78:	2300      	movs	r3, #0
 8006f7a:	4618      	mov	r0, r3
 8006f7c:	370c      	adds	r7, #12
 8006f7e:	46bd      	mov	sp, r7
 8006f80:	bc80      	pop	{r7}
 8006f82:	4770      	bx	lr

08006f84 <USBD_LL_SOF>:
 8006f84:	b580      	push	{r7, lr}
 8006f86:	b082      	sub	sp, #8
 8006f88:	af00      	add	r7, sp, #0
 8006f8a:	6078      	str	r0, [r7, #4]
 8006f8c:	687b      	ldr	r3, [r7, #4]
 8006f8e:	f893 3274 	ldrb.w	r3, [r3, #628]	; 0x274
 8006f92:	2b03      	cmp	r3, #3
 8006f94:	d10b      	bne.n	8006fae <USBD_LL_SOF+0x2a>
 8006f96:	687b      	ldr	r3, [r7, #4]
 8006f98:	f8d3 328c 	ldr.w	r3, [r3, #652]	; 0x28c
 8006f9c:	69db      	ldr	r3, [r3, #28]
 8006f9e:	2b00      	cmp	r3, #0
 8006fa0:	d005      	beq.n	8006fae <USBD_LL_SOF+0x2a>
 8006fa2:	687b      	ldr	r3, [r7, #4]
 8006fa4:	f8d3 328c 	ldr.w	r3, [r3, #652]	; 0x28c
 8006fa8:	69db      	ldr	r3, [r3, #28]
 8006faa:	6878      	ldr	r0, [r7, #4]
 8006fac:	4798      	blx	r3
 8006fae:	2300      	movs	r3, #0
 8006fb0:	4618      	mov	r0, r3
 8006fb2:	3708      	adds	r7, #8
 8006fb4:	46bd      	mov	sp, r7
 8006fb6:	bd80      	pop	{r7, pc}

08006fb8 <USBD_StdDevReq>:
 8006fb8:	b580      	push	{r7, lr}
 8006fba:	b084      	sub	sp, #16
 8006fbc:	af00      	add	r7, sp, #0
 8006fbe:	6078      	str	r0, [r7, #4]
 8006fc0:	6039      	str	r1, [r7, #0]
 8006fc2:	2300      	movs	r3, #0
 8006fc4:	73fb      	strb	r3, [r7, #15]
 8006fc6:	683b      	ldr	r3, [r7, #0]
 8006fc8:	781b      	ldrb	r3, [r3, #0]
 8006fca:	f003 0360 	and.w	r3, r3, #96	; 0x60
 8006fce:	2b40      	cmp	r3, #64	; 0x40
 8006fd0:	d005      	beq.n	8006fde <USBD_StdDevReq+0x26>
 8006fd2:	2b40      	cmp	r3, #64	; 0x40
 8006fd4:	d84f      	bhi.n	8007076 <USBD_StdDevReq+0xbe>
 8006fd6:	2b00      	cmp	r3, #0
 8006fd8:	d009      	beq.n	8006fee <USBD_StdDevReq+0x36>
 8006fda:	2b20      	cmp	r3, #32
 8006fdc:	d14b      	bne.n	8007076 <USBD_StdDevReq+0xbe>
 8006fde:	687b      	ldr	r3, [r7, #4]
 8006fe0:	f8d3 328c 	ldr.w	r3, [r3, #652]	; 0x28c
 8006fe4:	689b      	ldr	r3, [r3, #8]
 8006fe6:	6839      	ldr	r1, [r7, #0]
 8006fe8:	6878      	ldr	r0, [r7, #4]
 8006fea:	4798      	blx	r3
 8006fec:	e048      	b.n	8007080 <USBD_StdDevReq+0xc8>
 8006fee:	683b      	ldr	r3, [r7, #0]
 8006ff0:	785b      	ldrb	r3, [r3, #1]
 8006ff2:	2b09      	cmp	r3, #9
 8006ff4:	d839      	bhi.n	800706a <USBD_StdDevReq+0xb2>
 8006ff6:	a201      	add	r2, pc, #4	; (adr r2, 8006ffc <USBD_StdDevReq+0x44>)
 8006ff8:	f852 f023 	ldr.w	pc, [r2, r3, lsl #2]
 8006ffc:	0800704d 	.word	0x0800704d
 8007000:	08007061 	.word	0x08007061
 8007004:	0800706b 	.word	0x0800706b
 8007008:	08007057 	.word	0x08007057
 800700c:	0800706b 	.word	0x0800706b
 8007010:	0800702f 	.word	0x0800702f
 8007014:	08007025 	.word	0x08007025
 8007018:	0800706b 	.word	0x0800706b
 800701c:	08007043 	.word	0x08007043
 8007020:	08007039 	.word	0x08007039
 8007024:	6839      	ldr	r1, [r7, #0]
 8007026:	6878      	ldr	r0, [r7, #4]
 8007028:	f000 f9da 	bl	80073e0 <USBD_GetDescriptor>
 800702c:	e022      	b.n	8007074 <USBD_StdDevReq+0xbc>
 800702e:	6839      	ldr	r1, [r7, #0]
 8007030:	6878      	ldr	r0, [r7, #4]
 8007032:	f000 facf 	bl	80075d4 <USBD_SetAddress>
 8007036:	e01d      	b.n	8007074 <USBD_StdDevReq+0xbc>
 8007038:	6839      	ldr	r1, [r7, #0]
 800703a:	6878      	ldr	r0, [r7, #4]
 800703c:	f000 fb0e 	bl	800765c <USBD_SetConfig>
 8007040:	e018      	b.n	8007074 <USBD_StdDevReq+0xbc>
 8007042:	6839      	ldr	r1, [r7, #0]
 8007044:	6878      	ldr	r0, [r7, #4]
 8007046:	f000 fb97 	bl	8007778 <USBD_GetConfig>
 800704a:	e013      	b.n	8007074 <USBD_StdDevReq+0xbc>
 800704c:	6839      	ldr	r1, [r7, #0]
 800704e:	6878      	ldr	r0, [r7, #4]
 8007050:	f000 fbc7 	bl	80077e2 <USBD_GetStatus>
 8007054:	e00e      	b.n	8007074 <USBD_StdDevReq+0xbc>
 8007056:	6839      	ldr	r1, [r7, #0]
 8007058:	6878      	ldr	r0, [r7, #4]
 800705a:	f000 fbf5 	bl	8007848 <USBD_SetFeature>
 800705e:	e009      	b.n	8007074 <USBD_StdDevReq+0xbc>
 8007060:	6839      	ldr	r1, [r7, #0]
 8007062:	6878      	ldr	r0, [r7, #4]
 8007064:	f000 fc04 	bl	8007870 <USBD_ClrFeature>
 8007068:	e004      	b.n	8007074 <USBD_StdDevReq+0xbc>
 800706a:	6839      	ldr	r1, [r7, #0]
 800706c:	6878      	ldr	r0, [r7, #4]
 800706e:	f000 fc5c 	bl	800792a <USBD_CtlError>
 8007072:	bf00      	nop
 8007074:	e004      	b.n	8007080 <USBD_StdDevReq+0xc8>
 8007076:	6839      	ldr	r1, [r7, #0]
 8007078:	6878      	ldr	r0, [r7, #4]
 800707a:	f000 fc56 	bl	800792a <USBD_CtlError>
 800707e:	bf00      	nop
 8007080:	7bfb      	ldrb	r3, [r7, #15]
 8007082:	4618      	mov	r0, r3
 8007084:	3710      	adds	r7, #16
 8007086:	46bd      	mov	sp, r7
 8007088:	bd80      	pop	{r7, pc}
 800708a:	bf00      	nop

0800708c <USBD_StdItfReq>:
 800708c:	b580      	push	{r7, lr}
 800708e:	b084      	sub	sp, #16
 8007090:	af00      	add	r7, sp, #0
 8007092:	6078      	str	r0, [r7, #4]
 8007094:	6039      	str	r1, [r7, #0]
 8007096:	2300      	movs	r3, #0
 8007098:	73fb      	strb	r3, [r7, #15]
 800709a:	683b      	ldr	r3, [r7, #0]
 800709c:	781b      	ldrb	r3, [r3, #0]
 800709e:	f003 0360 	and.w	r3, r3, #96	; 0x60
 80070a2:	2b40      	cmp	r3, #64	; 0x40
 80070a4:	d005      	beq.n	80070b2 <USBD_StdItfReq+0x26>
 80070a6:	2b40      	cmp	r3, #64	; 0x40
 80070a8:	d82e      	bhi.n	8007108 <USBD_StdItfReq+0x7c>
 80070aa:	2b00      	cmp	r3, #0
 80070ac:	d001      	beq.n	80070b2 <USBD_StdItfReq+0x26>
 80070ae:	2b20      	cmp	r3, #32
 80070b0:	d12a      	bne.n	8007108 <USBD_StdItfReq+0x7c>
 80070b2:	687b      	ldr	r3, [r7, #4]
 80070b4:	f893 3274 	ldrb.w	r3, [r3, #628]	; 0x274
 80070b8:	3b01      	subs	r3, #1
 80070ba:	2b02      	cmp	r3, #2
 80070bc:	d81d      	bhi.n	80070fa <USBD_StdItfReq+0x6e>
 80070be:	683b      	ldr	r3, [r7, #0]
 80070c0:	889b      	ldrh	r3, [r3, #4]
 80070c2:	b2db      	uxtb	r3, r3
 80070c4:	2b01      	cmp	r3, #1
 80070c6:	d813      	bhi.n	80070f0 <USBD_StdItfReq+0x64>
 80070c8:	687b      	ldr	r3, [r7, #4]
 80070ca:	f8d3 328c 	ldr.w	r3, [r3, #652]	; 0x28c
 80070ce:	689b      	ldr	r3, [r3, #8]
 80070d0:	6839      	ldr	r1, [r7, #0]
 80070d2:	6878      	ldr	r0, [r7, #4]
 80070d4:	4798      	blx	r3
 80070d6:	4603      	mov	r3, r0
 80070d8:	73fb      	strb	r3, [r7, #15]
 80070da:	683b      	ldr	r3, [r7, #0]
 80070dc:	88db      	ldrh	r3, [r3, #6]
 80070de:	2b00      	cmp	r3, #0
 80070e0:	d110      	bne.n	8007104 <USBD_StdItfReq+0x78>
 80070e2:	7bfb      	ldrb	r3, [r7, #15]
 80070e4:	2b00      	cmp	r3, #0
 80070e6:	d10d      	bne.n	8007104 <USBD_StdItfReq+0x78>
 80070e8:	6878      	ldr	r0, [r7, #4]
 80070ea:	f000 fce6 	bl	8007aba <USBD_CtlSendStatus>
 80070ee:	e009      	b.n	8007104 <USBD_StdItfReq+0x78>
 80070f0:	6839      	ldr	r1, [r7, #0]
 80070f2:	6878      	ldr	r0, [r7, #4]
 80070f4:	f000 fc19 	bl	800792a <USBD_CtlError>
 80070f8:	e004      	b.n	8007104 <USBD_StdItfReq+0x78>
 80070fa:	6839      	ldr	r1, [r7, #0]
 80070fc:	6878      	ldr	r0, [r7, #4]
 80070fe:	f000 fc14 	bl	800792a <USBD_CtlError>
 8007102:	e000      	b.n	8007106 <USBD_StdItfReq+0x7a>
 8007104:	bf00      	nop
 8007106:	e004      	b.n	8007112 <USBD_StdItfReq+0x86>
 8007108:	6839      	ldr	r1, [r7, #0]
 800710a:	6878      	ldr	r0, [r7, #4]
 800710c:	f000 fc0d 	bl	800792a <USBD_CtlError>
 8007110:	bf00      	nop
 8007112:	2300      	movs	r3, #0
 8007114:	4618      	mov	r0, r3
 8007116:	3710      	adds	r7, #16
 8007118:	46bd      	mov	sp, r7
 800711a:	bd80      	pop	{r7, pc}

0800711c <USBD_StdEPReq>:
 800711c:	b580      	push	{r7, lr}
 800711e:	b084      	sub	sp, #16
 8007120:	af00      	add	r7, sp, #0
 8007122:	6078      	str	r0, [r7, #4]
 8007124:	6039      	str	r1, [r7, #0]
 8007126:	2300      	movs	r3, #0
 8007128:	73fb      	strb	r3, [r7, #15]
 800712a:	683b      	ldr	r3, [r7, #0]
 800712c:	889b      	ldrh	r3, [r3, #4]
 800712e:	73bb      	strb	r3, [r7, #14]
 8007130:	683b      	ldr	r3, [r7, #0]
 8007132:	781b      	ldrb	r3, [r3, #0]
 8007134:	f003 0360 	and.w	r3, r3, #96	; 0x60
 8007138:	2b40      	cmp	r3, #64	; 0x40
 800713a:	d007      	beq.n	800714c <USBD_StdEPReq+0x30>
 800713c:	2b40      	cmp	r3, #64	; 0x40
 800713e:	f200 8144 	bhi.w	80073ca <USBD_StdEPReq+0x2ae>
 8007142:	2b00      	cmp	r3, #0
 8007144:	d00a      	beq.n	800715c <USBD_StdEPReq+0x40>
 8007146:	2b20      	cmp	r3, #32
 8007148:	f040 813f 	bne.w	80073ca <USBD_StdEPReq+0x2ae>
 800714c:	687b      	ldr	r3, [r7, #4]
 800714e:	f8d3 328c 	ldr.w	r3, [r3, #652]	; 0x28c
 8007152:	689b      	ldr	r3, [r3, #8]
 8007154:	6839      	ldr	r1, [r7, #0]
 8007156:	6878      	ldr	r0, [r7, #4]
 8007158:	4798      	blx	r3
 800715a:	e13b      	b.n	80073d4 <USBD_StdEPReq+0x2b8>
 800715c:	683b      	ldr	r3, [r7, #0]
 800715e:	781b      	ldrb	r3, [r3, #0]
 8007160:	f003 0360 	and.w	r3, r3, #96	; 0x60
 8007164:	2b20      	cmp	r3, #32
 8007166:	d10a      	bne.n	800717e <USBD_StdEPReq+0x62>
 8007168:	687b      	ldr	r3, [r7, #4]
 800716a:	f8d3 328c 	ldr.w	r3, [r3, #652]	; 0x28c
 800716e:	689b      	ldr	r3, [r3, #8]
 8007170:	6839      	ldr	r1, [r7, #0]
 8007172:	6878      	ldr	r0, [r7, #4]
 8007174:	4798      	blx	r3
 8007176:	4603      	mov	r3, r0
 8007178:	73fb      	strb	r3, [r7, #15]
 800717a:	7bfb      	ldrb	r3, [r7, #15]
 800717c:	e12b      	b.n	80073d6 <USBD_StdEPReq+0x2ba>
 800717e:	683b      	ldr	r3, [r7, #0]
 8007180:	785b      	ldrb	r3, [r3, #1]
 8007182:	2b03      	cmp	r3, #3
 8007184:	d007      	beq.n	8007196 <USBD_StdEPReq+0x7a>
 8007186:	2b03      	cmp	r3, #3
 8007188:	f300 8119 	bgt.w	80073be <USBD_StdEPReq+0x2a2>
 800718c:	2b00      	cmp	r3, #0
 800718e:	d072      	beq.n	8007276 <USBD_StdEPReq+0x15a>
 8007190:	2b01      	cmp	r3, #1
 8007192:	d03a      	beq.n	800720a <USBD_StdEPReq+0xee>
 8007194:	e113      	b.n	80073be <USBD_StdEPReq+0x2a2>
 8007196:	687b      	ldr	r3, [r7, #4]
 8007198:	f893 3274 	ldrb.w	r3, [r3, #628]	; 0x274
 800719c:	2b02      	cmp	r3, #2
 800719e:	d002      	beq.n	80071a6 <USBD_StdEPReq+0x8a>
 80071a0:	2b03      	cmp	r3, #3
 80071a2:	d015      	beq.n	80071d0 <USBD_StdEPReq+0xb4>
 80071a4:	e02b      	b.n	80071fe <USBD_StdEPReq+0xe2>
 80071a6:	7bbb      	ldrb	r3, [r7, #14]
 80071a8:	2b00      	cmp	r3, #0
 80071aa:	d00c      	beq.n	80071c6 <USBD_StdEPReq+0xaa>
 80071ac:	7bbb      	ldrb	r3, [r7, #14]
 80071ae:	2b80      	cmp	r3, #128	; 0x80
 80071b0:	d009      	beq.n	80071c6 <USBD_StdEPReq+0xaa>
 80071b2:	7bbb      	ldrb	r3, [r7, #14]
 80071b4:	4619      	mov	r1, r3
 80071b6:	6878      	ldr	r0, [r7, #4]
 80071b8:	f001 f848 	bl	800824c <USBD_LL_StallEP>
 80071bc:	2180      	movs	r1, #128	; 0x80
 80071be:	6878      	ldr	r0, [r7, #4]
 80071c0:	f001 f844 	bl	800824c <USBD_LL_StallEP>
 80071c4:	e020      	b.n	8007208 <USBD_StdEPReq+0xec>
 80071c6:	6839      	ldr	r1, [r7, #0]
 80071c8:	6878      	ldr	r0, [r7, #4]
 80071ca:	f000 fbae 	bl	800792a <USBD_CtlError>
 80071ce:	e01b      	b.n	8007208 <USBD_StdEPReq+0xec>
 80071d0:	683b      	ldr	r3, [r7, #0]
 80071d2:	885b      	ldrh	r3, [r3, #2]
 80071d4:	2b00      	cmp	r3, #0
 80071d6:	d10e      	bne.n	80071f6 <USBD_StdEPReq+0xda>
 80071d8:	7bbb      	ldrb	r3, [r7, #14]
 80071da:	2b00      	cmp	r3, #0
 80071dc:	d00b      	beq.n	80071f6 <USBD_StdEPReq+0xda>
 80071de:	7bbb      	ldrb	r3, [r7, #14]
 80071e0:	2b80      	cmp	r3, #128	; 0x80
 80071e2:	d008      	beq.n	80071f6 <USBD_StdEPReq+0xda>
 80071e4:	683b      	ldr	r3, [r7, #0]
 80071e6:	88db      	ldrh	r3, [r3, #6]
 80071e8:	2b00      	cmp	r3, #0
 80071ea:	d104      	bne.n	80071f6 <USBD_StdEPReq+0xda>
 80071ec:	7bbb      	ldrb	r3, [r7, #14]
 80071ee:	4619      	mov	r1, r3
 80071f0:	6878      	ldr	r0, [r7, #4]
 80071f2:	f001 f82b 	bl	800824c <USBD_LL_StallEP>
 80071f6:	6878      	ldr	r0, [r7, #4]
 80071f8:	f000 fc5f 	bl	8007aba <USBD_CtlSendStatus>
 80071fc:	e004      	b.n	8007208 <USBD_StdEPReq+0xec>
 80071fe:	6839      	ldr	r1, [r7, #0]
 8007200:	6878      	ldr	r0, [r7, #4]
 8007202:	f000 fb92 	bl	800792a <USBD_CtlError>
 8007206:	bf00      	nop
 8007208:	e0de      	b.n	80073c8 <USBD_StdEPReq+0x2ac>
 800720a:	687b      	ldr	r3, [r7, #4]
 800720c:	f893 3274 	ldrb.w	r3, [r3, #628]	; 0x274
 8007210:	2b02      	cmp	r3, #2
 8007212:	d002      	beq.n	800721a <USBD_StdEPReq+0xfe>
 8007214:	2b03      	cmp	r3, #3
 8007216:	d015      	beq.n	8007244 <USBD_StdEPReq+0x128>
 8007218:	e026      	b.n	8007268 <USBD_StdEPReq+0x14c>
 800721a:	7bbb      	ldrb	r3, [r7, #14]
 800721c:	2b00      	cmp	r3, #0
 800721e:	d00c      	beq.n	800723a <USBD_StdEPReq+0x11e>
 8007220:	7bbb      	ldrb	r3, [r7, #14]
 8007222:	2b80      	cmp	r3, #128	; 0x80
 8007224:	d009      	beq.n	800723a <USBD_StdEPReq+0x11e>
 8007226:	7bbb      	ldrb	r3, [r7, #14]
 8007228:	4619      	mov	r1, r3
 800722a:	6878      	ldr	r0, [r7, #4]
 800722c:	f001 f80e 	bl	800824c <USBD_LL_StallEP>
 8007230:	2180      	movs	r1, #128	; 0x80
 8007232:	6878      	ldr	r0, [r7, #4]
 8007234:	f001 f80a 	bl	800824c <USBD_LL_StallEP>
 8007238:	e01c      	b.n	8007274 <USBD_StdEPReq+0x158>
 800723a:	6839      	ldr	r1, [r7, #0]
 800723c:	6878      	ldr	r0, [r7, #4]
 800723e:	f000 fb74 	bl	800792a <USBD_CtlError>
 8007242:	e017      	b.n	8007274 <USBD_StdEPReq+0x158>
 8007244:	683b      	ldr	r3, [r7, #0]
 8007246:	885b      	ldrh	r3, [r3, #2]
 8007248:	2b00      	cmp	r3, #0
 800724a:	d112      	bne.n	8007272 <USBD_StdEPReq+0x156>
 800724c:	7bbb      	ldrb	r3, [r7, #14]
 800724e:	f003 037f 	and.w	r3, r3, #127	; 0x7f
 8007252:	2b00      	cmp	r3, #0
 8007254:	d004      	beq.n	8007260 <USBD_StdEPReq+0x144>
 8007256:	7bbb      	ldrb	r3, [r7, #14]
 8007258:	4619      	mov	r1, r3
 800725a:	6878      	ldr	r0, [r7, #4]
 800725c:	f001 f815 	bl	800828a <USBD_LL_ClearStallEP>
 8007260:	6878      	ldr	r0, [r7, #4]
 8007262:	f000 fc2a 	bl	8007aba <USBD_CtlSendStatus>
 8007266:	e004      	b.n	8007272 <USBD_StdEPReq+0x156>
 8007268:	6839      	ldr	r1, [r7, #0]
 800726a:	6878      	ldr	r0, [r7, #4]
 800726c:	f000 fb5d 	bl	800792a <USBD_CtlError>
 8007270:	e000      	b.n	8007274 <USBD_StdEPReq+0x158>
 8007272:	bf00      	nop
 8007274:	e0a8      	b.n	80073c8 <USBD_StdEPReq+0x2ac>
 8007276:	687b      	ldr	r3, [r7, #4]
 8007278:	f893 3274 	ldrb.w	r3, [r3, #628]	; 0x274
 800727c:	2b02      	cmp	r3, #2
 800727e:	d002      	beq.n	8007286 <USBD_StdEPReq+0x16a>
 8007280:	2b03      	cmp	r3, #3
 8007282:	d031      	beq.n	80072e8 <USBD_StdEPReq+0x1cc>
 8007284:	e095      	b.n	80073b2 <USBD_StdEPReq+0x296>
 8007286:	7bbb      	ldrb	r3, [r7, #14]
 8007288:	2b00      	cmp	r3, #0
 800728a:	d007      	beq.n	800729c <USBD_StdEPReq+0x180>
 800728c:	7bbb      	ldrb	r3, [r7, #14]
 800728e:	2b80      	cmp	r3, #128	; 0x80
 8007290:	d004      	beq.n	800729c <USBD_StdEPReq+0x180>
 8007292:	6839      	ldr	r1, [r7, #0]
 8007294:	6878      	ldr	r0, [r7, #4]
 8007296:	f000 fb48 	bl	800792a <USBD_CtlError>
 800729a:	e08f      	b.n	80073bc <USBD_StdEPReq+0x2a0>
 800729c:	f997 300e 	ldrsb.w	r3, [r7, #14]
 80072a0:	2b00      	cmp	r3, #0
 80072a2:	da0b      	bge.n	80072bc <USBD_StdEPReq+0x1a0>
 80072a4:	7bbb      	ldrb	r3, [r7, #14]
 80072a6:	f003 027f 	and.w	r2, r3, #127	; 0x7f
 80072aa:	4613      	mov	r3, r2
 80072ac:	009b      	lsls	r3, r3, #2
 80072ae:	4413      	add	r3, r2
 80072b0:	009b      	lsls	r3, r3, #2
 80072b2:	3310      	adds	r3, #16
 80072b4:	687a      	ldr	r2, [r7, #4]
 80072b6:	4413      	add	r3, r2
 80072b8:	3304      	adds	r3, #4
 80072ba:	e00a      	b.n	80072d2 <USBD_StdEPReq+0x1b6>
 80072bc:	7bbb      	ldrb	r3, [r7, #14]
 80072be:	f003 027f 	and.w	r2, r3, #127	; 0x7f
 80072c2:	4613      	mov	r3, r2
 80072c4:	009b      	lsls	r3, r3, #2
 80072c6:	4413      	add	r3, r2
 80072c8:	009b      	lsls	r3, r3, #2
 80072ca:	f503 73a0 	add.w	r3, r3, #320	; 0x140
 80072ce:	687a      	ldr	r2, [r7, #4]
 80072d0:	4413      	add	r3, r2
 80072d2:	60bb      	str	r3, [r7, #8]
 80072d4:	68bb      	ldr	r3, [r7, #8]
 80072d6:	2200      	movs	r2, #0
 80072d8:	601a      	str	r2, [r3, #0]
 80072da:	68bb      	ldr	r3, [r7, #8]
 80072dc:	2202      	movs	r2, #2
 80072de:	4619      	mov	r1, r3
 80072e0:	6878      	ldr	r0, [r7, #4]
 80072e2:	f000 fb8c 	bl	80079fe <USBD_CtlSendData>
 80072e6:	e069      	b.n	80073bc <USBD_StdEPReq+0x2a0>
 80072e8:	f997 300e 	ldrsb.w	r3, [r7, #14]
 80072ec:	2b00      	cmp	r3, #0
 80072ee:	da11      	bge.n	8007314 <USBD_StdEPReq+0x1f8>
 80072f0:	7bbb      	ldrb	r3, [r7, #14]
 80072f2:	f003 020f 	and.w	r2, r3, #15
 80072f6:	6879      	ldr	r1, [r7, #4]
 80072f8:	4613      	mov	r3, r2
 80072fa:	009b      	lsls	r3, r3, #2
 80072fc:	4413      	add	r3, r2
 80072fe:	009b      	lsls	r3, r3, #2
 8007300:	440b      	add	r3, r1
 8007302:	3318      	adds	r3, #24
 8007304:	681b      	ldr	r3, [r3, #0]
 8007306:	2b00      	cmp	r3, #0
 8007308:	d117      	bne.n	800733a <USBD_StdEPReq+0x21e>
 800730a:	6839      	ldr	r1, [r7, #0]
 800730c:	6878      	ldr	r0, [r7, #4]
 800730e:	f000 fb0c 	bl	800792a <USBD_CtlError>
 8007312:	e053      	b.n	80073bc <USBD_StdEPReq+0x2a0>
 8007314:	7bbb      	ldrb	r3, [r7, #14]
 8007316:	f003 020f 	and.w	r2, r3, #15
 800731a:	6879      	ldr	r1, [r7, #4]
 800731c:	4613      	mov	r3, r2
 800731e:	009b      	lsls	r3, r3, #2
 8007320:	4413      	add	r3, r2
 8007322:	009b      	lsls	r3, r3, #2
 8007324:	440b      	add	r3, r1
 8007326:	f503 73a2 	add.w	r3, r3, #324	; 0x144
 800732a:	681b      	ldr	r3, [r3, #0]
 800732c:	2b00      	cmp	r3, #0
 800732e:	d104      	bne.n	800733a <USBD_StdEPReq+0x21e>
 8007330:	6839      	ldr	r1, [r7, #0]
 8007332:	6878      	ldr	r0, [r7, #4]
 8007334:	f000 faf9 	bl	800792a <USBD_CtlError>
 8007338:	e040      	b.n	80073bc <USBD_StdEPReq+0x2a0>
 800733a:	f997 300e 	ldrsb.w	r3, [r7, #14]
 800733e:	2b00      	cmp	r3, #0
 8007340:	da0b      	bge.n	800735a <USBD_StdEPReq+0x23e>
 8007342:	7bbb      	ldrb	r3, [r7, #14]
 8007344:	f003 027f 	and.w	r2, r3, #127	; 0x7f
 8007348:	4613      	mov	r3, r2
 800734a:	009b      	lsls	r3, r3, #2
 800734c:	4413      	add	r3, r2
 800734e:	009b      	lsls	r3, r3, #2
 8007350:	3310      	adds	r3, #16
 8007352:	687a      	ldr	r2, [r7, #4]
 8007354:	4413      	add	r3, r2
 8007356:	3304      	adds	r3, #4
 8007358:	e00a      	b.n	8007370 <USBD_StdEPReq+0x254>
 800735a:	7bbb      	ldrb	r3, [r7, #14]
 800735c:	f003 027f 	and.w	r2, r3, #127	; 0x7f
 8007360:	4613      	mov	r3, r2
 8007362:	009b      	lsls	r3, r3, #2
 8007364:	4413      	add	r3, r2
 8007366:	009b      	lsls	r3, r3, #2
 8007368:	f503 73a0 	add.w	r3, r3, #320	; 0x140
 800736c:	687a      	ldr	r2, [r7, #4]
 800736e:	4413      	add	r3, r2
 8007370:	60bb      	str	r3, [r7, #8]
 8007372:	7bbb      	ldrb	r3, [r7, #14]
 8007374:	2b00      	cmp	r3, #0
 8007376:	d002      	beq.n	800737e <USBD_StdEPReq+0x262>
 8007378:	7bbb      	ldrb	r3, [r7, #14]
 800737a:	2b80      	cmp	r3, #128	; 0x80
 800737c:	d103      	bne.n	8007386 <USBD_StdEPReq+0x26a>
 800737e:	68bb      	ldr	r3, [r7, #8]
 8007380:	2200      	movs	r2, #0
 8007382:	601a      	str	r2, [r3, #0]
 8007384:	e00e      	b.n	80073a4 <USBD_StdEPReq+0x288>
 8007386:	7bbb      	ldrb	r3, [r7, #14]
 8007388:	4619      	mov	r1, r3
 800738a:	6878      	ldr	r0, [r7, #4]
 800738c:	f000 ff9c 	bl	80082c8 <USBD_LL_IsStallEP>
 8007390:	4603      	mov	r3, r0
 8007392:	2b00      	cmp	r3, #0
 8007394:	d003      	beq.n	800739e <USBD_StdEPReq+0x282>
 8007396:	68bb      	ldr	r3, [r7, #8]
 8007398:	2201      	movs	r2, #1
 800739a:	601a      	str	r2, [r3, #0]
 800739c:	e002      	b.n	80073a4 <USBD_StdEPReq+0x288>
 800739e:	68bb      	ldr	r3, [r7, #8]
 80073a0:	2200      	movs	r2, #0
 80073a2:	601a      	str	r2, [r3, #0]
 80073a4:	68bb      	ldr	r3, [r7, #8]
 80073a6:	2202      	movs	r2, #2
 80073a8:	4619      	mov	r1, r3
 80073aa:	6878      	ldr	r0, [r7, #4]
 80073ac:	f000 fb27 	bl	80079fe <USBD_CtlSendData>
 80073b0:	e004      	b.n	80073bc <USBD_StdEPReq+0x2a0>
 80073b2:	6839      	ldr	r1, [r7, #0]
 80073b4:	6878      	ldr	r0, [r7, #4]
 80073b6:	f000 fab8 	bl	800792a <USBD_CtlError>
 80073ba:	bf00      	nop
 80073bc:	e004      	b.n	80073c8 <USBD_StdEPReq+0x2ac>
 80073be:	6839      	ldr	r1, [r7, #0]
 80073c0:	6878      	ldr	r0, [r7, #4]
 80073c2:	f000 fab2 	bl	800792a <USBD_CtlError>
 80073c6:	bf00      	nop
 80073c8:	e004      	b.n	80073d4 <USBD_StdEPReq+0x2b8>
 80073ca:	6839      	ldr	r1, [r7, #0]
 80073cc:	6878      	ldr	r0, [r7, #4]
 80073ce:	f000 faac 	bl	800792a <USBD_CtlError>
 80073d2:	bf00      	nop
 80073d4:	7bfb      	ldrb	r3, [r7, #15]
 80073d6:	4618      	mov	r0, r3
 80073d8:	3710      	adds	r7, #16
 80073da:	46bd      	mov	sp, r7
 80073dc:	bd80      	pop	{r7, pc}
	...

080073e0 <USBD_GetDescriptor>:
 80073e0:	b580      	push	{r7, lr}
 80073e2:	b084      	sub	sp, #16
 80073e4:	af00      	add	r7, sp, #0
 80073e6:	6078      	str	r0, [r7, #4]
 80073e8:	6039      	str	r1, [r7, #0]
 80073ea:	683b      	ldr	r3, [r7, #0]
 80073ec:	885b      	ldrh	r3, [r3, #2]
 80073ee:	0a1b      	lsrs	r3, r3, #8
 80073f0:	b29b      	uxth	r3, r3
 80073f2:	3b01      	subs	r3, #1
 80073f4:	2b06      	cmp	r3, #6
 80073f6:	f200 80c9 	bhi.w	800758c <USBD_GetDescriptor+0x1ac>
 80073fa:	a201      	add	r2, pc, #4	; (adr r2, 8007400 <USBD_GetDescriptor+0x20>)
 80073fc:	f852 f023 	ldr.w	pc, [r2, r3, lsl #2]
 8007400:	0800741d 	.word	0x0800741d
 8007404:	08007435 	.word	0x08007435
 8007408:	08007475 	.word	0x08007475
 800740c:	0800758d 	.word	0x0800758d
 8007410:	0800758d 	.word	0x0800758d
 8007414:	08007539 	.word	0x08007539
 8007418:	0800755f 	.word	0x0800755f
 800741c:	687b      	ldr	r3, [r7, #4]
 800741e:	f8d3 3288 	ldr.w	r3, [r3, #648]	; 0x288
 8007422:	681b      	ldr	r3, [r3, #0]
 8007424:	687a      	ldr	r2, [r7, #4]
 8007426:	7c12      	ldrb	r2, [r2, #16]
 8007428:	f107 010a 	add.w	r1, r7, #10
 800742c:	4610      	mov	r0, r2
 800742e:	4798      	blx	r3
 8007430:	60f8      	str	r0, [r7, #12]
 8007432:	e0b0      	b.n	8007596 <USBD_GetDescriptor+0x1b6>
 8007434:	687b      	ldr	r3, [r7, #4]
 8007436:	7c1b      	ldrb	r3, [r3, #16]
 8007438:	2b00      	cmp	r3, #0
 800743a:	d10d      	bne.n	8007458 <USBD_GetDescriptor+0x78>
 800743c:	687b      	ldr	r3, [r7, #4]
 800743e:	f8d3 328c 	ldr.w	r3, [r3, #652]	; 0x28c
 8007442:	6a9b      	ldr	r3, [r3, #40]	; 0x28
 8007444:	f107 020a 	add.w	r2, r7, #10
 8007448:	4610      	mov	r0, r2
 800744a:	4798      	blx	r3
 800744c:	60f8      	str	r0, [r7, #12]
 800744e:	68fb      	ldr	r3, [r7, #12]
 8007450:	3301      	adds	r3, #1
 8007452:	2202      	movs	r2, #2
 8007454:	701a      	strb	r2, [r3, #0]
 8007456:	e09e      	b.n	8007596 <USBD_GetDescriptor+0x1b6>
 8007458:	687b      	ldr	r3, [r7, #4]
 800745a:	f8d3 328c 	ldr.w	r3, [r3, #652]	; 0x28c
 800745e:	6adb      	ldr	r3, [r3, #44]	; 0x2c
 8007460:	f107 020a 	add.w	r2, r7, #10
 8007464:	4610      	mov	r0, r2
 8007466:	4798      	blx	r3
 8007468:	60f8      	str	r0, [r7, #12]
 800746a:	68fb      	ldr	r3, [r7, #12]
 800746c:	3301      	adds	r3, #1
 800746e:	2202      	movs	r2, #2
 8007470:	701a      	strb	r2, [r3, #0]
 8007472:	e090      	b.n	8007596 <USBD_GetDescriptor+0x1b6>
 8007474:	683b      	ldr	r3, [r7, #0]
 8007476:	885b      	ldrh	r3, [r3, #2]
 8007478:	b2db      	uxtb	r3, r3
 800747a:	2b05      	cmp	r3, #5
 800747c:	d856      	bhi.n	800752c <USBD_GetDescriptor+0x14c>
 800747e:	a201      	add	r2, pc, #4	; (adr r2, 8007484 <USBD_GetDescriptor+0xa4>)
 8007480:	f852 f023 	ldr.w	pc, [r2, r3, lsl #2]
 8007484:	0800749d 	.word	0x0800749d
 8007488:	080074b5 	.word	0x080074b5
 800748c:	080074cd 	.word	0x080074cd
 8007490:	080074e5 	.word	0x080074e5
 8007494:	080074fd 	.word	0x080074fd
 8007498:	08007515 	.word	0x08007515
 800749c:	687b      	ldr	r3, [r7, #4]
 800749e:	f8d3 3288 	ldr.w	r3, [r3, #648]	; 0x288
 80074a2:	685b      	ldr	r3, [r3, #4]
 80074a4:	687a      	ldr	r2, [r7, #4]
 80074a6:	7c12      	ldrb	r2, [r2, #16]
 80074a8:	f107 010a 	add.w	r1, r7, #10
 80074ac:	4610      	mov	r0, r2
 80074ae:	4798      	blx	r3
 80074b0:	60f8      	str	r0, [r7, #12]
 80074b2:	e040      	b.n	8007536 <USBD_GetDescriptor+0x156>
 80074b4:	687b      	ldr	r3, [r7, #4]
 80074b6:	f8d3 3288 	ldr.w	r3, [r3, #648]	; 0x288
 80074ba:	689b      	ldr	r3, [r3, #8]
 80074bc:	687a      	ldr	r2, [r7, #4]
 80074be:	7c12      	ldrb	r2, [r2, #16]
 80074c0:	f107 010a 	add.w	r1, r7, #10
 80074c4:	4610      	mov	r0, r2
 80074c6:	4798      	blx	r3
 80074c8:	60f8      	str	r0, [r7, #12]
 80074ca:	e034      	b.n	8007536 <USBD_GetDescriptor+0x156>
 80074cc:	687b      	ldr	r3, [r7, #4]
 80074ce:	f8d3 3288 	ldr.w	r3, [r3, #648]	; 0x288
 80074d2:	68db      	ldr	r3, [r3, #12]
 80074d4:	687a      	ldr	r2, [r7, #4]
 80074d6:	7c12      	ldrb	r2, [r2, #16]
 80074d8:	f107 010a 	add.w	r1, r7, #10
 80074dc:	4610      	mov	r0, r2
 80074de:	4798      	blx	r3
 80074e0:	60f8      	str	r0, [r7, #12]
 80074e2:	e028      	b.n	8007536 <USBD_GetDescriptor+0x156>
 80074e4:	687b      	ldr	r3, [r7, #4]
 80074e6:	f8d3 3288 	ldr.w	r3, [r3, #648]	; 0x288
 80074ea:	691b      	ldr	r3, [r3, #16]
 80074ec:	687a      	ldr	r2, [r7, #4]
 80074ee:	7c12      	ldrb	r2, [r2, #16]
 80074f0:	f107 010a 	add.w	r1, r7, #10
 80074f4:	4610      	mov	r0, r2
 80074f6:	4798      	blx	r3
 80074f8:	60f8      	str	r0, [r7, #12]
 80074fa:	e01c      	b.n	8007536 <USBD_GetDescriptor+0x156>
 80074fc:	687b      	ldr	r3, [r7, #4]
 80074fe:	f8d3 3288 	ldr.w	r3, [r3, #648]	; 0x288
 8007502:	695b      	ldr	r3, [r3, #20]
 8007504:	687a      	ldr	r2, [r7, #4]
 8007506:	7c12      	ldrb	r2, [r2, #16]
 8007508:	f107 010a 	add.w	r1, r7, #10
 800750c:	4610      	mov	r0, r2
 800750e:	4798      	blx	r3
 8007510:	60f8      	str	r0, [r7, #12]
 8007512:	e010      	b.n	8007536 <USBD_GetDescriptor+0x156>
 8007514:	687b      	ldr	r3, [r7, #4]
 8007516:	f8d3 3288 	ldr.w	r3, [r3, #648]	; 0x288
 800751a:	699b      	ldr	r3, [r3, #24]
 800751c:	687a      	ldr	r2, [r7, #4]
 800751e:	7c12      	ldrb	r2, [r2, #16]
 8007520:	f107 010a 	add.w	r1, r7, #10
 8007524:	4610      	mov	r0, r2
 8007526:	4798      	blx	r3
 8007528:	60f8      	str	r0, [r7, #12]
 800752a:	e004      	b.n	8007536 <USBD_GetDescriptor+0x156>
 800752c:	6839      	ldr	r1, [r7, #0]
 800752e:	6878      	ldr	r0, [r7, #4]
 8007530:	f000 f9fb 	bl	800792a <USBD_CtlError>
 8007534:	e04b      	b.n	80075ce <USBD_GetDescriptor+0x1ee>
 8007536:	e02e      	b.n	8007596 <USBD_GetDescriptor+0x1b6>
 8007538:	687b      	ldr	r3, [r7, #4]
 800753a:	7c1b      	ldrb	r3, [r3, #16]
 800753c:	2b00      	cmp	r3, #0
 800753e:	d109      	bne.n	8007554 <USBD_GetDescriptor+0x174>
 8007540:	687b      	ldr	r3, [r7, #4]
 8007542:	f8d3 328c 	ldr.w	r3, [r3, #652]	; 0x28c
 8007546:	6b5b      	ldr	r3, [r3, #52]	; 0x34
 8007548:	f107 020a 	add.w	r2, r7, #10
 800754c:	4610      	mov	r0, r2
 800754e:	4798      	blx	r3
 8007550:	60f8      	str	r0, [r7, #12]
 8007552:	e020      	b.n	8007596 <USBD_GetDescriptor+0x1b6>
 8007554:	6839      	ldr	r1, [r7, #0]
 8007556:	6878      	ldr	r0, [r7, #4]
 8007558:	f000 f9e7 	bl	800792a <USBD_CtlError>
 800755c:	e037      	b.n	80075ce <USBD_GetDescriptor+0x1ee>
 800755e:	687b      	ldr	r3, [r7, #4]
 8007560:	7c1b      	ldrb	r3, [r3, #16]
 8007562:	2b00      	cmp	r3, #0
 8007564:	d10d      	bne.n	8007582 <USBD_GetDescriptor+0x1a2>
 8007566:	687b      	ldr	r3, [r7, #4]
 8007568:	f8d3 328c 	ldr.w	r3, [r3, #652]	; 0x28c
 800756c:	6b1b      	ldr	r3, [r3, #48]	; 0x30
 800756e:	f107 020a 	add.w	r2, r7, #10
 8007572:	4610      	mov	r0, r2
 8007574:	4798      	blx	r3
 8007576:	60f8      	str	r0, [r7, #12]
 8007578:	68fb      	ldr	r3, [r7, #12]
 800757a:	3301      	adds	r3, #1
 800757c:	2207      	movs	r2, #7
 800757e:	701a      	strb	r2, [r3, #0]
 8007580:	e009      	b.n	8007596 <USBD_GetDescriptor+0x1b6>
 8007582:	6839      	ldr	r1, [r7, #0]
 8007584:	6878      	ldr	r0, [r7, #4]
 8007586:	f000 f9d0 	bl	800792a <USBD_CtlError>
 800758a:	e020      	b.n	80075ce <USBD_GetDescriptor+0x1ee>
 800758c:	6839      	ldr	r1, [r7, #0]
 800758e:	6878      	ldr	r0, [r7, #4]
 8007590:	f000 f9cb 	bl	800792a <USBD_CtlError>
 8007594:	e01b      	b.n	80075ce <USBD_GetDescriptor+0x1ee>
 8007596:	897b      	ldrh	r3, [r7, #10]
 8007598:	2b00      	cmp	r3, #0
 800759a:	d011      	beq.n	80075c0 <USBD_GetDescriptor+0x1e0>
 800759c:	683b      	ldr	r3, [r7, #0]
 800759e:	88db      	ldrh	r3, [r3, #6]
 80075a0:	2b00      	cmp	r3, #0
 80075a2:	d00d      	beq.n	80075c0 <USBD_GetDescriptor+0x1e0>
 80075a4:	683b      	ldr	r3, [r7, #0]
 80075a6:	88da      	ldrh	r2, [r3, #6]
 80075a8:	897b      	ldrh	r3, [r7, #10]
 80075aa:	4293      	cmp	r3, r2
 80075ac:	bf28      	it	cs
 80075ae:	4613      	movcs	r3, r2
 80075b0:	b29b      	uxth	r3, r3
 80075b2:	817b      	strh	r3, [r7, #10]
 80075b4:	897b      	ldrh	r3, [r7, #10]
 80075b6:	461a      	mov	r2, r3
 80075b8:	68f9      	ldr	r1, [r7, #12]
 80075ba:	6878      	ldr	r0, [r7, #4]
 80075bc:	f000 fa1f 	bl	80079fe <USBD_CtlSendData>
 80075c0:	683b      	ldr	r3, [r7, #0]
 80075c2:	88db      	ldrh	r3, [r3, #6]
 80075c4:	2b00      	cmp	r3, #0
 80075c6:	d102      	bne.n	80075ce <USBD_GetDescriptor+0x1ee>
 80075c8:	6878      	ldr	r0, [r7, #4]
 80075ca:	f000 fa76 	bl	8007aba <USBD_CtlSendStatus>
 80075ce:	3710      	adds	r7, #16
 80075d0:	46bd      	mov	sp, r7
 80075d2:	bd80      	pop	{r7, pc}

080075d4 <USBD_SetAddress>:
 80075d4:	b580      	push	{r7, lr}
 80075d6:	b084      	sub	sp, #16
 80075d8:	af00      	add	r7, sp, #0
 80075da:	6078      	str	r0, [r7, #4]
 80075dc:	6039      	str	r1, [r7, #0]
 80075de:	683b      	ldr	r3, [r7, #0]
 80075e0:	889b      	ldrh	r3, [r3, #4]
 80075e2:	2b00      	cmp	r3, #0
 80075e4:	d130      	bne.n	8007648 <USBD_SetAddress+0x74>
 80075e6:	683b      	ldr	r3, [r7, #0]
 80075e8:	88db      	ldrh	r3, [r3, #6]
 80075ea:	2b00      	cmp	r3, #0
 80075ec:	d12c      	bne.n	8007648 <USBD_SetAddress+0x74>
 80075ee:	683b      	ldr	r3, [r7, #0]
 80075f0:	885b      	ldrh	r3, [r3, #2]
 80075f2:	2b7f      	cmp	r3, #127	; 0x7f
 80075f4:	d828      	bhi.n	8007648 <USBD_SetAddress+0x74>
 80075f6:	683b      	ldr	r3, [r7, #0]
 80075f8:	885b      	ldrh	r3, [r3, #2]
 80075fa:	b2db      	uxtb	r3, r3
 80075fc:	f003 037f 	and.w	r3, r3, #127	; 0x7f
 8007600:	73fb      	strb	r3, [r7, #15]
 8007602:	687b      	ldr	r3, [r7, #4]
 8007604:	f893 3274 	ldrb.w	r3, [r3, #628]	; 0x274
 8007608:	2b03      	cmp	r3, #3
 800760a:	d104      	bne.n	8007616 <USBD_SetAddress+0x42>
 800760c:	6839      	ldr	r1, [r7, #0]
 800760e:	6878      	ldr	r0, [r7, #4]
 8007610:	f000 f98b 	bl	800792a <USBD_CtlError>
 8007614:	e01d      	b.n	8007652 <USBD_SetAddress+0x7e>
 8007616:	687b      	ldr	r3, [r7, #4]
 8007618:	7bfa      	ldrb	r2, [r7, #15]
 800761a:	f883 2276 	strb.w	r2, [r3, #630]	; 0x276
 800761e:	7bfb      	ldrb	r3, [r7, #15]
 8007620:	4619      	mov	r1, r3
 8007622:	6878      	ldr	r0, [r7, #4]
 8007624:	f000 fe75 	bl	8008312 <USBD_LL_SetUSBAddress>
 8007628:	6878      	ldr	r0, [r7, #4]
 800762a:	f000 fa46 	bl	8007aba <USBD_CtlSendStatus>
 800762e:	7bfb      	ldrb	r3, [r7, #15]
 8007630:	2b00      	cmp	r3, #0
 8007632:	d004      	beq.n	800763e <USBD_SetAddress+0x6a>
 8007634:	687b      	ldr	r3, [r7, #4]
 8007636:	2202      	movs	r2, #2
 8007638:	f883 2274 	strb.w	r2, [r3, #628]	; 0x274
 800763c:	e009      	b.n	8007652 <USBD_SetAddress+0x7e>
 800763e:	687b      	ldr	r3, [r7, #4]
 8007640:	2201      	movs	r2, #1
 8007642:	f883 2274 	strb.w	r2, [r3, #628]	; 0x274
 8007646:	e004      	b.n	8007652 <USBD_SetAddress+0x7e>
 8007648:	6839      	ldr	r1, [r7, #0]
 800764a:	6878      	ldr	r0, [r7, #4]
 800764c:	f000 f96d 	bl	800792a <USBD_CtlError>
 8007650:	bf00      	nop
 8007652:	bf00      	nop
 8007654:	3710      	adds	r7, #16
 8007656:	46bd      	mov	sp, r7
 8007658:	bd80      	pop	{r7, pc}
	...

0800765c <USBD_SetConfig>:
 800765c:	b580      	push	{r7, lr}
 800765e:	b082      	sub	sp, #8
 8007660:	af00      	add	r7, sp, #0
 8007662:	6078      	str	r0, [r7, #4]
 8007664:	6039      	str	r1, [r7, #0]
 8007666:	683b      	ldr	r3, [r7, #0]
 8007668:	885b      	ldrh	r3, [r3, #2]
 800766a:	b2da      	uxtb	r2, r3
 800766c:	4b41      	ldr	r3, [pc, #260]	; (8007774 <USBD_SetConfig+0x118>)
 800766e:	701a      	strb	r2, [r3, #0]
 8007670:	4b40      	ldr	r3, [pc, #256]	; (8007774 <USBD_SetConfig+0x118>)
 8007672:	781b      	ldrb	r3, [r3, #0]
 8007674:	2b01      	cmp	r3, #1
 8007676:	d904      	bls.n	8007682 <USBD_SetConfig+0x26>
 8007678:	6839      	ldr	r1, [r7, #0]
 800767a:	6878      	ldr	r0, [r7, #4]
 800767c:	f000 f955 	bl	800792a <USBD_CtlError>
 8007680:	e075      	b.n	800776e <USBD_SetConfig+0x112>
 8007682:	687b      	ldr	r3, [r7, #4]
 8007684:	f893 3274 	ldrb.w	r3, [r3, #628]	; 0x274
 8007688:	2b02      	cmp	r3, #2
 800768a:	d002      	beq.n	8007692 <USBD_SetConfig+0x36>
 800768c:	2b03      	cmp	r3, #3
 800768e:	d023      	beq.n	80076d8 <USBD_SetConfig+0x7c>
 8007690:	e062      	b.n	8007758 <USBD_SetConfig+0xfc>
 8007692:	4b38      	ldr	r3, [pc, #224]	; (8007774 <USBD_SetConfig+0x118>)
 8007694:	781b      	ldrb	r3, [r3, #0]
 8007696:	2b00      	cmp	r3, #0
 8007698:	d01a      	beq.n	80076d0 <USBD_SetConfig+0x74>
 800769a:	4b36      	ldr	r3, [pc, #216]	; (8007774 <USBD_SetConfig+0x118>)
 800769c:	781b      	ldrb	r3, [r3, #0]
 800769e:	461a      	mov	r2, r3
 80076a0:	687b      	ldr	r3, [r7, #4]
 80076a2:	605a      	str	r2, [r3, #4]
 80076a4:	687b      	ldr	r3, [r7, #4]
 80076a6:	2203      	movs	r2, #3
 80076a8:	f883 2274 	strb.w	r2, [r3, #628]	; 0x274
 80076ac:	4b31      	ldr	r3, [pc, #196]	; (8007774 <USBD_SetConfig+0x118>)
 80076ae:	781b      	ldrb	r3, [r3, #0]
 80076b0:	4619      	mov	r1, r3
 80076b2:	6878      	ldr	r0, [r7, #4]
 80076b4:	f7ff fa5d 	bl	8006b72 <USBD_SetClassConfig>
 80076b8:	4603      	mov	r3, r0
 80076ba:	2b02      	cmp	r3, #2
 80076bc:	d104      	bne.n	80076c8 <USBD_SetConfig+0x6c>
 80076be:	6839      	ldr	r1, [r7, #0]
 80076c0:	6878      	ldr	r0, [r7, #4]
 80076c2:	f000 f932 	bl	800792a <USBD_CtlError>
 80076c6:	e052      	b.n	800776e <USBD_SetConfig+0x112>
 80076c8:	6878      	ldr	r0, [r7, #4]
 80076ca:	f000 f9f6 	bl	8007aba <USBD_CtlSendStatus>
 80076ce:	e04e      	b.n	800776e <USBD_SetConfig+0x112>
 80076d0:	6878      	ldr	r0, [r7, #4]
 80076d2:	f000 f9f2 	bl	8007aba <USBD_CtlSendStatus>
 80076d6:	e04a      	b.n	800776e <USBD_SetConfig+0x112>
 80076d8:	4b26      	ldr	r3, [pc, #152]	; (8007774 <USBD_SetConfig+0x118>)
 80076da:	781b      	ldrb	r3, [r3, #0]
 80076dc:	2b00      	cmp	r3, #0
 80076de:	d112      	bne.n	8007706 <USBD_SetConfig+0xaa>
 80076e0:	687b      	ldr	r3, [r7, #4]
 80076e2:	2202      	movs	r2, #2
 80076e4:	f883 2274 	strb.w	r2, [r3, #628]	; 0x274
 80076e8:	4b22      	ldr	r3, [pc, #136]	; (8007774 <USBD_SetConfig+0x118>)
 80076ea:	781b      	ldrb	r3, [r3, #0]
 80076ec:	461a      	mov	r2, r3
 80076ee:	687b      	ldr	r3, [r7, #4]
 80076f0:	605a      	str	r2, [r3, #4]
 80076f2:	4b20      	ldr	r3, [pc, #128]	; (8007774 <USBD_SetConfig+0x118>)
 80076f4:	781b      	ldrb	r3, [r3, #0]
 80076f6:	4619      	mov	r1, r3
 80076f8:	6878      	ldr	r0, [r7, #4]
 80076fa:	f7ff fa59 	bl	8006bb0 <USBD_ClrClassConfig>
 80076fe:	6878      	ldr	r0, [r7, #4]
 8007700:	f000 f9db 	bl	8007aba <USBD_CtlSendStatus>
 8007704:	e033      	b.n	800776e <USBD_SetConfig+0x112>
 8007706:	4b1b      	ldr	r3, [pc, #108]	; (8007774 <USBD_SetConfig+0x118>)
 8007708:	781b      	ldrb	r3, [r3, #0]
 800770a:	461a      	mov	r2, r3
 800770c:	687b      	ldr	r3, [r7, #4]
 800770e:	685b      	ldr	r3, [r3, #4]
 8007710:	429a      	cmp	r2, r3
 8007712:	d01d      	beq.n	8007750 <USBD_SetConfig+0xf4>
 8007714:	687b      	ldr	r3, [r7, #4]
 8007716:	685b      	ldr	r3, [r3, #4]
 8007718:	b2db      	uxtb	r3, r3
 800771a:	4619      	mov	r1, r3
 800771c:	6878      	ldr	r0, [r7, #4]
 800771e:	f7ff fa47 	bl	8006bb0 <USBD_ClrClassConfig>
 8007722:	4b14      	ldr	r3, [pc, #80]	; (8007774 <USBD_SetConfig+0x118>)
 8007724:	781b      	ldrb	r3, [r3, #0]
 8007726:	461a      	mov	r2, r3
 8007728:	687b      	ldr	r3, [r7, #4]
 800772a:	605a      	str	r2, [r3, #4]
 800772c:	4b11      	ldr	r3, [pc, #68]	; (8007774 <USBD_SetConfig+0x118>)
 800772e:	781b      	ldrb	r3, [r3, #0]
 8007730:	4619      	mov	r1, r3
 8007732:	6878      	ldr	r0, [r7, #4]
 8007734:	f7ff fa1d 	bl	8006b72 <USBD_SetClassConfig>
 8007738:	4603      	mov	r3, r0
 800773a:	2b02      	cmp	r3, #2
 800773c:	d104      	bne.n	8007748 <USBD_SetConfig+0xec>
 800773e:	6839      	ldr	r1, [r7, #0]
 8007740:	6878      	ldr	r0, [r7, #4]
 8007742:	f000 f8f2 	bl	800792a <USBD_CtlError>
 8007746:	e012      	b.n	800776e <USBD_SetConfig+0x112>
 8007748:	6878      	ldr	r0, [r7, #4]
 800774a:	f000 f9b6 	bl	8007aba <USBD_CtlSendStatus>
 800774e:	e00e      	b.n	800776e <USBD_SetConfig+0x112>
 8007750:	6878      	ldr	r0, [r7, #4]
 8007752:	f000 f9b2 	bl	8007aba <USBD_CtlSendStatus>
 8007756:	e00a      	b.n	800776e <USBD_SetConfig+0x112>
 8007758:	6839      	ldr	r1, [r7, #0]
 800775a:	6878      	ldr	r0, [r7, #4]
 800775c:	f000 f8e5 	bl	800792a <USBD_CtlError>
 8007760:	4b04      	ldr	r3, [pc, #16]	; (8007774 <USBD_SetConfig+0x118>)
 8007762:	781b      	ldrb	r3, [r3, #0]
 8007764:	4619      	mov	r1, r3
 8007766:	6878      	ldr	r0, [r7, #4]
 8007768:	f7ff fa22 	bl	8006bb0 <USBD_ClrClassConfig>
 800776c:	bf00      	nop
 800776e:	3708      	adds	r7, #8
 8007770:	46bd      	mov	sp, r7
 8007772:	bd80      	pop	{r7, pc}
 8007774:	20000af8 	.word	0x20000af8

08007778 <USBD_GetConfig>:
 8007778:	b580      	push	{r7, lr}
 800777a:	b082      	sub	sp, #8
 800777c:	af00      	add	r7, sp, #0
 800777e:	6078      	str	r0, [r7, #4]
 8007780:	6039      	str	r1, [r7, #0]
 8007782:	683b      	ldr	r3, [r7, #0]
 8007784:	88db      	ldrh	r3, [r3, #6]
 8007786:	2b01      	cmp	r3, #1
 8007788:	d004      	beq.n	8007794 <USBD_GetConfig+0x1c>
 800778a:	6839      	ldr	r1, [r7, #0]
 800778c:	6878      	ldr	r0, [r7, #4]
 800778e:	f000 f8cc 	bl	800792a <USBD_CtlError>
 8007792:	e022      	b.n	80077da <USBD_GetConfig+0x62>
 8007794:	687b      	ldr	r3, [r7, #4]
 8007796:	f893 3274 	ldrb.w	r3, [r3, #628]	; 0x274
 800779a:	2b02      	cmp	r3, #2
 800779c:	dc02      	bgt.n	80077a4 <USBD_GetConfig+0x2c>
 800779e:	2b00      	cmp	r3, #0
 80077a0:	dc03      	bgt.n	80077aa <USBD_GetConfig+0x32>
 80077a2:	e015      	b.n	80077d0 <USBD_GetConfig+0x58>
 80077a4:	2b03      	cmp	r3, #3
 80077a6:	d00b      	beq.n	80077c0 <USBD_GetConfig+0x48>
 80077a8:	e012      	b.n	80077d0 <USBD_GetConfig+0x58>
 80077aa:	687b      	ldr	r3, [r7, #4]
 80077ac:	2200      	movs	r2, #0
 80077ae:	609a      	str	r2, [r3, #8]
 80077b0:	687b      	ldr	r3, [r7, #4]
 80077b2:	3308      	adds	r3, #8
 80077b4:	2201      	movs	r2, #1
 80077b6:	4619      	mov	r1, r3
 80077b8:	6878      	ldr	r0, [r7, #4]
 80077ba:	f000 f920 	bl	80079fe <USBD_CtlSendData>
 80077be:	e00c      	b.n	80077da <USBD_GetConfig+0x62>
 80077c0:	687b      	ldr	r3, [r7, #4]
 80077c2:	3304      	adds	r3, #4
 80077c4:	2201      	movs	r2, #1
 80077c6:	4619      	mov	r1, r3
 80077c8:	6878      	ldr	r0, [r7, #4]
 80077ca:	f000 f918 	bl	80079fe <USBD_CtlSendData>
 80077ce:	e004      	b.n	80077da <USBD_GetConfig+0x62>
 80077d0:	6839      	ldr	r1, [r7, #0]
 80077d2:	6878      	ldr	r0, [r7, #4]
 80077d4:	f000 f8a9 	bl	800792a <USBD_CtlError>
 80077d8:	bf00      	nop
 80077da:	bf00      	nop
 80077dc:	3708      	adds	r7, #8
 80077de:	46bd      	mov	sp, r7
 80077e0:	bd80      	pop	{r7, pc}

080077e2 <USBD_GetStatus>:
 80077e2:	b580      	push	{r7, lr}
 80077e4:	b082      	sub	sp, #8
 80077e6:	af00      	add	r7, sp, #0
 80077e8:	6078      	str	r0, [r7, #4]
 80077ea:	6039      	str	r1, [r7, #0]
 80077ec:	687b      	ldr	r3, [r7, #4]
 80077ee:	f893 3274 	ldrb.w	r3, [r3, #628]	; 0x274
 80077f2:	3b01      	subs	r3, #1
 80077f4:	2b02      	cmp	r3, #2
 80077f6:	d81e      	bhi.n	8007836 <USBD_GetStatus+0x54>
 80077f8:	683b      	ldr	r3, [r7, #0]
 80077fa:	88db      	ldrh	r3, [r3, #6]
 80077fc:	2b02      	cmp	r3, #2
 80077fe:	d004      	beq.n	800780a <USBD_GetStatus+0x28>
 8007800:	6839      	ldr	r1, [r7, #0]
 8007802:	6878      	ldr	r0, [r7, #4]
 8007804:	f000 f891 	bl	800792a <USBD_CtlError>
 8007808:	e01a      	b.n	8007840 <USBD_GetStatus+0x5e>
 800780a:	687b      	ldr	r3, [r7, #4]
 800780c:	2201      	movs	r2, #1
 800780e:	60da      	str	r2, [r3, #12]
 8007810:	687b      	ldr	r3, [r7, #4]
 8007812:	f8d3 327c 	ldr.w	r3, [r3, #636]	; 0x27c
 8007816:	2b00      	cmp	r3, #0
 8007818:	d005      	beq.n	8007826 <USBD_GetStatus+0x44>
 800781a:	687b      	ldr	r3, [r7, #4]
 800781c:	68db      	ldr	r3, [r3, #12]
 800781e:	f043 0202 	orr.w	r2, r3, #2
 8007822:	687b      	ldr	r3, [r7, #4]
 8007824:	60da      	str	r2, [r3, #12]
 8007826:	687b      	ldr	r3, [r7, #4]
 8007828:	330c      	adds	r3, #12
 800782a:	2202      	movs	r2, #2
 800782c:	4619      	mov	r1, r3
 800782e:	6878      	ldr	r0, [r7, #4]
 8007830:	f000 f8e5 	bl	80079fe <USBD_CtlSendData>
 8007834:	e004      	b.n	8007840 <USBD_GetStatus+0x5e>
 8007836:	6839      	ldr	r1, [r7, #0]
 8007838:	6878      	ldr	r0, [r7, #4]
 800783a:	f000 f876 	bl	800792a <USBD_CtlError>
 800783e:	bf00      	nop
 8007840:	bf00      	nop
 8007842:	3708      	adds	r7, #8
 8007844:	46bd      	mov	sp, r7
 8007846:	bd80      	pop	{r7, pc}

08007848 <USBD_SetFeature>:
 8007848:	b580      	push	{r7, lr}
 800784a:	b082      	sub	sp, #8
 800784c:	af00      	add	r7, sp, #0
 800784e:	6078      	str	r0, [r7, #4]
 8007850:	6039      	str	r1, [r7, #0]
 8007852:	683b      	ldr	r3, [r7, #0]
 8007854:	885b      	ldrh	r3, [r3, #2]
 8007856:	2b01      	cmp	r3, #1
 8007858:	d106      	bne.n	8007868 <USBD_SetFeature+0x20>
 800785a:	687b      	ldr	r3, [r7, #4]
 800785c:	2201      	movs	r2, #1
 800785e:	f8c3 227c 	str.w	r2, [r3, #636]	; 0x27c
 8007862:	6878      	ldr	r0, [r7, #4]
 8007864:	f000 f929 	bl	8007aba <USBD_CtlSendStatus>
 8007868:	bf00      	nop
 800786a:	3708      	adds	r7, #8
 800786c:	46bd      	mov	sp, r7
 800786e:	bd80      	pop	{r7, pc}

08007870 <USBD_ClrFeature>:
 8007870:	b580      	push	{r7, lr}
 8007872:	b082      	sub	sp, #8
 8007874:	af00      	add	r7, sp, #0
 8007876:	6078      	str	r0, [r7, #4]
 8007878:	6039      	str	r1, [r7, #0]
 800787a:	687b      	ldr	r3, [r7, #4]
 800787c:	f893 3274 	ldrb.w	r3, [r3, #628]	; 0x274
 8007880:	3b01      	subs	r3, #1
 8007882:	2b02      	cmp	r3, #2
 8007884:	d80b      	bhi.n	800789e <USBD_ClrFeature+0x2e>
 8007886:	683b      	ldr	r3, [r7, #0]
 8007888:	885b      	ldrh	r3, [r3, #2]
 800788a:	2b01      	cmp	r3, #1
 800788c:	d10c      	bne.n	80078a8 <USBD_ClrFeature+0x38>
 800788e:	687b      	ldr	r3, [r7, #4]
 8007890:	2200      	movs	r2, #0
 8007892:	f8c3 227c 	str.w	r2, [r3, #636]	; 0x27c
 8007896:	6878      	ldr	r0, [r7, #4]
 8007898:	f000 f90f 	bl	8007aba <USBD_CtlSendStatus>
 800789c:	e004      	b.n	80078a8 <USBD_ClrFeature+0x38>
 800789e:	6839      	ldr	r1, [r7, #0]
 80078a0:	6878      	ldr	r0, [r7, #4]
 80078a2:	f000 f842 	bl	800792a <USBD_CtlError>
 80078a6:	e000      	b.n	80078aa <USBD_ClrFeature+0x3a>
 80078a8:	bf00      	nop
 80078aa:	bf00      	nop
 80078ac:	3708      	adds	r7, #8
 80078ae:	46bd      	mov	sp, r7
 80078b0:	bd80      	pop	{r7, pc}

080078b2 <USBD_ParseSetupRequest>:
 80078b2:	b480      	push	{r7}
 80078b4:	b083      	sub	sp, #12
 80078b6:	af00      	add	r7, sp, #0
 80078b8:	6078      	str	r0, [r7, #4]
 80078ba:	6039      	str	r1, [r7, #0]
 80078bc:	683b      	ldr	r3, [r7, #0]
 80078be:	781a      	ldrb	r2, [r3, #0]
 80078c0:	687b      	ldr	r3, [r7, #4]
 80078c2:	701a      	strb	r2, [r3, #0]
 80078c4:	683b      	ldr	r3, [r7, #0]
 80078c6:	785a      	ldrb	r2, [r3, #1]
 80078c8:	687b      	ldr	r3, [r7, #4]
 80078ca:	705a      	strb	r2, [r3, #1]
 80078cc:	683b      	ldr	r3, [r7, #0]
 80078ce:	3302      	adds	r3, #2
 80078d0:	781b      	ldrb	r3, [r3, #0]
 80078d2:	b29a      	uxth	r2, r3
 80078d4:	683b      	ldr	r3, [r7, #0]
 80078d6:	3303      	adds	r3, #3
 80078d8:	781b      	ldrb	r3, [r3, #0]
 80078da:	b29b      	uxth	r3, r3
 80078dc:	021b      	lsls	r3, r3, #8
 80078de:	b29b      	uxth	r3, r3
 80078e0:	4413      	add	r3, r2
 80078e2:	b29a      	uxth	r2, r3
 80078e4:	687b      	ldr	r3, [r7, #4]
 80078e6:	805a      	strh	r2, [r3, #2]
 80078e8:	683b      	ldr	r3, [r7, #0]
 80078ea:	3304      	adds	r3, #4
 80078ec:	781b      	ldrb	r3, [r3, #0]
 80078ee:	b29a      	uxth	r2, r3
 80078f0:	683b      	ldr	r3, [r7, #0]
 80078f2:	3305      	adds	r3, #5
 80078f4:	781b      	ldrb	r3, [r3, #0]
 80078f6:	b29b      	uxth	r3, r3
 80078f8:	021b      	lsls	r3, r3, #8
 80078fa:	b29b      	uxth	r3, r3
 80078fc:	4413      	add	r3, r2
 80078fe:	b29a      	uxth	r2, r3
 8007900:	687b      	ldr	r3, [r7, #4]
 8007902:	809a      	strh	r2, [r3, #4]
 8007904:	683b      	ldr	r3, [r7, #0]
 8007906:	3306      	adds	r3, #6
 8007908:	781b      	ldrb	r3, [r3, #0]
 800790a:	b29a      	uxth	r2, r3
 800790c:	683b      	ldr	r3, [r7, #0]
 800790e:	3307      	adds	r3, #7
 8007910:	781b      	ldrb	r3, [r3, #0]
 8007912:	b29b      	uxth	r3, r3
 8007914:	021b      	lsls	r3, r3, #8
 8007916:	b29b      	uxth	r3, r3
 8007918:	4413      	add	r3, r2
 800791a:	b29a      	uxth	r2, r3
 800791c:	687b      	ldr	r3, [r7, #4]
 800791e:	80da      	strh	r2, [r3, #6]
 8007920:	bf00      	nop
 8007922:	370c      	adds	r7, #12
 8007924:	46bd      	mov	sp, r7
 8007926:	bc80      	pop	{r7}
 8007928:	4770      	bx	lr

0800792a <USBD_CtlError>:
 800792a:	b580      	push	{r7, lr}
 800792c:	b082      	sub	sp, #8
 800792e:	af00      	add	r7, sp, #0
 8007930:	6078      	str	r0, [r7, #4]
 8007932:	6039      	str	r1, [r7, #0]
 8007934:	2180      	movs	r1, #128	; 0x80
 8007936:	6878      	ldr	r0, [r7, #4]
 8007938:	f000 fc88 	bl	800824c <USBD_LL_StallEP>
 800793c:	2100      	movs	r1, #0
 800793e:	6878      	ldr	r0, [r7, #4]
 8007940:	f000 fc84 	bl	800824c <USBD_LL_StallEP>
 8007944:	bf00      	nop
 8007946:	3708      	adds	r7, #8
 8007948:	46bd      	mov	sp, r7
 800794a:	bd80      	pop	{r7, pc}

0800794c <USBD_GetString>:
 800794c:	b580      	push	{r7, lr}
 800794e:	b086      	sub	sp, #24
 8007950:	af00      	add	r7, sp, #0
 8007952:	60f8      	str	r0, [r7, #12]
 8007954:	60b9      	str	r1, [r7, #8]
 8007956:	607a      	str	r2, [r7, #4]
 8007958:	2300      	movs	r3, #0
 800795a:	75fb      	strb	r3, [r7, #23]
 800795c:	68fb      	ldr	r3, [r7, #12]
 800795e:	2b00      	cmp	r3, #0
 8007960:	d032      	beq.n	80079c8 <USBD_GetString+0x7c>
 8007962:	68f8      	ldr	r0, [r7, #12]
 8007964:	f000 f834 	bl	80079d0 <USBD_GetLen>
 8007968:	4603      	mov	r3, r0
 800796a:	3301      	adds	r3, #1
 800796c:	b29b      	uxth	r3, r3
 800796e:	005b      	lsls	r3, r3, #1
 8007970:	b29a      	uxth	r2, r3
 8007972:	687b      	ldr	r3, [r7, #4]
 8007974:	801a      	strh	r2, [r3, #0]
 8007976:	7dfb      	ldrb	r3, [r7, #23]
 8007978:	1c5a      	adds	r2, r3, #1
 800797a:	75fa      	strb	r2, [r7, #23]
 800797c:	461a      	mov	r2, r3
 800797e:	68bb      	ldr	r3, [r7, #8]
 8007980:	4413      	add	r3, r2
 8007982:	687a      	ldr	r2, [r7, #4]
 8007984:	7812      	ldrb	r2, [r2, #0]
 8007986:	701a      	strb	r2, [r3, #0]
 8007988:	7dfb      	ldrb	r3, [r7, #23]
 800798a:	1c5a      	adds	r2, r3, #1
 800798c:	75fa      	strb	r2, [r7, #23]
 800798e:	461a      	mov	r2, r3
 8007990:	68bb      	ldr	r3, [r7, #8]
 8007992:	4413      	add	r3, r2
 8007994:	2203      	movs	r2, #3
 8007996:	701a      	strb	r2, [r3, #0]
 8007998:	e012      	b.n	80079c0 <USBD_GetString+0x74>
 800799a:	68fb      	ldr	r3, [r7, #12]
 800799c:	1c5a      	adds	r2, r3, #1
 800799e:	60fa      	str	r2, [r7, #12]
 80079a0:	7dfa      	ldrb	r2, [r7, #23]
 80079a2:	1c51      	adds	r1, r2, #1
 80079a4:	75f9      	strb	r1, [r7, #23]
 80079a6:	4611      	mov	r1, r2
 80079a8:	68ba      	ldr	r2, [r7, #8]
 80079aa:	440a      	add	r2, r1
 80079ac:	781b      	ldrb	r3, [r3, #0]
 80079ae:	7013      	strb	r3, [r2, #0]
 80079b0:	7dfb      	ldrb	r3, [r7, #23]
 80079b2:	1c5a      	adds	r2, r3, #1
 80079b4:	75fa      	strb	r2, [r7, #23]
 80079b6:	461a      	mov	r2, r3
 80079b8:	68bb      	ldr	r3, [r7, #8]
 80079ba:	4413      	add	r3, r2
 80079bc:	2200      	movs	r2, #0
 80079be:	701a      	strb	r2, [r3, #0]
 80079c0:	68fb      	ldr	r3, [r7, #12]
 80079c2:	781b      	ldrb	r3, [r3, #0]
 80079c4:	2b00      	cmp	r3, #0
 80079c6:	d1e8      	bne.n	800799a <USBD_GetString+0x4e>
 80079c8:	bf00      	nop
 80079ca:	3718      	adds	r7, #24
 80079cc:	46bd      	mov	sp, r7
 80079ce:	bd80      	pop	{r7, pc}

080079d0 <USBD_GetLen>:
 80079d0:	b480      	push	{r7}
 80079d2:	b085      	sub	sp, #20
 80079d4:	af00      	add	r7, sp, #0
 80079d6:	6078      	str	r0, [r7, #4]
 80079d8:	2300      	movs	r3, #0
 80079da:	73fb      	strb	r3, [r7, #15]
 80079dc:	e005      	b.n	80079ea <USBD_GetLen+0x1a>
 80079de:	7bfb      	ldrb	r3, [r7, #15]
 80079e0:	3301      	adds	r3, #1
 80079e2:	73fb      	strb	r3, [r7, #15]
 80079e4:	687b      	ldr	r3, [r7, #4]
 80079e6:	3301      	adds	r3, #1
 80079e8:	607b      	str	r3, [r7, #4]
 80079ea:	687b      	ldr	r3, [r7, #4]
 80079ec:	781b      	ldrb	r3, [r3, #0]
 80079ee:	2b00      	cmp	r3, #0
 80079f0:	d1f5      	bne.n	80079de <USBD_GetLen+0xe>
 80079f2:	7bfb      	ldrb	r3, [r7, #15]
 80079f4:	4618      	mov	r0, r3
 80079f6:	3714      	adds	r7, #20
 80079f8:	46bd      	mov	sp, r7
 80079fa:	bc80      	pop	{r7}
 80079fc:	4770      	bx	lr

080079fe <USBD_CtlSendData>:
 80079fe:	b580      	push	{r7, lr}
 8007a00:	b084      	sub	sp, #16
 8007a02:	af00      	add	r7, sp, #0
 8007a04:	60f8      	str	r0, [r7, #12]
 8007a06:	60b9      	str	r1, [r7, #8]
 8007a08:	4613      	mov	r3, r2
 8007a0a:	80fb      	strh	r3, [r7, #6]
 8007a0c:	68fb      	ldr	r3, [r7, #12]
 8007a0e:	2202      	movs	r2, #2
 8007a10:	f8c3 226c 	str.w	r2, [r3, #620]	; 0x26c
 8007a14:	88fa      	ldrh	r2, [r7, #6]
 8007a16:	68fb      	ldr	r3, [r7, #12]
 8007a18:	61da      	str	r2, [r3, #28]
 8007a1a:	88fa      	ldrh	r2, [r7, #6]
 8007a1c:	68fb      	ldr	r3, [r7, #12]
 8007a1e:	621a      	str	r2, [r3, #32]
 8007a20:	88fb      	ldrh	r3, [r7, #6]
 8007a22:	68ba      	ldr	r2, [r7, #8]
 8007a24:	2100      	movs	r1, #0
 8007a26:	68f8      	ldr	r0, [r7, #12]
 8007a28:	f000 fc92 	bl	8008350 <USBD_LL_Transmit>
 8007a2c:	2300      	movs	r3, #0
 8007a2e:	4618      	mov	r0, r3
 8007a30:	3710      	adds	r7, #16
 8007a32:	46bd      	mov	sp, r7
 8007a34:	bd80      	pop	{r7, pc}

08007a36 <USBD_CtlContinueSendData>:
 8007a36:	b580      	push	{r7, lr}
 8007a38:	b084      	sub	sp, #16
 8007a3a:	af00      	add	r7, sp, #0
 8007a3c:	60f8      	str	r0, [r7, #12]
 8007a3e:	60b9      	str	r1, [r7, #8]
 8007a40:	4613      	mov	r3, r2
 8007a42:	80fb      	strh	r3, [r7, #6]
 8007a44:	88fb      	ldrh	r3, [r7, #6]
 8007a46:	68ba      	ldr	r2, [r7, #8]
 8007a48:	2100      	movs	r1, #0
 8007a4a:	68f8      	ldr	r0, [r7, #12]
 8007a4c:	f000 fc80 	bl	8008350 <USBD_LL_Transmit>
 8007a50:	2300      	movs	r3, #0
 8007a52:	4618      	mov	r0, r3
 8007a54:	3710      	adds	r7, #16
 8007a56:	46bd      	mov	sp, r7
 8007a58:	bd80      	pop	{r7, pc}

08007a5a <USBD_CtlPrepareRx>:
 8007a5a:	b580      	push	{r7, lr}
 8007a5c:	b084      	sub	sp, #16
 8007a5e:	af00      	add	r7, sp, #0
 8007a60:	60f8      	str	r0, [r7, #12]
 8007a62:	60b9      	str	r1, [r7, #8]
 8007a64:	4613      	mov	r3, r2
 8007a66:	80fb      	strh	r3, [r7, #6]
 8007a68:	68fb      	ldr	r3, [r7, #12]
 8007a6a:	2203      	movs	r2, #3
 8007a6c:	f8c3 226c 	str.w	r2, [r3, #620]	; 0x26c
 8007a70:	88fa      	ldrh	r2, [r7, #6]
 8007a72:	68fb      	ldr	r3, [r7, #12]
 8007a74:	f8c3 2148 	str.w	r2, [r3, #328]	; 0x148
 8007a78:	88fa      	ldrh	r2, [r7, #6]
 8007a7a:	68fb      	ldr	r3, [r7, #12]
 8007a7c:	f8c3 214c 	str.w	r2, [r3, #332]	; 0x14c
 8007a80:	88fb      	ldrh	r3, [r7, #6]
 8007a82:	68ba      	ldr	r2, [r7, #8]
 8007a84:	2100      	movs	r1, #0
 8007a86:	68f8      	ldr	r0, [r7, #12]
 8007a88:	f000 fc85 	bl	8008396 <USBD_LL_PrepareReceive>
 8007a8c:	2300      	movs	r3, #0
 8007a8e:	4618      	mov	r0, r3
 8007a90:	3710      	adds	r7, #16
 8007a92:	46bd      	mov	sp, r7
 8007a94:	bd80      	pop	{r7, pc}

08007a96 <USBD_CtlContinueRx>:
 8007a96:	b580      	push	{r7, lr}
 8007a98:	b084      	sub	sp, #16
 8007a9a:	af00      	add	r7, sp, #0
 8007a9c:	60f8      	str	r0, [r7, #12]
 8007a9e:	60b9      	str	r1, [r7, #8]
 8007aa0:	4613      	mov	r3, r2
 8007aa2:	80fb      	strh	r3, [r7, #6]
 8007aa4:	88fb      	ldrh	r3, [r7, #6]
 8007aa6:	68ba      	ldr	r2, [r7, #8]
 8007aa8:	2100      	movs	r1, #0
 8007aaa:	68f8      	ldr	r0, [r7, #12]
 8007aac:	f000 fc73 	bl	8008396 <USBD_LL_PrepareReceive>
 8007ab0:	2300      	movs	r3, #0
 8007ab2:	4618      	mov	r0, r3
 8007ab4:	3710      	adds	r7, #16
 8007ab6:	46bd      	mov	sp, r7
 8007ab8:	bd80      	pop	{r7, pc}

08007aba <USBD_CtlSendStatus>:
 8007aba:	b580      	push	{r7, lr}
 8007abc:	b082      	sub	sp, #8
 8007abe:	af00      	add	r7, sp, #0
 8007ac0:	6078      	str	r0, [r7, #4]
 8007ac2:	687b      	ldr	r3, [r7, #4]
 8007ac4:	2204      	movs	r2, #4
 8007ac6:	f8c3 226c 	str.w	r2, [r3, #620]	; 0x26c
 8007aca:	2300      	movs	r3, #0
 8007acc:	2200      	movs	r2, #0
 8007ace:	2100      	movs	r1, #0
 8007ad0:	6878      	ldr	r0, [r7, #4]
 8007ad2:	f000 fc3d 	bl	8008350 <USBD_LL_Transmit>
 8007ad6:	2300      	movs	r3, #0
 8007ad8:	4618      	mov	r0, r3
 8007ada:	3708      	adds	r7, #8
 8007adc:	46bd      	mov	sp, r7
 8007ade:	bd80      	pop	{r7, pc}

08007ae0 <USBD_CtlReceiveStatus>:
 8007ae0:	b580      	push	{r7, lr}
 8007ae2:	b082      	sub	sp, #8
 8007ae4:	af00      	add	r7, sp, #0
 8007ae6:	6078      	str	r0, [r7, #4]
 8007ae8:	687b      	ldr	r3, [r7, #4]
 8007aea:	2205      	movs	r2, #5
 8007aec:	f8c3 226c 	str.w	r2, [r3, #620]	; 0x26c
 8007af0:	2300      	movs	r3, #0
 8007af2:	2200      	movs	r2, #0
 8007af4:	2100      	movs	r1, #0
 8007af6:	6878      	ldr	r0, [r7, #4]
 8007af8:	f000 fc4d 	bl	8008396 <USBD_LL_PrepareReceive>
 8007afc:	2300      	movs	r3, #0
 8007afe:	4618      	mov	r0, r3
 8007b00:	3708      	adds	r7, #8
 8007b02:	46bd      	mov	sp, r7
 8007b04:	bd80      	pop	{r7, pc}
	...

08007b08 <MX_USB_DEVICE_Init>:
 8007b08:	b580      	push	{r7, lr}
 8007b0a:	af00      	add	r7, sp, #0
 8007b0c:	2200      	movs	r2, #0
 8007b0e:	4912      	ldr	r1, [pc, #72]	; (8007b58 <MX_USB_DEVICE_Init+0x50>)
 8007b10:	4812      	ldr	r0, [pc, #72]	; (8007b5c <MX_USB_DEVICE_Init+0x54>)
 8007b12:	f7fe ffd4 	bl	8006abe <USBD_Init>
 8007b16:	4603      	mov	r3, r0
 8007b18:	2b00      	cmp	r3, #0
 8007b1a:	d001      	beq.n	8007b20 <MX_USB_DEVICE_Init+0x18>
 8007b1c:	f7f9 fc54 	bl	80013c8 <Error_Handler>
 8007b20:	490f      	ldr	r1, [pc, #60]	; (8007b60 <MX_USB_DEVICE_Init+0x58>)
 8007b22:	480e      	ldr	r0, [pc, #56]	; (8007b5c <MX_USB_DEVICE_Init+0x54>)
 8007b24:	f7fe fff6 	bl	8006b14 <USBD_RegisterClass>
 8007b28:	4603      	mov	r3, r0
 8007b2a:	2b00      	cmp	r3, #0
 8007b2c:	d001      	beq.n	8007b32 <MX_USB_DEVICE_Init+0x2a>
 8007b2e:	f7f9 fc4b 	bl	80013c8 <Error_Handler>
 8007b32:	490c      	ldr	r1, [pc, #48]	; (8007b64 <MX_USB_DEVICE_Init+0x5c>)
 8007b34:	4809      	ldr	r0, [pc, #36]	; (8007b5c <MX_USB_DEVICE_Init+0x54>)
 8007b36:	f7fe ff27 	bl	8006988 <USBD_CDC_RegisterInterface>
 8007b3a:	4603      	mov	r3, r0
 8007b3c:	2b00      	cmp	r3, #0
 8007b3e:	d001      	beq.n	8007b44 <MX_USB_DEVICE_Init+0x3c>
 8007b40:	f7f9 fc42 	bl	80013c8 <Error_Handler>
 8007b44:	4805      	ldr	r0, [pc, #20]	; (8007b5c <MX_USB_DEVICE_Init+0x54>)
 8007b46:	f7fe fffe 	bl	8006b46 <USBD_Start>
 8007b4a:	4603      	mov	r3, r0
 8007b4c:	2b00      	cmp	r3, #0
 8007b4e:	d001      	beq.n	8007b54 <MX_USB_DEVICE_Init+0x4c>
 8007b50:	f7f9 fc3a 	bl	80013c8 <Error_Handler>
 8007b54:	bf00      	nop
 8007b56:	bd80      	pop	{r7, pc}
 8007b58:	20000130 	.word	0x20000130
 8007b5c:	20000afc 	.word	0x20000afc
 8007b60:	2000001c 	.word	0x2000001c
 8007b64:	20000120 	.word	0x20000120

08007b68 <CDC_Init_FS>:
 8007b68:	b580      	push	{r7, lr}
 8007b6a:	af00      	add	r7, sp, #0
 8007b6c:	2200      	movs	r2, #0
 8007b6e:	4905      	ldr	r1, [pc, #20]	; (8007b84 <CDC_Init_FS+0x1c>)
 8007b70:	4805      	ldr	r0, [pc, #20]	; (8007b88 <CDC_Init_FS+0x20>)
 8007b72:	f7fe ff1f 	bl	80069b4 <USBD_CDC_SetTxBuffer>
 8007b76:	4905      	ldr	r1, [pc, #20]	; (8007b8c <CDC_Init_FS+0x24>)
 8007b78:	4803      	ldr	r0, [pc, #12]	; (8007b88 <CDC_Init_FS+0x20>)
 8007b7a:	f7fe ff34 	bl	80069e6 <USBD_CDC_SetRxBuffer>
 8007b7e:	2300      	movs	r3, #0
 8007b80:	4618      	mov	r0, r3
 8007b82:	bd80      	pop	{r7, pc}
 8007b84:	20001180 	.word	0x20001180
 8007b88:	20000afc 	.word	0x20000afc
 8007b8c:	20000d98 	.word	0x20000d98

08007b90 <CDC_DeInit_FS>:
 8007b90:	b480      	push	{r7}
 8007b92:	af00      	add	r7, sp, #0
 8007b94:	2300      	movs	r3, #0
 8007b96:	4618      	mov	r0, r3
 8007b98:	46bd      	mov	sp, r7
 8007b9a:	bc80      	pop	{r7}
 8007b9c:	4770      	bx	lr
	...

08007ba0 <CDC_Control_FS>:
 8007ba0:	b480      	push	{r7}
 8007ba2:	b083      	sub	sp, #12
 8007ba4:	af00      	add	r7, sp, #0
 8007ba6:	4603      	mov	r3, r0
 8007ba8:	6039      	str	r1, [r7, #0]
 8007baa:	71fb      	strb	r3, [r7, #7]
 8007bac:	4613      	mov	r3, r2
 8007bae:	80bb      	strh	r3, [r7, #4]
 8007bb0:	79fb      	ldrb	r3, [r7, #7]
 8007bb2:	2b23      	cmp	r3, #35	; 0x23
 8007bb4:	d84a      	bhi.n	8007c4c <CDC_Control_FS+0xac>
 8007bb6:	a201      	add	r2, pc, #4	; (adr r2, 8007bbc <CDC_Control_FS+0x1c>)
 8007bb8:	f852 f023 	ldr.w	pc, [r2, r3, lsl #2]
 8007bbc:	08007c4d 	.word	0x08007c4d
 8007bc0:	08007c4d 	.word	0x08007c4d
 8007bc4:	08007c4d 	.word	0x08007c4d
 8007bc8:	08007c4d 	.word	0x08007c4d
 8007bcc:	08007c4d 	.word	0x08007c4d
 8007bd0:	08007c4d 	.word	0x08007c4d
 8007bd4:	08007c4d 	.word	0x08007c4d
 8007bd8:	08007c4d 	.word	0x08007c4d
 8007bdc:	08007c4d 	.word	0x08007c4d
 8007be0:	08007c4d 	.word	0x08007c4d
 8007be4:	08007c4d 	.word	0x08007c4d
 8007be8:	08007c4d 	.word	0x08007c4d
 8007bec:	08007c4d 	.word	0x08007c4d
 8007bf0:	08007c4d 	.word	0x08007c4d
 8007bf4:	08007c4d 	.word	0x08007c4d
 8007bf8:	08007c4d 	.word	0x08007c4d
 8007bfc:	08007c4d 	.word	0x08007c4d
 8007c00:	08007c4d 	.word	0x08007c4d
 8007c04:	08007c4d 	.word	0x08007c4d
 8007c08:	08007c4d 	.word	0x08007c4d
 8007c0c:	08007c4d 	.word	0x08007c4d
 8007c10:	08007c4d 	.word	0x08007c4d
 8007c14:	08007c4d 	.word	0x08007c4d
 8007c18:	08007c4d 	.word	0x08007c4d
 8007c1c:	08007c4d 	.word	0x08007c4d
 8007c20:	08007c4d 	.word	0x08007c4d
 8007c24:	08007c4d 	.word	0x08007c4d
 8007c28:	08007c4d 	.word	0x08007c4d
 8007c2c:	08007c4d 	.word	0x08007c4d
 8007c30:	08007c4d 	.word	0x08007c4d
 8007c34:	08007c4d 	.word	0x08007c4d
 8007c38:	08007c4d 	.word	0x08007c4d
 8007c3c:	08007c4d 	.word	0x08007c4d
 8007c40:	08007c4d 	.word	0x08007c4d
 8007c44:	08007c4d 	.word	0x08007c4d
 8007c48:	08007c4d 	.word	0x08007c4d
 8007c4c:	bf00      	nop
 8007c4e:	2300      	movs	r3, #0
 8007c50:	4618      	mov	r0, r3
 8007c52:	370c      	adds	r7, #12
 8007c54:	46bd      	mov	sp, r7
 8007c56:	bc80      	pop	{r7}
 8007c58:	4770      	bx	lr
 8007c5a:	bf00      	nop

08007c5c <CDC_Receive_FS>:
 8007c5c:	b580      	push	{r7, lr}
 8007c5e:	b082      	sub	sp, #8
 8007c60:	af00      	add	r7, sp, #0
 8007c62:	6078      	str	r0, [r7, #4]
 8007c64:	6039      	str	r1, [r7, #0]
 8007c66:	6879      	ldr	r1, [r7, #4]
 8007c68:	4810      	ldr	r0, [pc, #64]	; (8007cac <CDC_Receive_FS+0x50>)
 8007c6a:	f7fe febc 	bl	80069e6 <USBD_CDC_SetRxBuffer>
 8007c6e:	480f      	ldr	r0, [pc, #60]	; (8007cac <CDC_Receive_FS+0x50>)
 8007c70:	f7fe fefb 	bl	8006a6a <USBD_CDC_ReceivePacket>
 8007c74:	4b0e      	ldr	r3, [pc, #56]	; (8007cb0 <CDC_Receive_FS+0x54>)
 8007c76:	881b      	ldrh	r3, [r3, #0]
 8007c78:	461a      	mov	r2, r3
 8007c7a:	4b0e      	ldr	r3, [pc, #56]	; (8007cb4 <CDC_Receive_FS+0x58>)
 8007c7c:	18d0      	adds	r0, r2, r3
 8007c7e:	683b      	ldr	r3, [r7, #0]
 8007c80:	681b      	ldr	r3, [r3, #0]
 8007c82:	b2db      	uxtb	r3, r3
 8007c84:	461a      	mov	r2, r3
 8007c86:	6879      	ldr	r1, [r7, #4]
 8007c88:	f000 fc28 	bl	80084dc <memcpy>
 8007c8c:	683b      	ldr	r3, [r7, #0]
 8007c8e:	681b      	ldr	r3, [r3, #0]
 8007c90:	b29a      	uxth	r2, r3
 8007c92:	4b07      	ldr	r3, [pc, #28]	; (8007cb0 <CDC_Receive_FS+0x54>)
 8007c94:	881b      	ldrh	r3, [r3, #0]
 8007c96:	4413      	add	r3, r2
 8007c98:	b29a      	uxth	r2, r3
 8007c9a:	4b05      	ldr	r3, [pc, #20]	; (8007cb0 <CDC_Receive_FS+0x54>)
 8007c9c:	801a      	strh	r2, [r3, #0]
 8007c9e:	2300      	movs	r3, #0
 8007ca0:	607b      	str	r3, [r7, #4]
 8007ca2:	2300      	movs	r3, #0
 8007ca4:	4618      	mov	r0, r3
 8007ca6:	3708      	adds	r7, #8
 8007ca8:	46bd      	mov	sp, r7
 8007caa:	bd80      	pop	{r7, pc}
 8007cac:	20000afc 	.word	0x20000afc
 8007cb0:	200006b8 	.word	0x200006b8
 8007cb4:	200002b8 	.word	0x200002b8

08007cb8 <CDC_Transmit_FS>:
 8007cb8:	b580      	push	{r7, lr}
 8007cba:	b084      	sub	sp, #16
 8007cbc:	af00      	add	r7, sp, #0
 8007cbe:	6078      	str	r0, [r7, #4]
 8007cc0:	460b      	mov	r3, r1
 8007cc2:	807b      	strh	r3, [r7, #2]
 8007cc4:	2300      	movs	r3, #0
 8007cc6:	73fb      	strb	r3, [r7, #15]
 8007cc8:	4b0d      	ldr	r3, [pc, #52]	; (8007d00 <CDC_Transmit_FS+0x48>)
 8007cca:	f8d3 3290 	ldr.w	r3, [r3, #656]	; 0x290
 8007cce:	60bb      	str	r3, [r7, #8]
 8007cd0:	68bb      	ldr	r3, [r7, #8]
 8007cd2:	f8d3 3214 	ldr.w	r3, [r3, #532]	; 0x214
 8007cd6:	2b00      	cmp	r3, #0
 8007cd8:	d001      	beq.n	8007cde <CDC_Transmit_FS+0x26>
 8007cda:	2301      	movs	r3, #1
 8007cdc:	e00b      	b.n	8007cf6 <CDC_Transmit_FS+0x3e>
 8007cde:	887b      	ldrh	r3, [r7, #2]
 8007ce0:	461a      	mov	r2, r3
 8007ce2:	6879      	ldr	r1, [r7, #4]
 8007ce4:	4806      	ldr	r0, [pc, #24]	; (8007d00 <CDC_Transmit_FS+0x48>)
 8007ce6:	f7fe fe65 	bl	80069b4 <USBD_CDC_SetTxBuffer>
 8007cea:	4805      	ldr	r0, [pc, #20]	; (8007d00 <CDC_Transmit_FS+0x48>)
 8007cec:	f7fe fe8e 	bl	8006a0c <USBD_CDC_TransmitPacket>
 8007cf0:	4603      	mov	r3, r0
 8007cf2:	73fb      	strb	r3, [r7, #15]
 8007cf4:	7bfb      	ldrb	r3, [r7, #15]
 8007cf6:	4618      	mov	r0, r3
 8007cf8:	3710      	adds	r7, #16
 8007cfa:	46bd      	mov	sp, r7
 8007cfc:	bd80      	pop	{r7, pc}
 8007cfe:	bf00      	nop
 8007d00:	20000afc 	.word	0x20000afc

08007d04 <usb_printf>:
 8007d04:	b40f      	push	{r0, r1, r2, r3}
 8007d06:	b580      	push	{r7, lr}
 8007d08:	b082      	sub	sp, #8
 8007d0a:	af00      	add	r7, sp, #0
 8007d0c:	f107 0314 	add.w	r3, r7, #20
 8007d10:	603b      	str	r3, [r7, #0]
 8007d12:	683b      	ldr	r3, [r7, #0]
 8007d14:	693a      	ldr	r2, [r7, #16]
 8007d16:	f44f 717a 	mov.w	r1, #1000	; 0x3e8
 8007d1a:	4809      	ldr	r0, [pc, #36]	; (8007d40 <usb_printf+0x3c>)
 8007d1c:	f000 fc20 	bl	8008560 <vsniprintf>
 8007d20:	4603      	mov	r3, r0
 8007d22:	607b      	str	r3, [r7, #4]
 8007d24:	687b      	ldr	r3, [r7, #4]
 8007d26:	b29b      	uxth	r3, r3
 8007d28:	4619      	mov	r1, r3
 8007d2a:	4805      	ldr	r0, [pc, #20]	; (8007d40 <usb_printf+0x3c>)
 8007d2c:	f7ff ffc4 	bl	8007cb8 <CDC_Transmit_FS>
 8007d30:	bf00      	nop
 8007d32:	3708      	adds	r7, #8
 8007d34:	46bd      	mov	sp, r7
 8007d36:	e8bd 4080 	ldmia.w	sp!, {r7, lr}
 8007d3a:	b004      	add	sp, #16
 8007d3c:	4770      	bx	lr
 8007d3e:	bf00      	nop
 8007d40:	20001180 	.word	0x20001180

08007d44 <USBD_FS_DeviceDescriptor>:
 8007d44:	b480      	push	{r7}
 8007d46:	b083      	sub	sp, #12
 8007d48:	af00      	add	r7, sp, #0
 8007d4a:	4603      	mov	r3, r0
 8007d4c:	6039      	str	r1, [r7, #0]
 8007d4e:	71fb      	strb	r3, [r7, #7]
 8007d50:	683b      	ldr	r3, [r7, #0]
 8007d52:	2212      	movs	r2, #18
 8007d54:	801a      	strh	r2, [r3, #0]
 8007d56:	4b03      	ldr	r3, [pc, #12]	; (8007d64 <USBD_FS_DeviceDescriptor+0x20>)
 8007d58:	4618      	mov	r0, r3
 8007d5a:	370c      	adds	r7, #12
 8007d5c:	46bd      	mov	sp, r7
 8007d5e:	bc80      	pop	{r7}
 8007d60:	4770      	bx	lr
 8007d62:	bf00      	nop
 8007d64:	2000014c 	.word	0x2000014c

08007d68 <USBD_FS_LangIDStrDescriptor>:
 8007d68:	b480      	push	{r7}
 8007d6a:	b083      	sub	sp, #12
 8007d6c:	af00      	add	r7, sp, #0
 8007d6e:	4603      	mov	r3, r0
 8007d70:	6039      	str	r1, [r7, #0]
 8007d72:	71fb      	strb	r3, [r7, #7]
 8007d74:	683b      	ldr	r3, [r7, #0]
 8007d76:	2204      	movs	r2, #4
 8007d78:	801a      	strh	r2, [r3, #0]
 8007d7a:	4b03      	ldr	r3, [pc, #12]	; (8007d88 <USBD_FS_LangIDStrDescriptor+0x20>)
 8007d7c:	4618      	mov	r0, r3
 8007d7e:	370c      	adds	r7, #12
 8007d80:	46bd      	mov	sp, r7
 8007d82:	bc80      	pop	{r7}
 8007d84:	4770      	bx	lr
 8007d86:	bf00      	nop
 8007d88:	20000160 	.word	0x20000160

08007d8c <USBD_FS_ProductStrDescriptor>:
 8007d8c:	b580      	push	{r7, lr}
 8007d8e:	b082      	sub	sp, #8
 8007d90:	af00      	add	r7, sp, #0
 8007d92:	4603      	mov	r3, r0
 8007d94:	6039      	str	r1, [r7, #0]
 8007d96:	71fb      	strb	r3, [r7, #7]
 8007d98:	79fb      	ldrb	r3, [r7, #7]
 8007d9a:	2b00      	cmp	r3, #0
 8007d9c:	d105      	bne.n	8007daa <USBD_FS_ProductStrDescriptor+0x1e>
 8007d9e:	683a      	ldr	r2, [r7, #0]
 8007da0:	4907      	ldr	r1, [pc, #28]	; (8007dc0 <USBD_FS_ProductStrDescriptor+0x34>)
 8007da2:	4808      	ldr	r0, [pc, #32]	; (8007dc4 <USBD_FS_ProductStrDescriptor+0x38>)
 8007da4:	f7ff fdd2 	bl	800794c <USBD_GetString>
 8007da8:	e004      	b.n	8007db4 <USBD_FS_ProductStrDescriptor+0x28>
 8007daa:	683a      	ldr	r2, [r7, #0]
 8007dac:	4904      	ldr	r1, [pc, #16]	; (8007dc0 <USBD_FS_ProductStrDescriptor+0x34>)
 8007dae:	4805      	ldr	r0, [pc, #20]	; (8007dc4 <USBD_FS_ProductStrDescriptor+0x38>)
 8007db0:	f7ff fdcc 	bl	800794c <USBD_GetString>
 8007db4:	4b02      	ldr	r3, [pc, #8]	; (8007dc0 <USBD_FS_ProductStrDescriptor+0x34>)
 8007db6:	4618      	mov	r0, r3
 8007db8:	3708      	adds	r7, #8
 8007dba:	46bd      	mov	sp, r7
 8007dbc:	bd80      	pop	{r7, pc}
 8007dbe:	bf00      	nop
 8007dc0:	20001568 	.word	0x20001568
 8007dc4:	08008e64 	.word	0x08008e64

08007dc8 <USBD_FS_ManufacturerStrDescriptor>:
 8007dc8:	b580      	push	{r7, lr}
 8007dca:	b082      	sub	sp, #8
 8007dcc:	af00      	add	r7, sp, #0
 8007dce:	4603      	mov	r3, r0
 8007dd0:	6039      	str	r1, [r7, #0]
 8007dd2:	71fb      	strb	r3, [r7, #7]
 8007dd4:	683a      	ldr	r2, [r7, #0]
 8007dd6:	4904      	ldr	r1, [pc, #16]	; (8007de8 <USBD_FS_ManufacturerStrDescriptor+0x20>)
 8007dd8:	4804      	ldr	r0, [pc, #16]	; (8007dec <USBD_FS_ManufacturerStrDescriptor+0x24>)
 8007dda:	f7ff fdb7 	bl	800794c <USBD_GetString>
 8007dde:	4b02      	ldr	r3, [pc, #8]	; (8007de8 <USBD_FS_ManufacturerStrDescriptor+0x20>)
 8007de0:	4618      	mov	r0, r3
 8007de2:	3708      	adds	r7, #8
 8007de4:	46bd      	mov	sp, r7
 8007de6:	bd80      	pop	{r7, pc}
 8007de8:	20001568 	.word	0x20001568
 8007dec:	08008e7c 	.word	0x08008e7c

08007df0 <USBD_FS_SerialStrDescriptor>:
 8007df0:	b580      	push	{r7, lr}
 8007df2:	b082      	sub	sp, #8
 8007df4:	af00      	add	r7, sp, #0
 8007df6:	4603      	mov	r3, r0
 8007df8:	6039      	str	r1, [r7, #0]
 8007dfa:	71fb      	strb	r3, [r7, #7]
 8007dfc:	683b      	ldr	r3, [r7, #0]
 8007dfe:	221a      	movs	r2, #26
 8007e00:	801a      	strh	r2, [r3, #0]
 8007e02:	f000 f843 	bl	8007e8c <Get_SerialNum>
 8007e06:	4b02      	ldr	r3, [pc, #8]	; (8007e10 <USBD_FS_SerialStrDescriptor+0x20>)
 8007e08:	4618      	mov	r0, r3
 8007e0a:	3708      	adds	r7, #8
 8007e0c:	46bd      	mov	sp, r7
 8007e0e:	bd80      	pop	{r7, pc}
 8007e10:	20000164 	.word	0x20000164

08007e14 <USBD_FS_ConfigStrDescriptor>:
 8007e14:	b580      	push	{r7, lr}
 8007e16:	b082      	sub	sp, #8
 8007e18:	af00      	add	r7, sp, #0
 8007e1a:	4603      	mov	r3, r0
 8007e1c:	6039      	str	r1, [r7, #0]
 8007e1e:	71fb      	strb	r3, [r7, #7]
 8007e20:	79fb      	ldrb	r3, [r7, #7]
 8007e22:	2b00      	cmp	r3, #0
 8007e24:	d105      	bne.n	8007e32 <USBD_FS_ConfigStrDescriptor+0x1e>
 8007e26:	683a      	ldr	r2, [r7, #0]
 8007e28:	4907      	ldr	r1, [pc, #28]	; (8007e48 <USBD_FS_ConfigStrDescriptor+0x34>)
 8007e2a:	4808      	ldr	r0, [pc, #32]	; (8007e4c <USBD_FS_ConfigStrDescriptor+0x38>)
 8007e2c:	f7ff fd8e 	bl	800794c <USBD_GetString>
 8007e30:	e004      	b.n	8007e3c <USBD_FS_ConfigStrDescriptor+0x28>
 8007e32:	683a      	ldr	r2, [r7, #0]
 8007e34:	4904      	ldr	r1, [pc, #16]	; (8007e48 <USBD_FS_ConfigStrDescriptor+0x34>)
 8007e36:	4805      	ldr	r0, [pc, #20]	; (8007e4c <USBD_FS_ConfigStrDescriptor+0x38>)
 8007e38:	f7ff fd88 	bl	800794c <USBD_GetString>
 8007e3c:	4b02      	ldr	r3, [pc, #8]	; (8007e48 <USBD_FS_ConfigStrDescriptor+0x34>)
 8007e3e:	4618      	mov	r0, r3
 8007e40:	3708      	adds	r7, #8
 8007e42:	46bd      	mov	sp, r7
 8007e44:	bd80      	pop	{r7, pc}
 8007e46:	bf00      	nop
 8007e48:	20001568 	.word	0x20001568
 8007e4c:	08008e90 	.word	0x08008e90

08007e50 <USBD_FS_InterfaceStrDescriptor>:
 8007e50:	b580      	push	{r7, lr}
 8007e52:	b082      	sub	sp, #8
 8007e54:	af00      	add	r7, sp, #0
 8007e56:	4603      	mov	r3, r0
 8007e58:	6039      	str	r1, [r7, #0]
 8007e5a:	71fb      	strb	r3, [r7, #7]
 8007e5c:	79fb      	ldrb	r3, [r7, #7]
 8007e5e:	2b00      	cmp	r3, #0
 8007e60:	d105      	bne.n	8007e6e <USBD_FS_InterfaceStrDescriptor+0x1e>
 8007e62:	683a      	ldr	r2, [r7, #0]
 8007e64:	4907      	ldr	r1, [pc, #28]	; (8007e84 <USBD_FS_InterfaceStrDescriptor+0x34>)
 8007e66:	4808      	ldr	r0, [pc, #32]	; (8007e88 <USBD_FS_InterfaceStrDescriptor+0x38>)
 8007e68:	f7ff fd70 	bl	800794c <USBD_GetString>
 8007e6c:	e004      	b.n	8007e78 <USBD_FS_InterfaceStrDescriptor+0x28>
 8007e6e:	683a      	ldr	r2, [r7, #0]
 8007e70:	4904      	ldr	r1, [pc, #16]	; (8007e84 <USBD_FS_InterfaceStrDescriptor+0x34>)
 8007e72:	4805      	ldr	r0, [pc, #20]	; (8007e88 <USBD_FS_InterfaceStrDescriptor+0x38>)
 8007e74:	f7ff fd6a 	bl	800794c <USBD_GetString>
 8007e78:	4b02      	ldr	r3, [pc, #8]	; (8007e84 <USBD_FS_InterfaceStrDescriptor+0x34>)
 8007e7a:	4618      	mov	r0, r3
 8007e7c:	3708      	adds	r7, #8
 8007e7e:	46bd      	mov	sp, r7
 8007e80:	bd80      	pop	{r7, pc}
 8007e82:	bf00      	nop
 8007e84:	20001568 	.word	0x20001568
 8007e88:	08008e9c 	.word	0x08008e9c

08007e8c <Get_SerialNum>:
 8007e8c:	b580      	push	{r7, lr}
 8007e8e:	b084      	sub	sp, #16
 8007e90:	af00      	add	r7, sp, #0
 8007e92:	4b0f      	ldr	r3, [pc, #60]	; (8007ed0 <Get_SerialNum+0x44>)
 8007e94:	681b      	ldr	r3, [r3, #0]
 8007e96:	60fb      	str	r3, [r7, #12]
 8007e98:	4b0e      	ldr	r3, [pc, #56]	; (8007ed4 <Get_SerialNum+0x48>)
 8007e9a:	681b      	ldr	r3, [r3, #0]
 8007e9c:	60bb      	str	r3, [r7, #8]
 8007e9e:	4b0e      	ldr	r3, [pc, #56]	; (8007ed8 <Get_SerialNum+0x4c>)
 8007ea0:	681b      	ldr	r3, [r3, #0]
 8007ea2:	607b      	str	r3, [r7, #4]
 8007ea4:	68fa      	ldr	r2, [r7, #12]
 8007ea6:	687b      	ldr	r3, [r7, #4]
 8007ea8:	4413      	add	r3, r2
 8007eaa:	60fb      	str	r3, [r7, #12]
 8007eac:	68fb      	ldr	r3, [r7, #12]
 8007eae:	2b00      	cmp	r3, #0
 8007eb0:	d009      	beq.n	8007ec6 <Get_SerialNum+0x3a>
 8007eb2:	2208      	movs	r2, #8
 8007eb4:	4909      	ldr	r1, [pc, #36]	; (8007edc <Get_SerialNum+0x50>)
 8007eb6:	68f8      	ldr	r0, [r7, #12]
 8007eb8:	f000 f814 	bl	8007ee4 <IntToUnicode>
 8007ebc:	2204      	movs	r2, #4
 8007ebe:	4908      	ldr	r1, [pc, #32]	; (8007ee0 <Get_SerialNum+0x54>)
 8007ec0:	68b8      	ldr	r0, [r7, #8]
 8007ec2:	f000 f80f 	bl	8007ee4 <IntToUnicode>
 8007ec6:	bf00      	nop
 8007ec8:	3710      	adds	r7, #16
 8007eca:	46bd      	mov	sp, r7
 8007ecc:	bd80      	pop	{r7, pc}
 8007ece:	bf00      	nop
 8007ed0:	1ff800d0 	.word	0x1ff800d0
 8007ed4:	1ff800d4 	.word	0x1ff800d4
 8007ed8:	1ff800d8 	.word	0x1ff800d8
 8007edc:	20000166 	.word	0x20000166
 8007ee0:	20000176 	.word	0x20000176

08007ee4 <IntToUnicode>:
 8007ee4:	b480      	push	{r7}
 8007ee6:	b087      	sub	sp, #28
 8007ee8:	af00      	add	r7, sp, #0
 8007eea:	60f8      	str	r0, [r7, #12]
 8007eec:	60b9      	str	r1, [r7, #8]
 8007eee:	4613      	mov	r3, r2
 8007ef0:	71fb      	strb	r3, [r7, #7]
 8007ef2:	2300      	movs	r3, #0
 8007ef4:	75fb      	strb	r3, [r7, #23]
 8007ef6:	2300      	movs	r3, #0
 8007ef8:	75fb      	strb	r3, [r7, #23]
 8007efa:	e027      	b.n	8007f4c <IntToUnicode+0x68>
 8007efc:	68fb      	ldr	r3, [r7, #12]
 8007efe:	0f1b      	lsrs	r3, r3, #28
 8007f00:	2b09      	cmp	r3, #9
 8007f02:	d80b      	bhi.n	8007f1c <IntToUnicode+0x38>
 8007f04:	68fb      	ldr	r3, [r7, #12]
 8007f06:	0f1b      	lsrs	r3, r3, #28
 8007f08:	b2da      	uxtb	r2, r3
 8007f0a:	7dfb      	ldrb	r3, [r7, #23]
 8007f0c:	005b      	lsls	r3, r3, #1
 8007f0e:	4619      	mov	r1, r3
 8007f10:	68bb      	ldr	r3, [r7, #8]
 8007f12:	440b      	add	r3, r1
 8007f14:	3230      	adds	r2, #48	; 0x30
 8007f16:	b2d2      	uxtb	r2, r2
 8007f18:	701a      	strb	r2, [r3, #0]
 8007f1a:	e00a      	b.n	8007f32 <IntToUnicode+0x4e>
 8007f1c:	68fb      	ldr	r3, [r7, #12]
 8007f1e:	0f1b      	lsrs	r3, r3, #28
 8007f20:	b2da      	uxtb	r2, r3
 8007f22:	7dfb      	ldrb	r3, [r7, #23]
 8007f24:	005b      	lsls	r3, r3, #1
 8007f26:	4619      	mov	r1, r3
 8007f28:	68bb      	ldr	r3, [r7, #8]
 8007f2a:	440b      	add	r3, r1
 8007f2c:	3237      	adds	r2, #55	; 0x37
 8007f2e:	b2d2      	uxtb	r2, r2
 8007f30:	701a      	strb	r2, [r3, #0]
 8007f32:	68fb      	ldr	r3, [r7, #12]
 8007f34:	011b      	lsls	r3, r3, #4
 8007f36:	60fb      	str	r3, [r7, #12]
 8007f38:	7dfb      	ldrb	r3, [r7, #23]
 8007f3a:	005b      	lsls	r3, r3, #1
 8007f3c:	3301      	adds	r3, #1
 8007f3e:	68ba      	ldr	r2, [r7, #8]
 8007f40:	4413      	add	r3, r2
 8007f42:	2200      	movs	r2, #0
 8007f44:	701a      	strb	r2, [r3, #0]
 8007f46:	7dfb      	ldrb	r3, [r7, #23]
 8007f48:	3301      	adds	r3, #1
 8007f4a:	75fb      	strb	r3, [r7, #23]
 8007f4c:	7dfa      	ldrb	r2, [r7, #23]
 8007f4e:	79fb      	ldrb	r3, [r7, #7]
 8007f50:	429a      	cmp	r2, r3
 8007f52:	d3d3      	bcc.n	8007efc <IntToUnicode+0x18>
 8007f54:	bf00      	nop
 8007f56:	bf00      	nop
 8007f58:	371c      	adds	r7, #28
 8007f5a:	46bd      	mov	sp, r7
 8007f5c:	bc80      	pop	{r7}
 8007f5e:	4770      	bx	lr

08007f60 <HAL_PCD_MspInit>:
 8007f60:	b580      	push	{r7, lr}
 8007f62:	b084      	sub	sp, #16
 8007f64:	af00      	add	r7, sp, #0
 8007f66:	6078      	str	r0, [r7, #4]
 8007f68:	687b      	ldr	r3, [r7, #4]
 8007f6a:	681b      	ldr	r3, [r3, #0]
 8007f6c:	4a0d      	ldr	r2, [pc, #52]	; (8007fa4 <HAL_PCD_MspInit+0x44>)
 8007f6e:	4293      	cmp	r3, r2
 8007f70:	d113      	bne.n	8007f9a <HAL_PCD_MspInit+0x3a>
 8007f72:	4b0d      	ldr	r3, [pc, #52]	; (8007fa8 <HAL_PCD_MspInit+0x48>)
 8007f74:	6a5b      	ldr	r3, [r3, #36]	; 0x24
 8007f76:	4a0c      	ldr	r2, [pc, #48]	; (8007fa8 <HAL_PCD_MspInit+0x48>)
 8007f78:	f443 0300 	orr.w	r3, r3, #8388608	; 0x800000
 8007f7c:	6253      	str	r3, [r2, #36]	; 0x24
 8007f7e:	4b0a      	ldr	r3, [pc, #40]	; (8007fa8 <HAL_PCD_MspInit+0x48>)
 8007f80:	6a5b      	ldr	r3, [r3, #36]	; 0x24
 8007f82:	f403 0300 	and.w	r3, r3, #8388608	; 0x800000
 8007f86:	60fb      	str	r3, [r7, #12]
 8007f88:	68fb      	ldr	r3, [r7, #12]
 8007f8a:	2200      	movs	r2, #0
 8007f8c:	2100      	movs	r1, #0
 8007f8e:	2014      	movs	r0, #20
 8007f90:	f7f9 feaf 	bl	8001cf2 <HAL_NVIC_SetPriority>
 8007f94:	2014      	movs	r0, #20
 8007f96:	f7f9 fec8 	bl	8001d2a <HAL_NVIC_EnableIRQ>
 8007f9a:	bf00      	nop
 8007f9c:	3710      	adds	r7, #16
 8007f9e:	46bd      	mov	sp, r7
 8007fa0:	bd80      	pop	{r7, pc}
 8007fa2:	bf00      	nop
 8007fa4:	40005c00 	.word	0x40005c00
 8007fa8:	40023800 	.word	0x40023800

08007fac <HAL_PCD_SetupStageCallback>:
 8007fac:	b580      	push	{r7, lr}
 8007fae:	b082      	sub	sp, #8
 8007fb0:	af00      	add	r7, sp, #0
 8007fb2:	6078      	str	r0, [r7, #4]
 8007fb4:	687b      	ldr	r3, [r7, #4]
 8007fb6:	f8d3 2268 	ldr.w	r2, [r3, #616]	; 0x268
 8007fba:	687b      	ldr	r3, [r7, #4]
 8007fbc:	f503 730c 	add.w	r3, r3, #560	; 0x230
 8007fc0:	4619      	mov	r1, r3
 8007fc2:	4610      	mov	r0, r2
 8007fc4:	f7fe fe07 	bl	8006bd6 <USBD_LL_SetupStage>
 8007fc8:	bf00      	nop
 8007fca:	3708      	adds	r7, #8
 8007fcc:	46bd      	mov	sp, r7
 8007fce:	bd80      	pop	{r7, pc}

08007fd0 <HAL_PCD_DataOutStageCallback>:
 8007fd0:	b580      	push	{r7, lr}
 8007fd2:	b082      	sub	sp, #8
 8007fd4:	af00      	add	r7, sp, #0
 8007fd6:	6078      	str	r0, [r7, #4]
 8007fd8:	460b      	mov	r3, r1
 8007fda:	70fb      	strb	r3, [r7, #3]
 8007fdc:	687b      	ldr	r3, [r7, #4]
 8007fde:	f8d3 0268 	ldr.w	r0, [r3, #616]	; 0x268
 8007fe2:	78fb      	ldrb	r3, [r7, #3]
 8007fe4:	687a      	ldr	r2, [r7, #4]
 8007fe6:	015b      	lsls	r3, r3, #5
 8007fe8:	4413      	add	r3, r2
 8007fea:	f503 739e 	add.w	r3, r3, #316	; 0x13c
 8007fee:	681a      	ldr	r2, [r3, #0]
 8007ff0:	78fb      	ldrb	r3, [r7, #3]
 8007ff2:	4619      	mov	r1, r3
 8007ff4:	f7fe fe3c 	bl	8006c70 <USBD_LL_DataOutStage>
 8007ff8:	bf00      	nop
 8007ffa:	3708      	adds	r7, #8
 8007ffc:	46bd      	mov	sp, r7
 8007ffe:	bd80      	pop	{r7, pc}

08008000 <HAL_PCD_DataInStageCallback>:
 8008000:	b580      	push	{r7, lr}
 8008002:	b082      	sub	sp, #8
 8008004:	af00      	add	r7, sp, #0
 8008006:	6078      	str	r0, [r7, #4]
 8008008:	460b      	mov	r3, r1
 800800a:	70fb      	strb	r3, [r7, #3]
 800800c:	687b      	ldr	r3, [r7, #4]
 800800e:	f8d3 0268 	ldr.w	r0, [r3, #616]	; 0x268
 8008012:	78fb      	ldrb	r3, [r7, #3]
 8008014:	687a      	ldr	r2, [r7, #4]
 8008016:	015b      	lsls	r3, r3, #5
 8008018:	4413      	add	r3, r2
 800801a:	333c      	adds	r3, #60	; 0x3c
 800801c:	681a      	ldr	r2, [r3, #0]
 800801e:	78fb      	ldrb	r3, [r7, #3]
 8008020:	4619      	mov	r1, r3
 8008022:	f7fe fe96 	bl	8006d52 <USBD_LL_DataInStage>
 8008026:	bf00      	nop
 8008028:	3708      	adds	r7, #8
 800802a:	46bd      	mov	sp, r7
 800802c:	bd80      	pop	{r7, pc}

0800802e <HAL_PCD_SOFCallback>:
 800802e:	b580      	push	{r7, lr}
 8008030:	b082      	sub	sp, #8
 8008032:	af00      	add	r7, sp, #0
 8008034:	6078      	str	r0, [r7, #4]
 8008036:	687b      	ldr	r3, [r7, #4]
 8008038:	f8d3 3268 	ldr.w	r3, [r3, #616]	; 0x268
 800803c:	4618      	mov	r0, r3
 800803e:	f7fe ffa1 	bl	8006f84 <USBD_LL_SOF>
 8008042:	bf00      	nop
 8008044:	3708      	adds	r7, #8
 8008046:	46bd      	mov	sp, r7
 8008048:	bd80      	pop	{r7, pc}

0800804a <HAL_PCD_ResetCallback>:
 800804a:	b580      	push	{r7, lr}
 800804c:	b084      	sub	sp, #16
 800804e:	af00      	add	r7, sp, #0
 8008050:	6078      	str	r0, [r7, #4]
 8008052:	2301      	movs	r3, #1
 8008054:	73fb      	strb	r3, [r7, #15]
 8008056:	687b      	ldr	r3, [r7, #4]
 8008058:	689b      	ldr	r3, [r3, #8]
 800805a:	2b02      	cmp	r3, #2
 800805c:	d001      	beq.n	8008062 <HAL_PCD_ResetCallback+0x18>
 800805e:	f7f9 f9b3 	bl	80013c8 <Error_Handler>
 8008062:	687b      	ldr	r3, [r7, #4]
 8008064:	f8d3 3268 	ldr.w	r3, [r3, #616]	; 0x268
 8008068:	7bfa      	ldrb	r2, [r7, #15]
 800806a:	4611      	mov	r1, r2
 800806c:	4618      	mov	r0, r3
 800806e:	f7fe ff56 	bl	8006f1e <USBD_LL_SetSpeed>
 8008072:	687b      	ldr	r3, [r7, #4]
 8008074:	f8d3 3268 	ldr.w	r3, [r3, #616]	; 0x268
 8008078:	4618      	mov	r0, r3
 800807a:	f7fe ff0f 	bl	8006e9c <USBD_LL_Reset>
 800807e:	bf00      	nop
 8008080:	3710      	adds	r7, #16
 8008082:	46bd      	mov	sp, r7
 8008084:	bd80      	pop	{r7, pc}
	...

08008088 <HAL_PCD_SuspendCallback>:
 8008088:	b580      	push	{r7, lr}
 800808a:	b082      	sub	sp, #8
 800808c:	af00      	add	r7, sp, #0
 800808e:	6078      	str	r0, [r7, #4]
 8008090:	687b      	ldr	r3, [r7, #4]
 8008092:	f8d3 3268 	ldr.w	r3, [r3, #616]	; 0x268
 8008096:	4618      	mov	r0, r3
 8008098:	f7fe ff50 	bl	8006f3c <USBD_LL_Suspend>
 800809c:	687b      	ldr	r3, [r7, #4]
 800809e:	699b      	ldr	r3, [r3, #24]
 80080a0:	2b00      	cmp	r3, #0
 80080a2:	d005      	beq.n	80080b0 <HAL_PCD_SuspendCallback+0x28>
 80080a4:	4b04      	ldr	r3, [pc, #16]	; (80080b8 <HAL_PCD_SuspendCallback+0x30>)
 80080a6:	691b      	ldr	r3, [r3, #16]
 80080a8:	4a03      	ldr	r2, [pc, #12]	; (80080b8 <HAL_PCD_SuspendCallback+0x30>)
 80080aa:	f043 0306 	orr.w	r3, r3, #6
 80080ae:	6113      	str	r3, [r2, #16]
 80080b0:	bf00      	nop
 80080b2:	3708      	adds	r7, #8
 80080b4:	46bd      	mov	sp, r7
 80080b6:	bd80      	pop	{r7, pc}
 80080b8:	e000ed00 	.word	0xe000ed00

080080bc <HAL_PCD_ResumeCallback>:
 80080bc:	b580      	push	{r7, lr}
 80080be:	b082      	sub	sp, #8
 80080c0:	af00      	add	r7, sp, #0
 80080c2:	6078      	str	r0, [r7, #4]
 80080c4:	687b      	ldr	r3, [r7, #4]
 80080c6:	f8d3 3268 	ldr.w	r3, [r3, #616]	; 0x268
 80080ca:	4618      	mov	r0, r3
 80080cc:	f7fe ff4a 	bl	8006f64 <USBD_LL_Resume>
 80080d0:	bf00      	nop
 80080d2:	3708      	adds	r7, #8
 80080d4:	46bd      	mov	sp, r7
 80080d6:	bd80      	pop	{r7, pc}

080080d8 <USBD_LL_Init>:
 80080d8:	b580      	push	{r7, lr}
 80080da:	b082      	sub	sp, #8
 80080dc:	af00      	add	r7, sp, #0
 80080de:	6078      	str	r0, [r7, #4]
 80080e0:	4a28      	ldr	r2, [pc, #160]	; (8008184 <USBD_LL_Init+0xac>)
 80080e2:	687b      	ldr	r3, [r7, #4]
 80080e4:	f8c2 3268 	str.w	r3, [r2, #616]	; 0x268
 80080e8:	687b      	ldr	r3, [r7, #4]
 80080ea:	4a26      	ldr	r2, [pc, #152]	; (8008184 <USBD_LL_Init+0xac>)
 80080ec:	f8c3 2298 	str.w	r2, [r3, #664]	; 0x298
 80080f0:	4b24      	ldr	r3, [pc, #144]	; (8008184 <USBD_LL_Init+0xac>)
 80080f2:	4a25      	ldr	r2, [pc, #148]	; (8008188 <USBD_LL_Init+0xb0>)
 80080f4:	601a      	str	r2, [r3, #0]
 80080f6:	4b23      	ldr	r3, [pc, #140]	; (8008184 <USBD_LL_Init+0xac>)
 80080f8:	2208      	movs	r2, #8
 80080fa:	605a      	str	r2, [r3, #4]
 80080fc:	4b21      	ldr	r3, [pc, #132]	; (8008184 <USBD_LL_Init+0xac>)
 80080fe:	2202      	movs	r2, #2
 8008100:	609a      	str	r2, [r3, #8]
 8008102:	4b20      	ldr	r3, [pc, #128]	; (8008184 <USBD_LL_Init+0xac>)
 8008104:	2202      	movs	r2, #2
 8008106:	611a      	str	r2, [r3, #16]
 8008108:	4b1e      	ldr	r3, [pc, #120]	; (8008184 <USBD_LL_Init+0xac>)
 800810a:	2200      	movs	r2, #0
 800810c:	619a      	str	r2, [r3, #24]
 800810e:	4b1d      	ldr	r3, [pc, #116]	; (8008184 <USBD_LL_Init+0xac>)
 8008110:	2200      	movs	r2, #0
 8008112:	621a      	str	r2, [r3, #32]
 8008114:	481b      	ldr	r0, [pc, #108]	; (8008184 <USBD_LL_Init+0xac>)
 8008116:	f7f9 ffbb 	bl	8002090 <HAL_PCD_Init>
 800811a:	4603      	mov	r3, r0
 800811c:	2b00      	cmp	r3, #0
 800811e:	d001      	beq.n	8008124 <USBD_LL_Init+0x4c>
 8008120:	f7f9 f952 	bl	80013c8 <Error_Handler>
 8008124:	687b      	ldr	r3, [r7, #4]
 8008126:	f8d3 0298 	ldr.w	r0, [r3, #664]	; 0x298
 800812a:	2318      	movs	r3, #24
 800812c:	2200      	movs	r2, #0
 800812e:	2100      	movs	r1, #0
 8008130:	f7fa fe12 	bl	8002d58 <HAL_PCDEx_PMAConfig>
 8008134:	687b      	ldr	r3, [r7, #4]
 8008136:	f8d3 0298 	ldr.w	r0, [r3, #664]	; 0x298
 800813a:	2358      	movs	r3, #88	; 0x58
 800813c:	2200      	movs	r2, #0
 800813e:	2180      	movs	r1, #128	; 0x80
 8008140:	f7fa fe0a 	bl	8002d58 <HAL_PCDEx_PMAConfig>
 8008144:	687b      	ldr	r3, [r7, #4]
 8008146:	f8d3 0298 	ldr.w	r0, [r3, #664]	; 0x298
 800814a:	23c0      	movs	r3, #192	; 0xc0
 800814c:	2200      	movs	r2, #0
 800814e:	2181      	movs	r1, #129	; 0x81
 8008150:	f7fa fe02 	bl	8002d58 <HAL_PCDEx_PMAConfig>
 8008154:	687b      	ldr	r3, [r7, #4]
 8008156:	f8d3 0298 	ldr.w	r0, [r3, #664]	; 0x298
 800815a:	f44f 7388 	mov.w	r3, #272	; 0x110
 800815e:	2200      	movs	r2, #0
 8008160:	2101      	movs	r1, #1
 8008162:	f7fa fdf9 	bl	8002d58 <HAL_PCDEx_PMAConfig>
 8008166:	687b      	ldr	r3, [r7, #4]
 8008168:	f8d3 0298 	ldr.w	r0, [r3, #664]	; 0x298
 800816c:	f44f 7380 	mov.w	r3, #256	; 0x100
 8008170:	2200      	movs	r2, #0
 8008172:	2182      	movs	r1, #130	; 0x82
 8008174:	f7fa fdf0 	bl	8002d58 <HAL_PCDEx_PMAConfig>
 8008178:	2300      	movs	r3, #0
 800817a:	4618      	mov	r0, r3
 800817c:	3708      	adds	r7, #8
 800817e:	46bd      	mov	sp, r7
 8008180:	bd80      	pop	{r7, pc}
 8008182:	bf00      	nop
 8008184:	20001768 	.word	0x20001768
 8008188:	40005c00 	.word	0x40005c00

0800818c <USBD_LL_Start>:
 800818c:	b580      	push	{r7, lr}
 800818e:	b084      	sub	sp, #16
 8008190:	af00      	add	r7, sp, #0
 8008192:	6078      	str	r0, [r7, #4]
 8008194:	2300      	movs	r3, #0
 8008196:	73fb      	strb	r3, [r7, #15]
 8008198:	2300      	movs	r3, #0
 800819a:	73bb      	strb	r3, [r7, #14]
 800819c:	687b      	ldr	r3, [r7, #4]
 800819e:	f8d3 3298 	ldr.w	r3, [r3, #664]	; 0x298
 80081a2:	4618      	mov	r0, r3
 80081a4:	f7fa f828 	bl	80021f8 <HAL_PCD_Start>
 80081a8:	4603      	mov	r3, r0
 80081aa:	73fb      	strb	r3, [r7, #15]
 80081ac:	7bfb      	ldrb	r3, [r7, #15]
 80081ae:	4618      	mov	r0, r3
 80081b0:	f000 f93e 	bl	8008430 <USBD_Get_USB_Status>
 80081b4:	4603      	mov	r3, r0
 80081b6:	73bb      	strb	r3, [r7, #14]
 80081b8:	7bbb      	ldrb	r3, [r7, #14]
 80081ba:	4618      	mov	r0, r3
 80081bc:	3710      	adds	r7, #16
 80081be:	46bd      	mov	sp, r7
 80081c0:	bd80      	pop	{r7, pc}

080081c2 <USBD_LL_OpenEP>:
 80081c2:	b580      	push	{r7, lr}
 80081c4:	b084      	sub	sp, #16
 80081c6:	af00      	add	r7, sp, #0
 80081c8:	6078      	str	r0, [r7, #4]
 80081ca:	4608      	mov	r0, r1
 80081cc:	4611      	mov	r1, r2
 80081ce:	461a      	mov	r2, r3
 80081d0:	4603      	mov	r3, r0
 80081d2:	70fb      	strb	r3, [r7, #3]
 80081d4:	460b      	mov	r3, r1
 80081d6:	70bb      	strb	r3, [r7, #2]
 80081d8:	4613      	mov	r3, r2
 80081da:	803b      	strh	r3, [r7, #0]
 80081dc:	2300      	movs	r3, #0
 80081de:	73fb      	strb	r3, [r7, #15]
 80081e0:	2300      	movs	r3, #0
 80081e2:	73bb      	strb	r3, [r7, #14]
 80081e4:	687b      	ldr	r3, [r7, #4]
 80081e6:	f8d3 0298 	ldr.w	r0, [r3, #664]	; 0x298
 80081ea:	78bb      	ldrb	r3, [r7, #2]
 80081ec:	883a      	ldrh	r2, [r7, #0]
 80081ee:	78f9      	ldrb	r1, [r7, #3]
 80081f0:	f7fa f94f 	bl	8002492 <HAL_PCD_EP_Open>
 80081f4:	4603      	mov	r3, r0
 80081f6:	73fb      	strb	r3, [r7, #15]
 80081f8:	7bfb      	ldrb	r3, [r7, #15]
 80081fa:	4618      	mov	r0, r3
 80081fc:	f000 f918 	bl	8008430 <USBD_Get_USB_Status>
 8008200:	4603      	mov	r3, r0
 8008202:	73bb      	strb	r3, [r7, #14]
 8008204:	7bbb      	ldrb	r3, [r7, #14]
 8008206:	4618      	mov	r0, r3
 8008208:	3710      	adds	r7, #16
 800820a:	46bd      	mov	sp, r7
 800820c:	bd80      	pop	{r7, pc}

0800820e <USBD_LL_CloseEP>:
 800820e:	b580      	push	{r7, lr}
 8008210:	b084      	sub	sp, #16
 8008212:	af00      	add	r7, sp, #0
 8008214:	6078      	str	r0, [r7, #4]
 8008216:	460b      	mov	r3, r1
 8008218:	70fb      	strb	r3, [r7, #3]
 800821a:	2300      	movs	r3, #0
 800821c:	73fb      	strb	r3, [r7, #15]
 800821e:	2300      	movs	r3, #0
 8008220:	73bb      	strb	r3, [r7, #14]
 8008222:	687b      	ldr	r3, [r7, #4]
 8008224:	f8d3 3298 	ldr.w	r3, [r3, #664]	; 0x298
 8008228:	78fa      	ldrb	r2, [r7, #3]
 800822a:	4611      	mov	r1, r2
 800822c:	4618      	mov	r0, r3
 800822e:	f7fa f990 	bl	8002552 <HAL_PCD_EP_Close>
 8008232:	4603      	mov	r3, r0
 8008234:	73fb      	strb	r3, [r7, #15]
 8008236:	7bfb      	ldrb	r3, [r7, #15]
 8008238:	4618      	mov	r0, r3
 800823a:	f000 f8f9 	bl	8008430 <USBD_Get_USB_Status>
 800823e:	4603      	mov	r3, r0
 8008240:	73bb      	strb	r3, [r7, #14]
 8008242:	7bbb      	ldrb	r3, [r7, #14]
 8008244:	4618      	mov	r0, r3
 8008246:	3710      	adds	r7, #16
 8008248:	46bd      	mov	sp, r7
 800824a:	bd80      	pop	{r7, pc}

0800824c <USBD_LL_StallEP>:
 800824c:	b580      	push	{r7, lr}
 800824e:	b084      	sub	sp, #16
 8008250:	af00      	add	r7, sp, #0
 8008252:	6078      	str	r0, [r7, #4]
 8008254:	460b      	mov	r3, r1
 8008256:	70fb      	strb	r3, [r7, #3]
 8008258:	2300      	movs	r3, #0
 800825a:	73fb      	strb	r3, [r7, #15]
 800825c:	2300      	movs	r3, #0
 800825e:	73bb      	strb	r3, [r7, #14]
 8008260:	687b      	ldr	r3, [r7, #4]
 8008262:	f8d3 3298 	ldr.w	r3, [r3, #664]	; 0x298
 8008266:	78fa      	ldrb	r2, [r7, #3]
 8008268:	4611      	mov	r1, r2
 800826a:	4618      	mov	r0, r3
 800826c:	f7fa fa3a 	bl	80026e4 <HAL_PCD_EP_SetStall>
 8008270:	4603      	mov	r3, r0
 8008272:	73fb      	strb	r3, [r7, #15]
 8008274:	7bfb      	ldrb	r3, [r7, #15]
 8008276:	4618      	mov	r0, r3
 8008278:	f000 f8da 	bl	8008430 <USBD_Get_USB_Status>
 800827c:	4603      	mov	r3, r0
 800827e:	73bb      	strb	r3, [r7, #14]
 8008280:	7bbb      	ldrb	r3, [r7, #14]
 8008282:	4618      	mov	r0, r3
 8008284:	3710      	adds	r7, #16
 8008286:	46bd      	mov	sp, r7
 8008288:	bd80      	pop	{r7, pc}

0800828a <USBD_LL_ClearStallEP>:
 800828a:	b580      	push	{r7, lr}
 800828c:	b084      	sub	sp, #16
 800828e:	af00      	add	r7, sp, #0
 8008290:	6078      	str	r0, [r7, #4]
 8008292:	460b      	mov	r3, r1
 8008294:	70fb      	strb	r3, [r7, #3]
 8008296:	2300      	movs	r3, #0
 8008298:	73fb      	strb	r3, [r7, #15]
 800829a:	2300      	movs	r3, #0
 800829c:	73bb      	strb	r3, [r7, #14]
 800829e:	687b      	ldr	r3, [r7, #4]
 80082a0:	f8d3 3298 	ldr.w	r3, [r3, #664]	; 0x298
 80082a4:	78fa      	ldrb	r2, [r7, #3]
 80082a6:	4611      	mov	r1, r2
 80082a8:	4618      	mov	r0, r3
 80082aa:	f7fa fa75 	bl	8002798 <HAL_PCD_EP_ClrStall>
 80082ae:	4603      	mov	r3, r0
 80082b0:	73fb      	strb	r3, [r7, #15]
 80082b2:	7bfb      	ldrb	r3, [r7, #15]
 80082b4:	4618      	mov	r0, r3
 80082b6:	f000 f8bb 	bl	8008430 <USBD_Get_USB_Status>
 80082ba:	4603      	mov	r3, r0
 80082bc:	73bb      	strb	r3, [r7, #14]
 80082be:	7bbb      	ldrb	r3, [r7, #14]
 80082c0:	4618      	mov	r0, r3
 80082c2:	3710      	adds	r7, #16
 80082c4:	46bd      	mov	sp, r7
 80082c6:	bd80      	pop	{r7, pc}

080082c8 <USBD_LL_IsStallEP>:
 80082c8:	b480      	push	{r7}
 80082ca:	b085      	sub	sp, #20
 80082cc:	af00      	add	r7, sp, #0
 80082ce:	6078      	str	r0, [r7, #4]
 80082d0:	460b      	mov	r3, r1
 80082d2:	70fb      	strb	r3, [r7, #3]
 80082d4:	687b      	ldr	r3, [r7, #4]
 80082d6:	f8d3 3298 	ldr.w	r3, [r3, #664]	; 0x298
 80082da:	60fb      	str	r3, [r7, #12]
 80082dc:	f997 3003 	ldrsb.w	r3, [r7, #3]
 80082e0:	2b00      	cmp	r3, #0
 80082e2:	da08      	bge.n	80082f6 <USBD_LL_IsStallEP+0x2e>
 80082e4:	78fb      	ldrb	r3, [r7, #3]
 80082e6:	f003 037f 	and.w	r3, r3, #127	; 0x7f
 80082ea:	68fa      	ldr	r2, [r7, #12]
 80082ec:	015b      	lsls	r3, r3, #5
 80082ee:	4413      	add	r3, r2
 80082f0:	332a      	adds	r3, #42	; 0x2a
 80082f2:	781b      	ldrb	r3, [r3, #0]
 80082f4:	e008      	b.n	8008308 <USBD_LL_IsStallEP+0x40>
 80082f6:	78fb      	ldrb	r3, [r7, #3]
 80082f8:	f003 037f 	and.w	r3, r3, #127	; 0x7f
 80082fc:	68fa      	ldr	r2, [r7, #12]
 80082fe:	015b      	lsls	r3, r3, #5
 8008300:	4413      	add	r3, r2
 8008302:	f503 7395 	add.w	r3, r3, #298	; 0x12a
 8008306:	781b      	ldrb	r3, [r3, #0]
 8008308:	4618      	mov	r0, r3
 800830a:	3714      	adds	r7, #20
 800830c:	46bd      	mov	sp, r7
 800830e:	bc80      	pop	{r7}
 8008310:	4770      	bx	lr

08008312 <USBD_LL_SetUSBAddress>:
 8008312:	b580      	push	{r7, lr}
 8008314:	b084      	sub	sp, #16
 8008316:	af00      	add	r7, sp, #0
 8008318:	6078      	str	r0, [r7, #4]
 800831a:	460b      	mov	r3, r1
 800831c:	70fb      	strb	r3, [r7, #3]
 800831e:	2300      	movs	r3, #0
 8008320:	73fb      	strb	r3, [r7, #15]
 8008322:	2300      	movs	r3, #0
 8008324:	73bb      	strb	r3, [r7, #14]
 8008326:	687b      	ldr	r3, [r7, #4]
 8008328:	f8d3 3298 	ldr.w	r3, [r3, #664]	; 0x298
 800832c:	78fa      	ldrb	r2, [r7, #3]
 800832e:	4611      	mov	r1, r2
 8008330:	4618      	mov	r0, r3
 8008332:	f7fa f889 	bl	8002448 <HAL_PCD_SetAddress>
 8008336:	4603      	mov	r3, r0
 8008338:	73fb      	strb	r3, [r7, #15]
 800833a:	7bfb      	ldrb	r3, [r7, #15]
 800833c:	4618      	mov	r0, r3
 800833e:	f000 f877 	bl	8008430 <USBD_Get_USB_Status>
 8008342:	4603      	mov	r3, r0
 8008344:	73bb      	strb	r3, [r7, #14]
 8008346:	7bbb      	ldrb	r3, [r7, #14]
 8008348:	4618      	mov	r0, r3
 800834a:	3710      	adds	r7, #16
 800834c:	46bd      	mov	sp, r7
 800834e:	bd80      	pop	{r7, pc}

08008350 <USBD_LL_Transmit>:
 8008350:	b580      	push	{r7, lr}
 8008352:	b086      	sub	sp, #24
 8008354:	af00      	add	r7, sp, #0
 8008356:	60f8      	str	r0, [r7, #12]
 8008358:	607a      	str	r2, [r7, #4]
 800835a:	461a      	mov	r2, r3
 800835c:	460b      	mov	r3, r1
 800835e:	72fb      	strb	r3, [r7, #11]
 8008360:	4613      	mov	r3, r2
 8008362:	813b      	strh	r3, [r7, #8]
 8008364:	2300      	movs	r3, #0
 8008366:	75fb      	strb	r3, [r7, #23]
 8008368:	2300      	movs	r3, #0
 800836a:	75bb      	strb	r3, [r7, #22]
 800836c:	68fb      	ldr	r3, [r7, #12]
 800836e:	f8d3 0298 	ldr.w	r0, [r3, #664]	; 0x298
 8008372:	893b      	ldrh	r3, [r7, #8]
 8008374:	7af9      	ldrb	r1, [r7, #11]
 8008376:	687a      	ldr	r2, [r7, #4]
 8008378:	f7fa f97b 	bl	8002672 <HAL_PCD_EP_Transmit>
 800837c:	4603      	mov	r3, r0
 800837e:	75fb      	strb	r3, [r7, #23]
 8008380:	7dfb      	ldrb	r3, [r7, #23]
 8008382:	4618      	mov	r0, r3
 8008384:	f000 f854 	bl	8008430 <USBD_Get_USB_Status>
 8008388:	4603      	mov	r3, r0
 800838a:	75bb      	strb	r3, [r7, #22]
 800838c:	7dbb      	ldrb	r3, [r7, #22]
 800838e:	4618      	mov	r0, r3
 8008390:	3718      	adds	r7, #24
 8008392:	46bd      	mov	sp, r7
 8008394:	bd80      	pop	{r7, pc}

08008396 <USBD_LL_PrepareReceive>:
 8008396:	b580      	push	{r7, lr}
 8008398:	b086      	sub	sp, #24
 800839a:	af00      	add	r7, sp, #0
 800839c:	60f8      	str	r0, [r7, #12]
 800839e:	607a      	str	r2, [r7, #4]
 80083a0:	461a      	mov	r2, r3
 80083a2:	460b      	mov	r3, r1
 80083a4:	72fb      	strb	r3, [r7, #11]
 80083a6:	4613      	mov	r3, r2
 80083a8:	813b      	strh	r3, [r7, #8]
 80083aa:	2300      	movs	r3, #0
 80083ac:	75fb      	strb	r3, [r7, #23]
 80083ae:	2300      	movs	r3, #0
 80083b0:	75bb      	strb	r3, [r7, #22]
 80083b2:	68fb      	ldr	r3, [r7, #12]
 80083b4:	f8d3 0298 	ldr.w	r0, [r3, #664]	; 0x298
 80083b8:	893b      	ldrh	r3, [r7, #8]
 80083ba:	7af9      	ldrb	r1, [r7, #11]
 80083bc:	687a      	ldr	r2, [r7, #4]
 80083be:	f7fa f90a 	bl	80025d6 <HAL_PCD_EP_Receive>
 80083c2:	4603      	mov	r3, r0
 80083c4:	75fb      	strb	r3, [r7, #23]
 80083c6:	7dfb      	ldrb	r3, [r7, #23]
 80083c8:	4618      	mov	r0, r3
 80083ca:	f000 f831 	bl	8008430 <USBD_Get_USB_Status>
 80083ce:	4603      	mov	r3, r0
 80083d0:	75bb      	strb	r3, [r7, #22]
 80083d2:	7dbb      	ldrb	r3, [r7, #22]
 80083d4:	4618      	mov	r0, r3
 80083d6:	3718      	adds	r7, #24
 80083d8:	46bd      	mov	sp, r7
 80083da:	bd80      	pop	{r7, pc}

080083dc <USBD_LL_GetRxDataSize>:
 80083dc:	b580      	push	{r7, lr}
 80083de:	b082      	sub	sp, #8
 80083e0:	af00      	add	r7, sp, #0
 80083e2:	6078      	str	r0, [r7, #4]
 80083e4:	460b      	mov	r3, r1
 80083e6:	70fb      	strb	r3, [r7, #3]
 80083e8:	687b      	ldr	r3, [r7, #4]
 80083ea:	f8d3 3298 	ldr.w	r3, [r3, #664]	; 0x298
 80083ee:	78fa      	ldrb	r2, [r7, #3]
 80083f0:	4611      	mov	r1, r2
 80083f2:	4618      	mov	r0, r3
 80083f4:	f7fa f929 	bl	800264a <HAL_PCD_EP_GetRxCount>
 80083f8:	4603      	mov	r3, r0
 80083fa:	4618      	mov	r0, r3
 80083fc:	3708      	adds	r7, #8
 80083fe:	46bd      	mov	sp, r7
 8008400:	bd80      	pop	{r7, pc}
	...

08008404 <USBD_static_malloc>:
 8008404:	b480      	push	{r7}
 8008406:	b083      	sub	sp, #12
 8008408:	af00      	add	r7, sp, #0
 800840a:	6078      	str	r0, [r7, #4]
 800840c:	4b02      	ldr	r3, [pc, #8]	; (8008418 <USBD_static_malloc+0x14>)
 800840e:	4618      	mov	r0, r3
 8008410:	370c      	adds	r7, #12
 8008412:	46bd      	mov	sp, r7
 8008414:	bc80      	pop	{r7}
 8008416:	4770      	bx	lr
 8008418:	200019d4 	.word	0x200019d4

0800841c <USBD_static_free>:
 800841c:	b480      	push	{r7}
 800841e:	b083      	sub	sp, #12
 8008420:	af00      	add	r7, sp, #0
 8008422:	6078      	str	r0, [r7, #4]
 8008424:	bf00      	nop
 8008426:	370c      	adds	r7, #12
 8008428:	46bd      	mov	sp, r7
 800842a:	bc80      	pop	{r7}
 800842c:	4770      	bx	lr
	...

08008430 <USBD_Get_USB_Status>:
 8008430:	b480      	push	{r7}
 8008432:	b085      	sub	sp, #20
 8008434:	af00      	add	r7, sp, #0
 8008436:	4603      	mov	r3, r0
 8008438:	71fb      	strb	r3, [r7, #7]
 800843a:	2300      	movs	r3, #0
 800843c:	73fb      	strb	r3, [r7, #15]
 800843e:	79fb      	ldrb	r3, [r7, #7]
 8008440:	2b03      	cmp	r3, #3
 8008442:	d817      	bhi.n	8008474 <USBD_Get_USB_Status+0x44>
 8008444:	a201      	add	r2, pc, #4	; (adr r2, 800844c <USBD_Get_USB_Status+0x1c>)
 8008446:	f852 f023 	ldr.w	pc, [r2, r3, lsl #2]
 800844a:	bf00      	nop
 800844c:	0800845d 	.word	0x0800845d
 8008450:	08008463 	.word	0x08008463
 8008454:	08008469 	.word	0x08008469
 8008458:	0800846f 	.word	0x0800846f
 800845c:	2300      	movs	r3, #0
 800845e:	73fb      	strb	r3, [r7, #15]
 8008460:	e00b      	b.n	800847a <USBD_Get_USB_Status+0x4a>
 8008462:	2302      	movs	r3, #2
 8008464:	73fb      	strb	r3, [r7, #15]
 8008466:	e008      	b.n	800847a <USBD_Get_USB_Status+0x4a>
 8008468:	2301      	movs	r3, #1
 800846a:	73fb      	strb	r3, [r7, #15]
 800846c:	e005      	b.n	800847a <USBD_Get_USB_Status+0x4a>
 800846e:	2302      	movs	r3, #2
 8008470:	73fb      	strb	r3, [r7, #15]
 8008472:	e002      	b.n	800847a <USBD_Get_USB_Status+0x4a>
 8008474:	2302      	movs	r3, #2
 8008476:	73fb      	strb	r3, [r7, #15]
 8008478:	bf00      	nop
 800847a:	7bfb      	ldrb	r3, [r7, #15]
 800847c:	4618      	mov	r0, r3
 800847e:	3714      	adds	r7, #20
 8008480:	46bd      	mov	sp, r7
 8008482:	bc80      	pop	{r7}
 8008484:	4770      	bx	lr
 8008486:	bf00      	nop

08008488 <__errno>:
 8008488:	4b01      	ldr	r3, [pc, #4]	; (8008490 <__errno+0x8>)
 800848a:	6818      	ldr	r0, [r3, #0]
 800848c:	4770      	bx	lr
 800848e:	bf00      	nop
 8008490:	20000180 	.word	0x20000180

08008494 <__libc_init_array>:
 8008494:	b570      	push	{r4, r5, r6, lr}
 8008496:	2600      	movs	r6, #0
 8008498:	4d0c      	ldr	r5, [pc, #48]	; (80084cc <__libc_init_array+0x38>)
 800849a:	4c0d      	ldr	r4, [pc, #52]	; (80084d0 <__libc_init_array+0x3c>)
 800849c:	1b64      	subs	r4, r4, r5
 800849e:	10a4      	asrs	r4, r4, #2
 80084a0:	42a6      	cmp	r6, r4
 80084a2:	d109      	bne.n	80084b8 <__libc_init_array+0x24>
 80084a4:	f000 fcb6 	bl	8008e14 <_init>
 80084a8:	2600      	movs	r6, #0
 80084aa:	4d0a      	ldr	r5, [pc, #40]	; (80084d4 <__libc_init_array+0x40>)
 80084ac:	4c0a      	ldr	r4, [pc, #40]	; (80084d8 <__libc_init_array+0x44>)
 80084ae:	1b64      	subs	r4, r4, r5
 80084b0:	10a4      	asrs	r4, r4, #2
 80084b2:	42a6      	cmp	r6, r4
 80084b4:	d105      	bne.n	80084c2 <__libc_init_array+0x2e>
 80084b6:	bd70      	pop	{r4, r5, r6, pc}
 80084b8:	f855 3b04 	ldr.w	r3, [r5], #4
 80084bc:	4798      	blx	r3
 80084be:	3601      	adds	r6, #1
 80084c0:	e7ee      	b.n	80084a0 <__libc_init_array+0xc>
 80084c2:	f855 3b04 	ldr.w	r3, [r5], #4
 80084c6:	4798      	blx	r3
 80084c8:	3601      	adds	r6, #1
 80084ca:	e7f2      	b.n	80084b2 <__libc_init_array+0x1e>
 80084cc:	08008efc 	.word	0x08008efc
 80084d0:	08008efc 	.word	0x08008efc
 80084d4:	08008efc 	.word	0x08008efc
 80084d8:	08008f00 	.word	0x08008f00

080084dc <memcpy>:
 80084dc:	440a      	add	r2, r1
 80084de:	4291      	cmp	r1, r2
 80084e0:	f100 33ff 	add.w	r3, r0, #4294967295
 80084e4:	d100      	bne.n	80084e8 <memcpy+0xc>
 80084e6:	4770      	bx	lr
 80084e8:	b510      	push	{r4, lr}
 80084ea:	f811 4b01 	ldrb.w	r4, [r1], #1
 80084ee:	4291      	cmp	r1, r2
 80084f0:	f803 4f01 	strb.w	r4, [r3, #1]!
 80084f4:	d1f9      	bne.n	80084ea <memcpy+0xe>
 80084f6:	bd10      	pop	{r4, pc}

080084f8 <memset>:
 80084f8:	4603      	mov	r3, r0
 80084fa:	4402      	add	r2, r0
 80084fc:	4293      	cmp	r3, r2
 80084fe:	d100      	bne.n	8008502 <memset+0xa>
 8008500:	4770      	bx	lr
 8008502:	f803 1b01 	strb.w	r1, [r3], #1
 8008506:	e7f9      	b.n	80084fc <memset+0x4>

08008508 <_vsniprintf_r>:
 8008508:	b530      	push	{r4, r5, lr}
 800850a:	4614      	mov	r4, r2
 800850c:	2c00      	cmp	r4, #0
 800850e:	4605      	mov	r5, r0
 8008510:	461a      	mov	r2, r3
 8008512:	b09b      	sub	sp, #108	; 0x6c
 8008514:	da05      	bge.n	8008522 <_vsniprintf_r+0x1a>
 8008516:	238b      	movs	r3, #139	; 0x8b
 8008518:	6003      	str	r3, [r0, #0]
 800851a:	f04f 30ff 	mov.w	r0, #4294967295
 800851e:	b01b      	add	sp, #108	; 0x6c
 8008520:	bd30      	pop	{r4, r5, pc}
 8008522:	f44f 7302 	mov.w	r3, #520	; 0x208
 8008526:	f8ad 300c 	strh.w	r3, [sp, #12]
 800852a:	bf0c      	ite	eq
 800852c:	4623      	moveq	r3, r4
 800852e:	f104 33ff 	addne.w	r3, r4, #4294967295
 8008532:	9302      	str	r3, [sp, #8]
 8008534:	9305      	str	r3, [sp, #20]
 8008536:	f64f 73ff 	movw	r3, #65535	; 0xffff
 800853a:	9100      	str	r1, [sp, #0]
 800853c:	9104      	str	r1, [sp, #16]
 800853e:	f8ad 300e 	strh.w	r3, [sp, #14]
 8008542:	4669      	mov	r1, sp
 8008544:	9b1e      	ldr	r3, [sp, #120]	; 0x78
 8008546:	f000 f875 	bl	8008634 <_svfiprintf_r>
 800854a:	1c43      	adds	r3, r0, #1
 800854c:	bfbc      	itt	lt
 800854e:	238b      	movlt	r3, #139	; 0x8b
 8008550:	602b      	strlt	r3, [r5, #0]
 8008552:	2c00      	cmp	r4, #0
 8008554:	d0e3      	beq.n	800851e <_vsniprintf_r+0x16>
 8008556:	2200      	movs	r2, #0
 8008558:	9b00      	ldr	r3, [sp, #0]
 800855a:	701a      	strb	r2, [r3, #0]
 800855c:	e7df      	b.n	800851e <_vsniprintf_r+0x16>
	...

08008560 <vsniprintf>:
 8008560:	b507      	push	{r0, r1, r2, lr}
 8008562:	9300      	str	r3, [sp, #0]
 8008564:	4613      	mov	r3, r2
 8008566:	460a      	mov	r2, r1
 8008568:	4601      	mov	r1, r0
 800856a:	4803      	ldr	r0, [pc, #12]	; (8008578 <vsniprintf+0x18>)
 800856c:	6800      	ldr	r0, [r0, #0]
 800856e:	f7ff ffcb 	bl	8008508 <_vsniprintf_r>
 8008572:	b003      	add	sp, #12
 8008574:	f85d fb04 	ldr.w	pc, [sp], #4
 8008578:	20000180 	.word	0x20000180

0800857c <__ssputs_r>:
 800857c:	e92d 47f0 	stmdb	sp!, {r4, r5, r6, r7, r8, r9, sl, lr}
 8008580:	688e      	ldr	r6, [r1, #8]
 8008582:	4682      	mov	sl, r0
 8008584:	429e      	cmp	r6, r3
 8008586:	460c      	mov	r4, r1
 8008588:	4690      	mov	r8, r2
 800858a:	461f      	mov	r7, r3
 800858c:	d838      	bhi.n	8008600 <__ssputs_r+0x84>
 800858e:	898a      	ldrh	r2, [r1, #12]
 8008590:	f412 6f90 	tst.w	r2, #1152	; 0x480
 8008594:	d032      	beq.n	80085fc <__ssputs_r+0x80>
 8008596:	6825      	ldr	r5, [r4, #0]
 8008598:	6909      	ldr	r1, [r1, #16]
 800859a:	3301      	adds	r3, #1
 800859c:	eba5 0901 	sub.w	r9, r5, r1
 80085a0:	6965      	ldr	r5, [r4, #20]
 80085a2:	444b      	add	r3, r9
 80085a4:	eb05 0545 	add.w	r5, r5, r5, lsl #1
 80085a8:	eb05 75d5 	add.w	r5, r5, r5, lsr #31
 80085ac:	106d      	asrs	r5, r5, #1
 80085ae:	429d      	cmp	r5, r3
 80085b0:	bf38      	it	cc
 80085b2:	461d      	movcc	r5, r3
 80085b4:	0553      	lsls	r3, r2, #21
 80085b6:	d531      	bpl.n	800861c <__ssputs_r+0xa0>
 80085b8:	4629      	mov	r1, r5
 80085ba:	f000 fb61 	bl	8008c80 <_malloc_r>
 80085be:	4606      	mov	r6, r0
 80085c0:	b950      	cbnz	r0, 80085d8 <__ssputs_r+0x5c>
 80085c2:	230c      	movs	r3, #12
 80085c4:	f04f 30ff 	mov.w	r0, #4294967295
 80085c8:	f8ca 3000 	str.w	r3, [sl]
 80085cc:	89a3      	ldrh	r3, [r4, #12]
 80085ce:	f043 0340 	orr.w	r3, r3, #64	; 0x40
 80085d2:	81a3      	strh	r3, [r4, #12]
 80085d4:	e8bd 87f0 	ldmia.w	sp!, {r4, r5, r6, r7, r8, r9, sl, pc}
 80085d8:	464a      	mov	r2, r9
 80085da:	6921      	ldr	r1, [r4, #16]
 80085dc:	f7ff ff7e 	bl	80084dc <memcpy>
 80085e0:	89a3      	ldrh	r3, [r4, #12]
 80085e2:	f423 6390 	bic.w	r3, r3, #1152	; 0x480
 80085e6:	f043 0380 	orr.w	r3, r3, #128	; 0x80
 80085ea:	81a3      	strh	r3, [r4, #12]
 80085ec:	6126      	str	r6, [r4, #16]
 80085ee:	444e      	add	r6, r9
 80085f0:	6026      	str	r6, [r4, #0]
 80085f2:	463e      	mov	r6, r7
 80085f4:	6165      	str	r5, [r4, #20]
 80085f6:	eba5 0509 	sub.w	r5, r5, r9
 80085fa:	60a5      	str	r5, [r4, #8]
 80085fc:	42be      	cmp	r6, r7
 80085fe:	d900      	bls.n	8008602 <__ssputs_r+0x86>
 8008600:	463e      	mov	r6, r7
 8008602:	4632      	mov	r2, r6
 8008604:	4641      	mov	r1, r8
 8008606:	6820      	ldr	r0, [r4, #0]
 8008608:	f000 fab8 	bl	8008b7c <memmove>
 800860c:	68a3      	ldr	r3, [r4, #8]
 800860e:	2000      	movs	r0, #0
 8008610:	1b9b      	subs	r3, r3, r6
 8008612:	60a3      	str	r3, [r4, #8]
 8008614:	6823      	ldr	r3, [r4, #0]
 8008616:	4433      	add	r3, r6
 8008618:	6023      	str	r3, [r4, #0]
 800861a:	e7db      	b.n	80085d4 <__ssputs_r+0x58>
 800861c:	462a      	mov	r2, r5
 800861e:	f000 fba3 	bl	8008d68 <_realloc_r>
 8008622:	4606      	mov	r6, r0
 8008624:	2800      	cmp	r0, #0
 8008626:	d1e1      	bne.n	80085ec <__ssputs_r+0x70>
 8008628:	4650      	mov	r0, sl
 800862a:	6921      	ldr	r1, [r4, #16]
 800862c:	f000 fac0 	bl	8008bb0 <_free_r>
 8008630:	e7c7      	b.n	80085c2 <__ssputs_r+0x46>
	...

08008634 <_svfiprintf_r>:
 8008634:	e92d 4ff0 	stmdb	sp!, {r4, r5, r6, r7, r8, r9, sl, fp, lr}
 8008638:	4698      	mov	r8, r3
 800863a:	898b      	ldrh	r3, [r1, #12]
 800863c:	4607      	mov	r7, r0
 800863e:	061b      	lsls	r3, r3, #24
 8008640:	460d      	mov	r5, r1
 8008642:	4614      	mov	r4, r2
 8008644:	b09d      	sub	sp, #116	; 0x74
 8008646:	d50e      	bpl.n	8008666 <_svfiprintf_r+0x32>
 8008648:	690b      	ldr	r3, [r1, #16]
 800864a:	b963      	cbnz	r3, 8008666 <_svfiprintf_r+0x32>
 800864c:	2140      	movs	r1, #64	; 0x40
 800864e:	f000 fb17 	bl	8008c80 <_malloc_r>
 8008652:	6028      	str	r0, [r5, #0]
 8008654:	6128      	str	r0, [r5, #16]
 8008656:	b920      	cbnz	r0, 8008662 <_svfiprintf_r+0x2e>
 8008658:	230c      	movs	r3, #12
 800865a:	603b      	str	r3, [r7, #0]
 800865c:	f04f 30ff 	mov.w	r0, #4294967295
 8008660:	e0d1      	b.n	8008806 <_svfiprintf_r+0x1d2>
 8008662:	2340      	movs	r3, #64	; 0x40
 8008664:	616b      	str	r3, [r5, #20]
 8008666:	2300      	movs	r3, #0
 8008668:	9309      	str	r3, [sp, #36]	; 0x24
 800866a:	2320      	movs	r3, #32
 800866c:	f88d 3029 	strb.w	r3, [sp, #41]	; 0x29
 8008670:	2330      	movs	r3, #48	; 0x30
 8008672:	f04f 0901 	mov.w	r9, #1
 8008676:	f8cd 800c 	str.w	r8, [sp, #12]
 800867a:	f8df 81a4 	ldr.w	r8, [pc, #420]	; 8008820 <_svfiprintf_r+0x1ec>
 800867e:	f88d 302a 	strb.w	r3, [sp, #42]	; 0x2a
 8008682:	4623      	mov	r3, r4
 8008684:	469a      	mov	sl, r3
 8008686:	f813 2b01 	ldrb.w	r2, [r3], #1
 800868a:	b10a      	cbz	r2, 8008690 <_svfiprintf_r+0x5c>
 800868c:	2a25      	cmp	r2, #37	; 0x25
 800868e:	d1f9      	bne.n	8008684 <_svfiprintf_r+0x50>
 8008690:	ebba 0b04 	subs.w	fp, sl, r4
 8008694:	d00b      	beq.n	80086ae <_svfiprintf_r+0x7a>
 8008696:	465b      	mov	r3, fp
 8008698:	4622      	mov	r2, r4
 800869a:	4629      	mov	r1, r5
 800869c:	4638      	mov	r0, r7
 800869e:	f7ff ff6d 	bl	800857c <__ssputs_r>
 80086a2:	3001      	adds	r0, #1
 80086a4:	f000 80aa 	beq.w	80087fc <_svfiprintf_r+0x1c8>
 80086a8:	9a09      	ldr	r2, [sp, #36]	; 0x24
 80086aa:	445a      	add	r2, fp
 80086ac:	9209      	str	r2, [sp, #36]	; 0x24
 80086ae:	f89a 3000 	ldrb.w	r3, [sl]
 80086b2:	2b00      	cmp	r3, #0
 80086b4:	f000 80a2 	beq.w	80087fc <_svfiprintf_r+0x1c8>
 80086b8:	2300      	movs	r3, #0
 80086ba:	f04f 32ff 	mov.w	r2, #4294967295
 80086be:	e9cd 2305 	strd	r2, r3, [sp, #20]
 80086c2:	f10a 0a01 	add.w	sl, sl, #1
 80086c6:	9304      	str	r3, [sp, #16]
 80086c8:	9307      	str	r3, [sp, #28]
 80086ca:	f88d 3053 	strb.w	r3, [sp, #83]	; 0x53
 80086ce:	931a      	str	r3, [sp, #104]	; 0x68
 80086d0:	4654      	mov	r4, sl
 80086d2:	2205      	movs	r2, #5
 80086d4:	f814 1b01 	ldrb.w	r1, [r4], #1
 80086d8:	4851      	ldr	r0, [pc, #324]	; (8008820 <_svfiprintf_r+0x1ec>)
 80086da:	f000 fa41 	bl	8008b60 <memchr>
 80086de:	9a04      	ldr	r2, [sp, #16]
 80086e0:	b9d8      	cbnz	r0, 800871a <_svfiprintf_r+0xe6>
 80086e2:	06d0      	lsls	r0, r2, #27
 80086e4:	bf44      	itt	mi
 80086e6:	2320      	movmi	r3, #32
 80086e8:	f88d 3053 	strbmi.w	r3, [sp, #83]	; 0x53
 80086ec:	0711      	lsls	r1, r2, #28
 80086ee:	bf44      	itt	mi
 80086f0:	232b      	movmi	r3, #43	; 0x2b
 80086f2:	f88d 3053 	strbmi.w	r3, [sp, #83]	; 0x53
 80086f6:	f89a 3000 	ldrb.w	r3, [sl]
 80086fa:	2b2a      	cmp	r3, #42	; 0x2a
 80086fc:	d015      	beq.n	800872a <_svfiprintf_r+0xf6>
 80086fe:	4654      	mov	r4, sl
 8008700:	2000      	movs	r0, #0
 8008702:	f04f 0c0a 	mov.w	ip, #10
 8008706:	9a07      	ldr	r2, [sp, #28]
 8008708:	4621      	mov	r1, r4
 800870a:	f811 3b01 	ldrb.w	r3, [r1], #1
 800870e:	3b30      	subs	r3, #48	; 0x30
 8008710:	2b09      	cmp	r3, #9
 8008712:	d94e      	bls.n	80087b2 <_svfiprintf_r+0x17e>
 8008714:	b1b0      	cbz	r0, 8008744 <_svfiprintf_r+0x110>
 8008716:	9207      	str	r2, [sp, #28]
 8008718:	e014      	b.n	8008744 <_svfiprintf_r+0x110>
 800871a:	eba0 0308 	sub.w	r3, r0, r8
 800871e:	fa09 f303 	lsl.w	r3, r9, r3
 8008722:	4313      	orrs	r3, r2
 8008724:	46a2      	mov	sl, r4
 8008726:	9304      	str	r3, [sp, #16]
 8008728:	e7d2      	b.n	80086d0 <_svfiprintf_r+0x9c>
 800872a:	9b03      	ldr	r3, [sp, #12]
 800872c:	1d19      	adds	r1, r3, #4
 800872e:	681b      	ldr	r3, [r3, #0]
 8008730:	9103      	str	r1, [sp, #12]
 8008732:	2b00      	cmp	r3, #0
 8008734:	bfbb      	ittet	lt
 8008736:	425b      	neglt	r3, r3
 8008738:	f042 0202 	orrlt.w	r2, r2, #2
 800873c:	9307      	strge	r3, [sp, #28]
 800873e:	9307      	strlt	r3, [sp, #28]
 8008740:	bfb8      	it	lt
 8008742:	9204      	strlt	r2, [sp, #16]
 8008744:	7823      	ldrb	r3, [r4, #0]
 8008746:	2b2e      	cmp	r3, #46	; 0x2e
 8008748:	d10c      	bne.n	8008764 <_svfiprintf_r+0x130>
 800874a:	7863      	ldrb	r3, [r4, #1]
 800874c:	2b2a      	cmp	r3, #42	; 0x2a
 800874e:	d135      	bne.n	80087bc <_svfiprintf_r+0x188>
 8008750:	9b03      	ldr	r3, [sp, #12]
 8008752:	3402      	adds	r4, #2
 8008754:	1d1a      	adds	r2, r3, #4
 8008756:	681b      	ldr	r3, [r3, #0]
 8008758:	9203      	str	r2, [sp, #12]
 800875a:	2b00      	cmp	r3, #0
 800875c:	bfb8      	it	lt
 800875e:	f04f 33ff 	movlt.w	r3, #4294967295
 8008762:	9305      	str	r3, [sp, #20]
 8008764:	f8df a0bc 	ldr.w	sl, [pc, #188]	; 8008824 <_svfiprintf_r+0x1f0>
 8008768:	2203      	movs	r2, #3
 800876a:	4650      	mov	r0, sl
 800876c:	7821      	ldrb	r1, [r4, #0]
 800876e:	f000 f9f7 	bl	8008b60 <memchr>
 8008772:	b140      	cbz	r0, 8008786 <_svfiprintf_r+0x152>
 8008774:	2340      	movs	r3, #64	; 0x40
 8008776:	eba0 000a 	sub.w	r0, r0, sl
 800877a:	fa03 f000 	lsl.w	r0, r3, r0
 800877e:	9b04      	ldr	r3, [sp, #16]
 8008780:	3401      	adds	r4, #1
 8008782:	4303      	orrs	r3, r0
 8008784:	9304      	str	r3, [sp, #16]
 8008786:	f814 1b01 	ldrb.w	r1, [r4], #1
 800878a:	2206      	movs	r2, #6
 800878c:	4826      	ldr	r0, [pc, #152]	; (8008828 <_svfiprintf_r+0x1f4>)
 800878e:	f88d 1028 	strb.w	r1, [sp, #40]	; 0x28
 8008792:	f000 f9e5 	bl	8008b60 <memchr>
 8008796:	2800      	cmp	r0, #0
 8008798:	d038      	beq.n	800880c <_svfiprintf_r+0x1d8>
 800879a:	4b24      	ldr	r3, [pc, #144]	; (800882c <_svfiprintf_r+0x1f8>)
 800879c:	bb1b      	cbnz	r3, 80087e6 <_svfiprintf_r+0x1b2>
 800879e:	9b03      	ldr	r3, [sp, #12]
 80087a0:	3307      	adds	r3, #7
 80087a2:	f023 0307 	bic.w	r3, r3, #7
 80087a6:	3308      	adds	r3, #8
 80087a8:	9303      	str	r3, [sp, #12]
 80087aa:	9b09      	ldr	r3, [sp, #36]	; 0x24
 80087ac:	4433      	add	r3, r6
 80087ae:	9309      	str	r3, [sp, #36]	; 0x24
 80087b0:	e767      	b.n	8008682 <_svfiprintf_r+0x4e>
 80087b2:	460c      	mov	r4, r1
 80087b4:	2001      	movs	r0, #1
 80087b6:	fb0c 3202 	mla	r2, ip, r2, r3
 80087ba:	e7a5      	b.n	8008708 <_svfiprintf_r+0xd4>
 80087bc:	2300      	movs	r3, #0
 80087be:	f04f 0c0a 	mov.w	ip, #10
 80087c2:	4619      	mov	r1, r3
 80087c4:	3401      	adds	r4, #1
 80087c6:	9305      	str	r3, [sp, #20]
 80087c8:	4620      	mov	r0, r4
 80087ca:	f810 2b01 	ldrb.w	r2, [r0], #1
 80087ce:	3a30      	subs	r2, #48	; 0x30
 80087d0:	2a09      	cmp	r2, #9
 80087d2:	d903      	bls.n	80087dc <_svfiprintf_r+0x1a8>
 80087d4:	2b00      	cmp	r3, #0
 80087d6:	d0c5      	beq.n	8008764 <_svfiprintf_r+0x130>
 80087d8:	9105      	str	r1, [sp, #20]
 80087da:	e7c3      	b.n	8008764 <_svfiprintf_r+0x130>
 80087dc:	4604      	mov	r4, r0
 80087de:	2301      	movs	r3, #1
 80087e0:	fb0c 2101 	mla	r1, ip, r1, r2
 80087e4:	e7f0      	b.n	80087c8 <_svfiprintf_r+0x194>
 80087e6:	ab03      	add	r3, sp, #12
 80087e8:	9300      	str	r3, [sp, #0]
 80087ea:	462a      	mov	r2, r5
 80087ec:	4638      	mov	r0, r7
 80087ee:	4b10      	ldr	r3, [pc, #64]	; (8008830 <_svfiprintf_r+0x1fc>)
 80087f0:	a904      	add	r1, sp, #16
 80087f2:	f3af 8000 	nop.w
 80087f6:	1c42      	adds	r2, r0, #1
 80087f8:	4606      	mov	r6, r0
 80087fa:	d1d6      	bne.n	80087aa <_svfiprintf_r+0x176>
 80087fc:	89ab      	ldrh	r3, [r5, #12]
 80087fe:	065b      	lsls	r3, r3, #25
 8008800:	f53f af2c 	bmi.w	800865c <_svfiprintf_r+0x28>
 8008804:	9809      	ldr	r0, [sp, #36]	; 0x24
 8008806:	b01d      	add	sp, #116	; 0x74
 8008808:	e8bd 8ff0 	ldmia.w	sp!, {r4, r5, r6, r7, r8, r9, sl, fp, pc}
 800880c:	ab03      	add	r3, sp, #12
 800880e:	9300      	str	r3, [sp, #0]
 8008810:	462a      	mov	r2, r5
 8008812:	4638      	mov	r0, r7
 8008814:	4b06      	ldr	r3, [pc, #24]	; (8008830 <_svfiprintf_r+0x1fc>)
 8008816:	a904      	add	r1, sp, #16
 8008818:	f000 f87c 	bl	8008914 <_printf_i>
 800881c:	e7eb      	b.n	80087f6 <_svfiprintf_r+0x1c2>
 800881e:	bf00      	nop
 8008820:	08008ec8 	.word	0x08008ec8
 8008824:	08008ece 	.word	0x08008ece
 8008828:	08008ed2 	.word	0x08008ed2
 800882c:	00000000 	.word	0x00000000
 8008830:	0800857d 	.word	0x0800857d

08008834 <_printf_common>:
 8008834:	e92d 47f0 	stmdb	sp!, {r4, r5, r6, r7, r8, r9, sl, lr}
 8008838:	4616      	mov	r6, r2
 800883a:	4699      	mov	r9, r3
 800883c:	688a      	ldr	r2, [r1, #8]
 800883e:	690b      	ldr	r3, [r1, #16]
 8008840:	4607      	mov	r7, r0
 8008842:	4293      	cmp	r3, r2
 8008844:	bfb8      	it	lt
 8008846:	4613      	movlt	r3, r2
 8008848:	6033      	str	r3, [r6, #0]
 800884a:	f891 2043 	ldrb.w	r2, [r1, #67]	; 0x43
 800884e:	460c      	mov	r4, r1
 8008850:	f8dd 8020 	ldr.w	r8, [sp, #32]
 8008854:	b10a      	cbz	r2, 800885a <_printf_common+0x26>
 8008856:	3301      	adds	r3, #1
 8008858:	6033      	str	r3, [r6, #0]
 800885a:	6823      	ldr	r3, [r4, #0]
 800885c:	0699      	lsls	r1, r3, #26
 800885e:	bf42      	ittt	mi
 8008860:	6833      	ldrmi	r3, [r6, #0]
 8008862:	3302      	addmi	r3, #2
 8008864:	6033      	strmi	r3, [r6, #0]
 8008866:	6825      	ldr	r5, [r4, #0]
 8008868:	f015 0506 	ands.w	r5, r5, #6
 800886c:	d106      	bne.n	800887c <_printf_common+0x48>
 800886e:	f104 0a19 	add.w	sl, r4, #25
 8008872:	68e3      	ldr	r3, [r4, #12]
 8008874:	6832      	ldr	r2, [r6, #0]
 8008876:	1a9b      	subs	r3, r3, r2
 8008878:	42ab      	cmp	r3, r5
 800887a:	dc28      	bgt.n	80088ce <_printf_common+0x9a>
 800887c:	f894 2043 	ldrb.w	r2, [r4, #67]	; 0x43
 8008880:	1e13      	subs	r3, r2, #0
 8008882:	6822      	ldr	r2, [r4, #0]
 8008884:	bf18      	it	ne
 8008886:	2301      	movne	r3, #1
 8008888:	0692      	lsls	r2, r2, #26
 800888a:	d42d      	bmi.n	80088e8 <_printf_common+0xb4>
 800888c:	4649      	mov	r1, r9
 800888e:	4638      	mov	r0, r7
 8008890:	f104 0243 	add.w	r2, r4, #67	; 0x43
 8008894:	47c0      	blx	r8
 8008896:	3001      	adds	r0, #1
 8008898:	d020      	beq.n	80088dc <_printf_common+0xa8>
 800889a:	6823      	ldr	r3, [r4, #0]
 800889c:	68e5      	ldr	r5, [r4, #12]
 800889e:	f003 0306 	and.w	r3, r3, #6
 80088a2:	2b04      	cmp	r3, #4
 80088a4:	bf18      	it	ne
 80088a6:	2500      	movne	r5, #0
 80088a8:	6832      	ldr	r2, [r6, #0]
 80088aa:	f04f 0600 	mov.w	r6, #0
 80088ae:	68a3      	ldr	r3, [r4, #8]
 80088b0:	bf08      	it	eq
 80088b2:	1aad      	subeq	r5, r5, r2
 80088b4:	6922      	ldr	r2, [r4, #16]
 80088b6:	bf08      	it	eq
 80088b8:	ea25 75e5 	biceq.w	r5, r5, r5, asr #31
 80088bc:	4293      	cmp	r3, r2
 80088be:	bfc4      	itt	gt
 80088c0:	1a9b      	subgt	r3, r3, r2
 80088c2:	18ed      	addgt	r5, r5, r3
 80088c4:	341a      	adds	r4, #26
 80088c6:	42b5      	cmp	r5, r6
 80088c8:	d11a      	bne.n	8008900 <_printf_common+0xcc>
 80088ca:	2000      	movs	r0, #0
 80088cc:	e008      	b.n	80088e0 <_printf_common+0xac>
 80088ce:	2301      	movs	r3, #1
 80088d0:	4652      	mov	r2, sl
 80088d2:	4649      	mov	r1, r9
 80088d4:	4638      	mov	r0, r7
 80088d6:	47c0      	blx	r8
 80088d8:	3001      	adds	r0, #1
 80088da:	d103      	bne.n	80088e4 <_printf_common+0xb0>
 80088dc:	f04f 30ff 	mov.w	r0, #4294967295
 80088e0:	e8bd 87f0 	ldmia.w	sp!, {r4, r5, r6, r7, r8, r9, sl, pc}
 80088e4:	3501      	adds	r5, #1
 80088e6:	e7c4      	b.n	8008872 <_printf_common+0x3e>
 80088e8:	2030      	movs	r0, #48	; 0x30
 80088ea:	18e1      	adds	r1, r4, r3
 80088ec:	f881 0043 	strb.w	r0, [r1, #67]	; 0x43
 80088f0:	1c5a      	adds	r2, r3, #1
 80088f2:	f894 1045 	ldrb.w	r1, [r4, #69]	; 0x45
 80088f6:	4422      	add	r2, r4
 80088f8:	3302      	adds	r3, #2
 80088fa:	f882 1043 	strb.w	r1, [r2, #67]	; 0x43
 80088fe:	e7c5      	b.n	800888c <_printf_common+0x58>
 8008900:	2301      	movs	r3, #1
 8008902:	4622      	mov	r2, r4
 8008904:	4649      	mov	r1, r9
 8008906:	4638      	mov	r0, r7
 8008908:	47c0      	blx	r8
 800890a:	3001      	adds	r0, #1
 800890c:	d0e6      	beq.n	80088dc <_printf_common+0xa8>
 800890e:	3601      	adds	r6, #1
 8008910:	e7d9      	b.n	80088c6 <_printf_common+0x92>
	...

08008914 <_printf_i>:
 8008914:	e92d 47ff 	stmdb	sp!, {r0, r1, r2, r3, r4, r5, r6, r7, r8, r9, sl, lr}
 8008918:	7e0f      	ldrb	r7, [r1, #24]
 800891a:	4691      	mov	r9, r2
 800891c:	2f78      	cmp	r7, #120	; 0x78
 800891e:	4680      	mov	r8, r0
 8008920:	460c      	mov	r4, r1
 8008922:	469a      	mov	sl, r3
 8008924:	9d0c      	ldr	r5, [sp, #48]	; 0x30
 8008926:	f101 0243 	add.w	r2, r1, #67	; 0x43
 800892a:	d807      	bhi.n	800893c <_printf_i+0x28>
 800892c:	2f62      	cmp	r7, #98	; 0x62
 800892e:	d80a      	bhi.n	8008946 <_printf_i+0x32>
 8008930:	2f00      	cmp	r7, #0
 8008932:	f000 80d9 	beq.w	8008ae8 <_printf_i+0x1d4>
 8008936:	2f58      	cmp	r7, #88	; 0x58
 8008938:	f000 80a4 	beq.w	8008a84 <_printf_i+0x170>
 800893c:	f104 0542 	add.w	r5, r4, #66	; 0x42
 8008940:	f884 7042 	strb.w	r7, [r4, #66]	; 0x42
 8008944:	e03a      	b.n	80089bc <_printf_i+0xa8>
 8008946:	f1a7 0363 	sub.w	r3, r7, #99	; 0x63
 800894a:	2b15      	cmp	r3, #21
 800894c:	d8f6      	bhi.n	800893c <_printf_i+0x28>
 800894e:	a101      	add	r1, pc, #4	; (adr r1, 8008954 <_printf_i+0x40>)
 8008950:	f851 f023 	ldr.w	pc, [r1, r3, lsl #2]
 8008954:	080089ad 	.word	0x080089ad
 8008958:	080089c1 	.word	0x080089c1
 800895c:	0800893d 	.word	0x0800893d
 8008960:	0800893d 	.word	0x0800893d
 8008964:	0800893d 	.word	0x0800893d
 8008968:	0800893d 	.word	0x0800893d
 800896c:	080089c1 	.word	0x080089c1
 8008970:	0800893d 	.word	0x0800893d
 8008974:	0800893d 	.word	0x0800893d
 8008978:	0800893d 	.word	0x0800893d
 800897c:	0800893d 	.word	0x0800893d
 8008980:	08008acf 	.word	0x08008acf
 8008984:	080089f1 	.word	0x080089f1
 8008988:	08008ab1 	.word	0x08008ab1
 800898c:	0800893d 	.word	0x0800893d
 8008990:	0800893d 	.word	0x0800893d
 8008994:	08008af1 	.word	0x08008af1
 8008998:	0800893d 	.word	0x0800893d
 800899c:	080089f1 	.word	0x080089f1
 80089a0:	0800893d 	.word	0x0800893d
 80089a4:	0800893d 	.word	0x0800893d
 80089a8:	08008ab9 	.word	0x08008ab9
 80089ac:	682b      	ldr	r3, [r5, #0]
 80089ae:	1d1a      	adds	r2, r3, #4
 80089b0:	681b      	ldr	r3, [r3, #0]
 80089b2:	602a      	str	r2, [r5, #0]
 80089b4:	f104 0542 	add.w	r5, r4, #66	; 0x42
 80089b8:	f884 3042 	strb.w	r3, [r4, #66]	; 0x42
 80089bc:	2301      	movs	r3, #1
 80089be:	e0a4      	b.n	8008b0a <_printf_i+0x1f6>
 80089c0:	6820      	ldr	r0, [r4, #0]
 80089c2:	6829      	ldr	r1, [r5, #0]
 80089c4:	0606      	lsls	r6, r0, #24
 80089c6:	f101 0304 	add.w	r3, r1, #4
 80089ca:	d50a      	bpl.n	80089e2 <_printf_i+0xce>
 80089cc:	680e      	ldr	r6, [r1, #0]
 80089ce:	602b      	str	r3, [r5, #0]
 80089d0:	2e00      	cmp	r6, #0
 80089d2:	da03      	bge.n	80089dc <_printf_i+0xc8>
 80089d4:	232d      	movs	r3, #45	; 0x2d
 80089d6:	4276      	negs	r6, r6
 80089d8:	f884 3043 	strb.w	r3, [r4, #67]	; 0x43
 80089dc:	230a      	movs	r3, #10
 80089de:	485e      	ldr	r0, [pc, #376]	; (8008b58 <_printf_i+0x244>)
 80089e0:	e019      	b.n	8008a16 <_printf_i+0x102>
 80089e2:	680e      	ldr	r6, [r1, #0]
 80089e4:	f010 0f40 	tst.w	r0, #64	; 0x40
 80089e8:	602b      	str	r3, [r5, #0]
 80089ea:	bf18      	it	ne
 80089ec:	b236      	sxthne	r6, r6
 80089ee:	e7ef      	b.n	80089d0 <_printf_i+0xbc>
 80089f0:	682b      	ldr	r3, [r5, #0]
 80089f2:	6820      	ldr	r0, [r4, #0]
 80089f4:	1d19      	adds	r1, r3, #4
 80089f6:	6029      	str	r1, [r5, #0]
 80089f8:	0601      	lsls	r1, r0, #24
 80089fa:	d501      	bpl.n	8008a00 <_printf_i+0xec>
 80089fc:	681e      	ldr	r6, [r3, #0]
 80089fe:	e002      	b.n	8008a06 <_printf_i+0xf2>
 8008a00:	0646      	lsls	r6, r0, #25
 8008a02:	d5fb      	bpl.n	80089fc <_printf_i+0xe8>
 8008a04:	881e      	ldrh	r6, [r3, #0]
 8008a06:	2f6f      	cmp	r7, #111	; 0x6f
 8008a08:	bf0c      	ite	eq
 8008a0a:	2308      	moveq	r3, #8
 8008a0c:	230a      	movne	r3, #10
 8008a0e:	4852      	ldr	r0, [pc, #328]	; (8008b58 <_printf_i+0x244>)
 8008a10:	2100      	movs	r1, #0
 8008a12:	f884 1043 	strb.w	r1, [r4, #67]	; 0x43
 8008a16:	6865      	ldr	r5, [r4, #4]
 8008a18:	2d00      	cmp	r5, #0
 8008a1a:	bfa8      	it	ge
 8008a1c:	6821      	ldrge	r1, [r4, #0]
 8008a1e:	60a5      	str	r5, [r4, #8]
 8008a20:	bfa4      	itt	ge
 8008a22:	f021 0104 	bicge.w	r1, r1, #4
 8008a26:	6021      	strge	r1, [r4, #0]
 8008a28:	b90e      	cbnz	r6, 8008a2e <_printf_i+0x11a>
 8008a2a:	2d00      	cmp	r5, #0
 8008a2c:	d04d      	beq.n	8008aca <_printf_i+0x1b6>
 8008a2e:	4615      	mov	r5, r2
 8008a30:	fbb6 f1f3 	udiv	r1, r6, r3
 8008a34:	fb03 6711 	mls	r7, r3, r1, r6
 8008a38:	5dc7      	ldrb	r7, [r0, r7]
 8008a3a:	f805 7d01 	strb.w	r7, [r5, #-1]!
 8008a3e:	4637      	mov	r7, r6
 8008a40:	42bb      	cmp	r3, r7
 8008a42:	460e      	mov	r6, r1
 8008a44:	d9f4      	bls.n	8008a30 <_printf_i+0x11c>
 8008a46:	2b08      	cmp	r3, #8
 8008a48:	d10b      	bne.n	8008a62 <_printf_i+0x14e>
 8008a4a:	6823      	ldr	r3, [r4, #0]
 8008a4c:	07de      	lsls	r6, r3, #31
 8008a4e:	d508      	bpl.n	8008a62 <_printf_i+0x14e>
 8008a50:	6923      	ldr	r3, [r4, #16]
 8008a52:	6861      	ldr	r1, [r4, #4]
 8008a54:	4299      	cmp	r1, r3
 8008a56:	bfde      	ittt	le
 8008a58:	2330      	movle	r3, #48	; 0x30
 8008a5a:	f805 3c01 	strble.w	r3, [r5, #-1]
 8008a5e:	f105 35ff 	addle.w	r5, r5, #4294967295
 8008a62:	1b52      	subs	r2, r2, r5
 8008a64:	6122      	str	r2, [r4, #16]
 8008a66:	464b      	mov	r3, r9
 8008a68:	4621      	mov	r1, r4
 8008a6a:	4640      	mov	r0, r8
 8008a6c:	f8cd a000 	str.w	sl, [sp]
 8008a70:	aa03      	add	r2, sp, #12
 8008a72:	f7ff fedf 	bl	8008834 <_printf_common>
 8008a76:	3001      	adds	r0, #1
 8008a78:	d14c      	bne.n	8008b14 <_printf_i+0x200>
 8008a7a:	f04f 30ff 	mov.w	r0, #4294967295
 8008a7e:	b004      	add	sp, #16
 8008a80:	e8bd 87f0 	ldmia.w	sp!, {r4, r5, r6, r7, r8, r9, sl, pc}
 8008a84:	4834      	ldr	r0, [pc, #208]	; (8008b58 <_printf_i+0x244>)
 8008a86:	f881 7045 	strb.w	r7, [r1, #69]	; 0x45
 8008a8a:	6829      	ldr	r1, [r5, #0]
 8008a8c:	6823      	ldr	r3, [r4, #0]
 8008a8e:	f851 6b04 	ldr.w	r6, [r1], #4
 8008a92:	6029      	str	r1, [r5, #0]
 8008a94:	061d      	lsls	r5, r3, #24
 8008a96:	d514      	bpl.n	8008ac2 <_printf_i+0x1ae>
 8008a98:	07df      	lsls	r7, r3, #31
 8008a9a:	bf44      	itt	mi
 8008a9c:	f043 0320 	orrmi.w	r3, r3, #32
 8008aa0:	6023      	strmi	r3, [r4, #0]
 8008aa2:	b91e      	cbnz	r6, 8008aac <_printf_i+0x198>
 8008aa4:	6823      	ldr	r3, [r4, #0]
 8008aa6:	f023 0320 	bic.w	r3, r3, #32
 8008aaa:	6023      	str	r3, [r4, #0]
 8008aac:	2310      	movs	r3, #16
 8008aae:	e7af      	b.n	8008a10 <_printf_i+0xfc>
 8008ab0:	6823      	ldr	r3, [r4, #0]
 8008ab2:	f043 0320 	orr.w	r3, r3, #32
 8008ab6:	6023      	str	r3, [r4, #0]
 8008ab8:	2378      	movs	r3, #120	; 0x78
 8008aba:	4828      	ldr	r0, [pc, #160]	; (8008b5c <_printf_i+0x248>)
 8008abc:	f884 3045 	strb.w	r3, [r4, #69]	; 0x45
 8008ac0:	e7e3      	b.n	8008a8a <_printf_i+0x176>
 8008ac2:	0659      	lsls	r1, r3, #25
 8008ac4:	bf48      	it	mi
 8008ac6:	b2b6      	uxthmi	r6, r6
 8008ac8:	e7e6      	b.n	8008a98 <_printf_i+0x184>
 8008aca:	4615      	mov	r5, r2
 8008acc:	e7bb      	b.n	8008a46 <_printf_i+0x132>
 8008ace:	682b      	ldr	r3, [r5, #0]
 8008ad0:	6826      	ldr	r6, [r4, #0]
 8008ad2:	1d18      	adds	r0, r3, #4
 8008ad4:	6961      	ldr	r1, [r4, #20]
 8008ad6:	6028      	str	r0, [r5, #0]
 8008ad8:	0635      	lsls	r5, r6, #24
 8008ada:	681b      	ldr	r3, [r3, #0]
 8008adc:	d501      	bpl.n	8008ae2 <_printf_i+0x1ce>
 8008ade:	6019      	str	r1, [r3, #0]
 8008ae0:	e002      	b.n	8008ae8 <_printf_i+0x1d4>
 8008ae2:	0670      	lsls	r0, r6, #25
 8008ae4:	d5fb      	bpl.n	8008ade <_printf_i+0x1ca>
 8008ae6:	8019      	strh	r1, [r3, #0]
 8008ae8:	2300      	movs	r3, #0
 8008aea:	4615      	mov	r5, r2
 8008aec:	6123      	str	r3, [r4, #16]
 8008aee:	e7ba      	b.n	8008a66 <_printf_i+0x152>
 8008af0:	682b      	ldr	r3, [r5, #0]
 8008af2:	2100      	movs	r1, #0
 8008af4:	1d1a      	adds	r2, r3, #4
 8008af6:	602a      	str	r2, [r5, #0]
 8008af8:	681d      	ldr	r5, [r3, #0]
 8008afa:	6862      	ldr	r2, [r4, #4]
 8008afc:	4628      	mov	r0, r5
 8008afe:	f000 f82f 	bl	8008b60 <memchr>
 8008b02:	b108      	cbz	r0, 8008b08 <_printf_i+0x1f4>
 8008b04:	1b40      	subs	r0, r0, r5
 8008b06:	6060      	str	r0, [r4, #4]
 8008b08:	6863      	ldr	r3, [r4, #4]
 8008b0a:	6123      	str	r3, [r4, #16]
 8008b0c:	2300      	movs	r3, #0
 8008b0e:	f884 3043 	strb.w	r3, [r4, #67]	; 0x43
 8008b12:	e7a8      	b.n	8008a66 <_printf_i+0x152>
 8008b14:	462a      	mov	r2, r5
 8008b16:	4649      	mov	r1, r9
 8008b18:	4640      	mov	r0, r8
 8008b1a:	6923      	ldr	r3, [r4, #16]
 8008b1c:	47d0      	blx	sl
 8008b1e:	3001      	adds	r0, #1
 8008b20:	d0ab      	beq.n	8008a7a <_printf_i+0x166>
 8008b22:	6823      	ldr	r3, [r4, #0]
 8008b24:	079b      	lsls	r3, r3, #30
 8008b26:	d413      	bmi.n	8008b50 <_printf_i+0x23c>
 8008b28:	68e0      	ldr	r0, [r4, #12]
 8008b2a:	9b03      	ldr	r3, [sp, #12]
 8008b2c:	4298      	cmp	r0, r3
 8008b2e:	bfb8      	it	lt
 8008b30:	4618      	movlt	r0, r3
 8008b32:	e7a4      	b.n	8008a7e <_printf_i+0x16a>
 8008b34:	2301      	movs	r3, #1
 8008b36:	4632      	mov	r2, r6
 8008b38:	4649      	mov	r1, r9
 8008b3a:	4640      	mov	r0, r8
 8008b3c:	47d0      	blx	sl
 8008b3e:	3001      	adds	r0, #1
 8008b40:	d09b      	beq.n	8008a7a <_printf_i+0x166>
 8008b42:	3501      	adds	r5, #1
 8008b44:	68e3      	ldr	r3, [r4, #12]
 8008b46:	9903      	ldr	r1, [sp, #12]
 8008b48:	1a5b      	subs	r3, r3, r1
 8008b4a:	42ab      	cmp	r3, r5
 8008b4c:	dcf2      	bgt.n	8008b34 <_printf_i+0x220>
 8008b4e:	e7eb      	b.n	8008b28 <_printf_i+0x214>
 8008b50:	2500      	movs	r5, #0
 8008b52:	f104 0619 	add.w	r6, r4, #25
 8008b56:	e7f5      	b.n	8008b44 <_printf_i+0x230>
 8008b58:	08008ed9 	.word	0x08008ed9
 8008b5c:	08008eea 	.word	0x08008eea

08008b60 <memchr>:
 8008b60:	4603      	mov	r3, r0
 8008b62:	b510      	push	{r4, lr}
 8008b64:	b2c9      	uxtb	r1, r1
 8008b66:	4402      	add	r2, r0
 8008b68:	4293      	cmp	r3, r2
 8008b6a:	4618      	mov	r0, r3
 8008b6c:	d101      	bne.n	8008b72 <memchr+0x12>
 8008b6e:	2000      	movs	r0, #0
 8008b70:	e003      	b.n	8008b7a <memchr+0x1a>
 8008b72:	7804      	ldrb	r4, [r0, #0]
 8008b74:	3301      	adds	r3, #1
 8008b76:	428c      	cmp	r4, r1
 8008b78:	d1f6      	bne.n	8008b68 <memchr+0x8>
 8008b7a:	bd10      	pop	{r4, pc}

08008b7c <memmove>:
 8008b7c:	4288      	cmp	r0, r1
 8008b7e:	b510      	push	{r4, lr}
 8008b80:	eb01 0402 	add.w	r4, r1, r2
 8008b84:	d902      	bls.n	8008b8c <memmove+0x10>
 8008b86:	4284      	cmp	r4, r0
 8008b88:	4623      	mov	r3, r4
 8008b8a:	d807      	bhi.n	8008b9c <memmove+0x20>
 8008b8c:	1e43      	subs	r3, r0, #1
 8008b8e:	42a1      	cmp	r1, r4
 8008b90:	d008      	beq.n	8008ba4 <memmove+0x28>
 8008b92:	f811 2b01 	ldrb.w	r2, [r1], #1
 8008b96:	f803 2f01 	strb.w	r2, [r3, #1]!
 8008b9a:	e7f8      	b.n	8008b8e <memmove+0x12>
 8008b9c:	4601      	mov	r1, r0
 8008b9e:	4402      	add	r2, r0
 8008ba0:	428a      	cmp	r2, r1
 8008ba2:	d100      	bne.n	8008ba6 <memmove+0x2a>
 8008ba4:	bd10      	pop	{r4, pc}
 8008ba6:	f813 4d01 	ldrb.w	r4, [r3, #-1]!
 8008baa:	f802 4d01 	strb.w	r4, [r2, #-1]!
 8008bae:	e7f7      	b.n	8008ba0 <memmove+0x24>

08008bb0 <_free_r>:
 8008bb0:	b538      	push	{r3, r4, r5, lr}
 8008bb2:	4605      	mov	r5, r0
 8008bb4:	2900      	cmp	r1, #0
 8008bb6:	d040      	beq.n	8008c3a <_free_r+0x8a>
 8008bb8:	f851 3c04 	ldr.w	r3, [r1, #-4]
 8008bbc:	1f0c      	subs	r4, r1, #4
 8008bbe:	2b00      	cmp	r3, #0
 8008bc0:	bfb8      	it	lt
 8008bc2:	18e4      	addlt	r4, r4, r3
 8008bc4:	f000 f910 	bl	8008de8 <__malloc_lock>
 8008bc8:	4a1c      	ldr	r2, [pc, #112]	; (8008c3c <_free_r+0x8c>)
 8008bca:	6813      	ldr	r3, [r2, #0]
 8008bcc:	b933      	cbnz	r3, 8008bdc <_free_r+0x2c>
 8008bce:	6063      	str	r3, [r4, #4]
 8008bd0:	6014      	str	r4, [r2, #0]
 8008bd2:	4628      	mov	r0, r5
 8008bd4:	e8bd 4038 	ldmia.w	sp!, {r3, r4, r5, lr}
 8008bd8:	f000 b90c 	b.w	8008df4 <__malloc_unlock>
 8008bdc:	42a3      	cmp	r3, r4
 8008bde:	d908      	bls.n	8008bf2 <_free_r+0x42>
 8008be0:	6820      	ldr	r0, [r4, #0]
 8008be2:	1821      	adds	r1, r4, r0
 8008be4:	428b      	cmp	r3, r1
 8008be6:	bf01      	itttt	eq
 8008be8:	6819      	ldreq	r1, [r3, #0]
 8008bea:	685b      	ldreq	r3, [r3, #4]
 8008bec:	1809      	addeq	r1, r1, r0
 8008bee:	6021      	streq	r1, [r4, #0]
 8008bf0:	e7ed      	b.n	8008bce <_free_r+0x1e>
 8008bf2:	461a      	mov	r2, r3
 8008bf4:	685b      	ldr	r3, [r3, #4]
 8008bf6:	b10b      	cbz	r3, 8008bfc <_free_r+0x4c>
 8008bf8:	42a3      	cmp	r3, r4
 8008bfa:	d9fa      	bls.n	8008bf2 <_free_r+0x42>
 8008bfc:	6811      	ldr	r1, [r2, #0]
 8008bfe:	1850      	adds	r0, r2, r1
 8008c00:	42a0      	cmp	r0, r4
 8008c02:	d10b      	bne.n	8008c1c <_free_r+0x6c>
 8008c04:	6820      	ldr	r0, [r4, #0]
 8008c06:	4401      	add	r1, r0
 8008c08:	1850      	adds	r0, r2, r1
 8008c0a:	4283      	cmp	r3, r0
 8008c0c:	6011      	str	r1, [r2, #0]
 8008c0e:	d1e0      	bne.n	8008bd2 <_free_r+0x22>
 8008c10:	6818      	ldr	r0, [r3, #0]
 8008c12:	685b      	ldr	r3, [r3, #4]
 8008c14:	4401      	add	r1, r0
 8008c16:	6011      	str	r1, [r2, #0]
 8008c18:	6053      	str	r3, [r2, #4]
 8008c1a:	e7da      	b.n	8008bd2 <_free_r+0x22>
 8008c1c:	d902      	bls.n	8008c24 <_free_r+0x74>
 8008c1e:	230c      	movs	r3, #12
 8008c20:	602b      	str	r3, [r5, #0]
 8008c22:	e7d6      	b.n	8008bd2 <_free_r+0x22>
 8008c24:	6820      	ldr	r0, [r4, #0]
 8008c26:	1821      	adds	r1, r4, r0
 8008c28:	428b      	cmp	r3, r1
 8008c2a:	bf01      	itttt	eq
 8008c2c:	6819      	ldreq	r1, [r3, #0]
 8008c2e:	685b      	ldreq	r3, [r3, #4]
 8008c30:	1809      	addeq	r1, r1, r0
 8008c32:	6021      	streq	r1, [r4, #0]
 8008c34:	6063      	str	r3, [r4, #4]
 8008c36:	6054      	str	r4, [r2, #4]
 8008c38:	e7cb      	b.n	8008bd2 <_free_r+0x22>
 8008c3a:	bd38      	pop	{r3, r4, r5, pc}
 8008c3c:	20001bf4 	.word	0x20001bf4

08008c40 <sbrk_aligned>:
 8008c40:	b570      	push	{r4, r5, r6, lr}
 8008c42:	4e0e      	ldr	r6, [pc, #56]	; (8008c7c <sbrk_aligned+0x3c>)
 8008c44:	460c      	mov	r4, r1
 8008c46:	6831      	ldr	r1, [r6, #0]
 8008c48:	4605      	mov	r5, r0
 8008c4a:	b911      	cbnz	r1, 8008c52 <sbrk_aligned+0x12>
 8008c4c:	f000 f8bc 	bl	8008dc8 <_sbrk_r>
 8008c50:	6030      	str	r0, [r6, #0]
 8008c52:	4621      	mov	r1, r4
 8008c54:	4628      	mov	r0, r5
 8008c56:	f000 f8b7 	bl	8008dc8 <_sbrk_r>
 8008c5a:	1c43      	adds	r3, r0, #1
 8008c5c:	d00a      	beq.n	8008c74 <sbrk_aligned+0x34>
 8008c5e:	1cc4      	adds	r4, r0, #3
 8008c60:	f024 0403 	bic.w	r4, r4, #3
 8008c64:	42a0      	cmp	r0, r4
 8008c66:	d007      	beq.n	8008c78 <sbrk_aligned+0x38>
 8008c68:	1a21      	subs	r1, r4, r0
 8008c6a:	4628      	mov	r0, r5
 8008c6c:	f000 f8ac 	bl	8008dc8 <_sbrk_r>
 8008c70:	3001      	adds	r0, #1
 8008c72:	d101      	bne.n	8008c78 <sbrk_aligned+0x38>
 8008c74:	f04f 34ff 	mov.w	r4, #4294967295
 8008c78:	4620      	mov	r0, r4
 8008c7a:	bd70      	pop	{r4, r5, r6, pc}
 8008c7c:	20001bf8 	.word	0x20001bf8

08008c80 <_malloc_r>:
 8008c80:	e92d 41f0 	stmdb	sp!, {r4, r5, r6, r7, r8, lr}
 8008c84:	1ccd      	adds	r5, r1, #3
 8008c86:	f025 0503 	bic.w	r5, r5, #3
 8008c8a:	3508      	adds	r5, #8
 8008c8c:	2d0c      	cmp	r5, #12
 8008c8e:	bf38      	it	cc
 8008c90:	250c      	movcc	r5, #12
 8008c92:	2d00      	cmp	r5, #0
 8008c94:	4607      	mov	r7, r0
 8008c96:	db01      	blt.n	8008c9c <_malloc_r+0x1c>
 8008c98:	42a9      	cmp	r1, r5
 8008c9a:	d905      	bls.n	8008ca8 <_malloc_r+0x28>
 8008c9c:	230c      	movs	r3, #12
 8008c9e:	2600      	movs	r6, #0
 8008ca0:	603b      	str	r3, [r7, #0]
 8008ca2:	4630      	mov	r0, r6
 8008ca4:	e8bd 81f0 	ldmia.w	sp!, {r4, r5, r6, r7, r8, pc}
 8008ca8:	4e2e      	ldr	r6, [pc, #184]	; (8008d64 <_malloc_r+0xe4>)
 8008caa:	f000 f89d 	bl	8008de8 <__malloc_lock>
 8008cae:	6833      	ldr	r3, [r6, #0]
 8008cb0:	461c      	mov	r4, r3
 8008cb2:	bb34      	cbnz	r4, 8008d02 <_malloc_r+0x82>
 8008cb4:	4629      	mov	r1, r5
 8008cb6:	4638      	mov	r0, r7
 8008cb8:	f7ff ffc2 	bl	8008c40 <sbrk_aligned>
 8008cbc:	1c43      	adds	r3, r0, #1
 8008cbe:	4604      	mov	r4, r0
 8008cc0:	d14d      	bne.n	8008d5e <_malloc_r+0xde>
 8008cc2:	6834      	ldr	r4, [r6, #0]
 8008cc4:	4626      	mov	r6, r4
 8008cc6:	2e00      	cmp	r6, #0
 8008cc8:	d140      	bne.n	8008d4c <_malloc_r+0xcc>
 8008cca:	6823      	ldr	r3, [r4, #0]
 8008ccc:	4631      	mov	r1, r6
 8008cce:	4638      	mov	r0, r7
 8008cd0:	eb04 0803 	add.w	r8, r4, r3
 8008cd4:	f000 f878 	bl	8008dc8 <_sbrk_r>
 8008cd8:	4580      	cmp	r8, r0
 8008cda:	d13a      	bne.n	8008d52 <_malloc_r+0xd2>
 8008cdc:	6821      	ldr	r1, [r4, #0]
 8008cde:	3503      	adds	r5, #3
 8008ce0:	1a6d      	subs	r5, r5, r1
 8008ce2:	f025 0503 	bic.w	r5, r5, #3
 8008ce6:	3508      	adds	r5, #8
 8008ce8:	2d0c      	cmp	r5, #12
 8008cea:	bf38      	it	cc
 8008cec:	250c      	movcc	r5, #12
 8008cee:	4638      	mov	r0, r7
 8008cf0:	4629      	mov	r1, r5
 8008cf2:	f7ff ffa5 	bl	8008c40 <sbrk_aligned>
 8008cf6:	3001      	adds	r0, #1
 8008cf8:	d02b      	beq.n	8008d52 <_malloc_r+0xd2>
 8008cfa:	6823      	ldr	r3, [r4, #0]
 8008cfc:	442b      	add	r3, r5
 8008cfe:	6023      	str	r3, [r4, #0]
 8008d00:	e00e      	b.n	8008d20 <_malloc_r+0xa0>
 8008d02:	6822      	ldr	r2, [r4, #0]
 8008d04:	1b52      	subs	r2, r2, r5
 8008d06:	d41e      	bmi.n	8008d46 <_malloc_r+0xc6>
 8008d08:	2a0b      	cmp	r2, #11
 8008d0a:	d916      	bls.n	8008d3a <_malloc_r+0xba>
 8008d0c:	1961      	adds	r1, r4, r5
 8008d0e:	42a3      	cmp	r3, r4
 8008d10:	6025      	str	r5, [r4, #0]
 8008d12:	bf18      	it	ne
 8008d14:	6059      	strne	r1, [r3, #4]
 8008d16:	6863      	ldr	r3, [r4, #4]
 8008d18:	bf08      	it	eq
 8008d1a:	6031      	streq	r1, [r6, #0]
 8008d1c:	5162      	str	r2, [r4, r5]
 8008d1e:	604b      	str	r3, [r1, #4]
 8008d20:	4638      	mov	r0, r7
 8008d22:	f104 060b 	add.w	r6, r4, #11
 8008d26:	f000 f865 	bl	8008df4 <__malloc_unlock>
 8008d2a:	f026 0607 	bic.w	r6, r6, #7
 8008d2e:	1d23      	adds	r3, r4, #4
 8008d30:	1af2      	subs	r2, r6, r3
 8008d32:	d0b6      	beq.n	8008ca2 <_malloc_r+0x22>
 8008d34:	1b9b      	subs	r3, r3, r6
 8008d36:	50a3      	str	r3, [r4, r2]
 8008d38:	e7b3      	b.n	8008ca2 <_malloc_r+0x22>
 8008d3a:	6862      	ldr	r2, [r4, #4]
 8008d3c:	42a3      	cmp	r3, r4
 8008d3e:	bf0c      	ite	eq
 8008d40:	6032      	streq	r2, [r6, #0]
 8008d42:	605a      	strne	r2, [r3, #4]
 8008d44:	e7ec      	b.n	8008d20 <_malloc_r+0xa0>
 8008d46:	4623      	mov	r3, r4
 8008d48:	6864      	ldr	r4, [r4, #4]
 8008d4a:	e7b2      	b.n	8008cb2 <_malloc_r+0x32>
 8008d4c:	4634      	mov	r4, r6
 8008d4e:	6876      	ldr	r6, [r6, #4]
 8008d50:	e7b9      	b.n	8008cc6 <_malloc_r+0x46>
 8008d52:	230c      	movs	r3, #12
 8008d54:	4638      	mov	r0, r7
 8008d56:	603b      	str	r3, [r7, #0]
 8008d58:	f000 f84c 	bl	8008df4 <__malloc_unlock>
 8008d5c:	e7a1      	b.n	8008ca2 <_malloc_r+0x22>
 8008d5e:	6025      	str	r5, [r4, #0]
 8008d60:	e7de      	b.n	8008d20 <_malloc_r+0xa0>
 8008d62:	bf00      	nop
 8008d64:	20001bf4 	.word	0x20001bf4

08008d68 <_realloc_r>:
 8008d68:	e92d 41f0 	stmdb	sp!, {r4, r5, r6, r7, r8, lr}
 8008d6c:	4680      	mov	r8, r0
 8008d6e:	4614      	mov	r4, r2
 8008d70:	460e      	mov	r6, r1
 8008d72:	b921      	cbnz	r1, 8008d7e <_realloc_r+0x16>
 8008d74:	4611      	mov	r1, r2
 8008d76:	e8bd 41f0 	ldmia.w	sp!, {r4, r5, r6, r7, r8, lr}
 8008d7a:	f7ff bf81 	b.w	8008c80 <_malloc_r>
 8008d7e:	b92a      	cbnz	r2, 8008d8c <_realloc_r+0x24>
 8008d80:	f7ff ff16 	bl	8008bb0 <_free_r>
 8008d84:	4625      	mov	r5, r4
 8008d86:	4628      	mov	r0, r5
 8008d88:	e8bd 81f0 	ldmia.w	sp!, {r4, r5, r6, r7, r8, pc}
 8008d8c:	f000 f838 	bl	8008e00 <_malloc_usable_size_r>
 8008d90:	4284      	cmp	r4, r0
 8008d92:	4607      	mov	r7, r0
 8008d94:	d802      	bhi.n	8008d9c <_realloc_r+0x34>
 8008d96:	ebb4 0f50 	cmp.w	r4, r0, lsr #1
 8008d9a:	d812      	bhi.n	8008dc2 <_realloc_r+0x5a>
 8008d9c:	4621      	mov	r1, r4
 8008d9e:	4640      	mov	r0, r8
 8008da0:	f7ff ff6e 	bl	8008c80 <_malloc_r>
 8008da4:	4605      	mov	r5, r0
 8008da6:	2800      	cmp	r0, #0
 8008da8:	d0ed      	beq.n	8008d86 <_realloc_r+0x1e>
 8008daa:	42bc      	cmp	r4, r7
 8008dac:	4622      	mov	r2, r4
 8008dae:	4631      	mov	r1, r6
 8008db0:	bf28      	it	cs
 8008db2:	463a      	movcs	r2, r7
 8008db4:	f7ff fb92 	bl	80084dc <memcpy>
 8008db8:	4631      	mov	r1, r6
 8008dba:	4640      	mov	r0, r8
 8008dbc:	f7ff fef8 	bl	8008bb0 <_free_r>
 8008dc0:	e7e1      	b.n	8008d86 <_realloc_r+0x1e>
 8008dc2:	4635      	mov	r5, r6
 8008dc4:	e7df      	b.n	8008d86 <_realloc_r+0x1e>
	...

08008dc8 <_sbrk_r>:
 8008dc8:	b538      	push	{r3, r4, r5, lr}
 8008dca:	2300      	movs	r3, #0
 8008dcc:	4d05      	ldr	r5, [pc, #20]	; (8008de4 <_sbrk_r+0x1c>)
 8008dce:	4604      	mov	r4, r0
 8008dd0:	4608      	mov	r0, r1
 8008dd2:	602b      	str	r3, [r5, #0]
 8008dd4:	f7f8 fda0 	bl	8001918 <_sbrk>
 8008dd8:	1c43      	adds	r3, r0, #1
 8008dda:	d102      	bne.n	8008de2 <_sbrk_r+0x1a>
 8008ddc:	682b      	ldr	r3, [r5, #0]
 8008dde:	b103      	cbz	r3, 8008de2 <_sbrk_r+0x1a>
 8008de0:	6023      	str	r3, [r4, #0]
 8008de2:	bd38      	pop	{r3, r4, r5, pc}
 8008de4:	20001bfc 	.word	0x20001bfc

08008de8 <__malloc_lock>:
 8008de8:	4801      	ldr	r0, [pc, #4]	; (8008df0 <__malloc_lock+0x8>)
 8008dea:	f000 b811 	b.w	8008e10 <__retarget_lock_acquire_recursive>
 8008dee:	bf00      	nop
 8008df0:	20001c00 	.word	0x20001c00

08008df4 <__malloc_unlock>:
 8008df4:	4801      	ldr	r0, [pc, #4]	; (8008dfc <__malloc_unlock+0x8>)
 8008df6:	f000 b80c 	b.w	8008e12 <__retarget_lock_release_recursive>
 8008dfa:	bf00      	nop
 8008dfc:	20001c00 	.word	0x20001c00

08008e00 <_malloc_usable_size_r>:
 8008e00:	f851 3c04 	ldr.w	r3, [r1, #-4]
 8008e04:	1f18      	subs	r0, r3, #4
 8008e06:	2b00      	cmp	r3, #0
 8008e08:	bfbc      	itt	lt
 8008e0a:	580b      	ldrlt	r3, [r1, r0]
 8008e0c:	18c0      	addlt	r0, r0, r3
 8008e0e:	4770      	bx	lr

08008e10 <__retarget_lock_acquire_recursive>:
 8008e10:	4770      	bx	lr

08008e12 <__retarget_lock_release_recursive>:
 8008e12:	4770      	bx	lr

08008e14 <_init>:
 8008e14:	b5f8      	push	{r3, r4, r5, r6, r7, lr}
 8008e16:	bf00      	nop
 8008e18:	bcf8      	pop	{r3, r4, r5, r6, r7}
 8008e1a:	bc08      	pop	{r3}
 8008e1c:	469e      	mov	lr, r3
 8008e1e:	4770      	bx	lr

08008e20 <_fini>:
 8008e20:	b5f8      	push	{r3, r4, r5, r6, r7, lr}
 8008e22:	bf00      	nop
 8008e24:	bcf8      	pop	{r3, r4, r5, r6, r7}
 8008e26:	bc08      	pop	{r3}
 8008e28:	469e      	mov	lr, r3
 8008e2a:	4770      	bx	lr
